 bcmihvsrv

 Timestamp is 524cd181 (Wed Oct 02 19:08:01 2013)

 Preferred load address is 10000000

 Start         Length     Name                   Class
 0001:00000000 00000055H .text$di                CODE
 0001:00000060 00044c42H .text$mn                CODE
 0001:00044cb0 000003c6H .text$x                 CODE
 0001:00045080 0000002bH .text$yd                CODE
 0002:00000000 00000308H .idata$5                DATA
 0002:00000308 00000004H .CRT$XCA                DATA
 0002:0000030c 00000008H .CRT$XCU                DATA
 0002:00000314 00000004H .CRT$XCZ                DATA
 0002:00000318 00000004H .CRT$XIA                DATA
 0002:0000031c 00000010H .CRT$XIC                DATA
 0002:0000032c 00000004H .CRT$XIZ                DATA
 0002:00000330 00000004H .CRT$XPA                DATA
 0002:00000334 00000008H .CRT$XPX                DATA
 0002:0000033c 00000004H .CRT$XPXA               DATA
 0002:00000340 00000004H .CRT$XPZ                DATA
 0002:00000344 00000004H .CRT$XTA                DATA
 0002:00000348 00000004H .CRT$XTZ                DATA
 0002:00000350 00013db8H .rdata                  DATA
 0002:00014108 000000a0H .rdata$debug            DATA
 0002:000141a8 0000026cH .rdata$r                DATA
 0002:00014420 00000054H .rdata$sxdata           DATA
 0002:00014474 00000004H .rtc$IAA                DATA
 0002:00014478 00000004H .rtc$IZZ                DATA
 0002:0001447c 00000004H .rtc$TAA                DATA
 0002:00014480 00000004H .rtc$TZZ                DATA
 0002:00014488 00000b04H .xdata$x                DATA
 0002:00014f90 000000e2H .edata                  DATA
 0002:00015074 000000dcH .idata$2                DATA
 0002:00015150 00000014H .idata$3                DATA
 0002:00015164 00000308H .idata$4                DATA
 0002:0001546c 00000ef4H .idata$6                DATA
 0003:00000000 0000a8a0H .data                   DATA
 0003:0000a8a0 00000130H .data$r                 DATA
 0003:0000a9e0 00005938H .bss                    DATA
 0004:00000000 000177d0H .rsrc$01                DATA
 0004:000177d0 00346748H .rsrc$02                DATA

  Address         Publics by Value              Rva+Base       Lib:Object

 0000:00000000       ___guard_flags             00000000     <absolute>
 0000:00000000       __except_list              00000000     <absolute>
 0000:00000000       ___guard_fids_table        00000000     <absolute>
 0000:00000000       ___guard_fids_count        00000000     <absolute>
 0000:00000015       ___safe_se_handler_count   00000015     <absolute>
 0000:00000000       ___ImageBase               10000000     <linker-defined>
 0001:00000060       ?InitIhvCommon@@YAXXZ      10001060 f   ihv_common.obj
 0001:00000180       ?CopyCredential@@YAKPBU_IHV_CREDENTIAL@@PAPAU1@@Z 10001180 f   ihv_common.obj
 0001:000001f0       ??0CIHVS_ADAPTER_CONTEXT@@QAE@PAU_DOT11_ADAPTER@@PAX@Z 100011f0 f i cihvs.obj
 0001:000004b0       ??1CIHVS_ADAPTER_CONTEXT@@QAE@XZ 100014b0 f i cihvs.obj
 0001:00000580       ?setCredential@CIHVS_ADAPTER_CONTEXT@@QAEXPAU_IHV_CREDENTIAL@@@Z 10001580 f i cihvs.obj
 0001:000005c0       ??0CIhvIeCollector@@QAE@XZ 100015c0 f i cihvs.obj
 0001:000005d0       ??1CIhvIeCollector@@UAE@XZ 100015d0 f i cihvs.obj
 0001:000005e0       ??_GCIhvIeCollector@@UAEPAXI@Z 100015e0 f i cihvs.obj
 0001:000005e0       ??_ECIhvIeCollector@@UAEPAXI@Z 100015e0 f i * CIL library *:* CIL module *
 0001:00000610       _DllMain@12                10001610 f   cihvs.obj
 0001:000006a0       ?BcmSetDriverIovarMBytes@@YAKPAVCIHVS_ADAPTER_CONTEXT@@PADPAXK@Z 100016a0 f   cihvs.obj
 0001:00000780       ?BcmGetDriverIovarMBytes@@YAKPAVCIHVS_ADAPTER_CONTEXT@@PAD1K@Z 10001780 f   cihvs.obj
 0001:00000860       ?BcmGetDriverMBytes@@YAKPAVCIHVS_ADAPTER_CONTEXT@@KPAXK@Z 10001860 f   cihvs.obj
 0001:00000930       ?BcmGetDriverMBytes@@YAKPAVCIHVS_ADAPTER_CONTEXT@@KKPAXPAK@Z 10001930 f   cihvs.obj
 0001:00000a60       ?BcmSetDriverIovarInt@@YAKPAVCIHVS_ADAPTER_CONTEXT@@PADH@Z 10001a60 f   cihvs.obj
 0001:00000b30       ?BcmGetDriverIovarInt@@YAKPAVCIHVS_ADAPTER_CONTEXT@@PADPAK@Z 10001b30 f   cihvs.obj
 0001:00000c00       _Dot11ExtIhvGetVersionInfo@4 10001c00 f   cihvs.obj
 0001:00000c20       _Dot11ExtIhvInitService@16 10001c20 f   cihvs.obj
 0001:00000da0       ?Dot11ExtIhvAdapterReset@@YGKPAX@Z 10001da0 f   cihvs.obj
 0001:00000f00       ?Dot11ExtIhvCreateDiscoveryProfiles@@YGKPAXHPAU_DOT11EXT_IHV_PROFILE_PARAMS@@PAU_DOT11_BSS_LIST@@PAU_DOT11EXT_IHV_DISCOVERY_PROFILE_LIST@@PAK@Z 10001f00 f   cihvs.obj
 0001:00000f50       ?Dot11ExtIhvDeinitAdapter@@YGXPAX@Z 10001f50 f   cihvs.obj
 0001:00000ff0       ?Dot11ExtIhvDeinitService@@YGXXZ 10001ff0 f   cihvs.obj
 0001:00001020       ?Dot11ExtIhvInitAdapter@@YGKPAU_DOT11_ADAPTER@@PAXPAPAX@Z 10002020 f   cihvs.obj
 0001:000011c0       ?FindInAdaptersList@CIHVS_ADAPTER_CONTEXT@@SAPAV1@P6AHPAV1@PAX@Z1@Z 100021c0 f   cihvs.obj
 0001:00001260       ?Dot11ExtIhvIsUIRequestPending@@YGKU_GUID@@PAH@Z 10002260 f   cihvs.obj
 0001:000012d0       ?Dot11ExtIhvReceiveIndication@@YGKPAXW4_DOT11EXT_IHV_INDICATION_TYPE@@K0@Z 100022d0 f   cihvs.obj
 0001:000013b0       ?Dot11ExtIhvPerformCapabilityMatch@@YGKPAXPAU_DOT11EXT_IHV_PROFILE_PARAMS@@PAU_DOT11EXT_IHV_CONNECTIVITY_PROFILE@@PAU_DOT11EXT_IHV_SECURITY_PROFILE@@PAU_DOT11_BSS_LIST@@PAK@Z 100023b0 f   cihvs.obj
 0001:00001580       ?Dot11ExtIhvPerformPostAssociate@@YGKPAX0PAU_DOT11_PORT_STATE@@KPAUDOT11_ASSOCIATION_COMPLETION_PARAMETERS@@@Z 10002580 f   cihvs.obj
 0001:00001640       ?Dot11ExtIhvPerformPreAssociate@@YGKPAX0PAU_DOT11EXT_IHV_PROFILE_PARAMS@@PAU_DOT11EXT_IHV_CONNECTIVITY_PROFILE@@PAU_DOT11EXT_IHV_SECURITY_PROFILE@@PAU_DOT11_BSS_LIST@@PAK@Z 10002640 f   cihvs.obj
 0001:00001790       ?PreAssociate@@YGKPAX@Z    10002790 f   cihvs.obj
 0001:00001870       ?Dot11ExtIhvProcessSessionChange@@YGKKPAUtagWTSSESSION_NOTIFICATION@@@Z 10002870 f   cihvs.obj
 0001:00001880       ?Dot11ExtIhvProcessUIResponse@@YGKU_GUID@@KPAX@Z 10002880 f   cihvs.obj
 0001:000019a0       ?Dot11ExtIhvQueryUIRequest@@YGKPAXW4_DOT11EXT_IHV_CONNECTION_PHASE@@PAPAU_DOT11EXT_IHV_UI_REQUEST@@@Z 100029a0 f   cihvs.obj
 0001:000019b0       ?Dot11ExtIhvOnexIndicateResult@@YGKPAXW4_DOT11_MSONEX_RESULT@@PAU_DOT11_MSONEX_RESULT_PARAMS@@@Z 100029b0 f   cihvs.obj
 0001:000019c0       ?Dot11ExtIhvReceivePacket@@YGKPAXK0@Z 100029c0 f   cihvs.obj
 0001:00001a10       ?Dot11ExtIhvSendPacketCompletion@@YGKPAX@Z 10002a10 f   cihvs.obj
 0001:00001a30       ?Dot11ExtIhvStopPostAssociate@@YGKPAXPAY05EK@Z 10002a30 f   cihvs.obj
 0001:00001aa0       ?Dot11ExtIhvValidateProfile@@YGKPAXPAU_DOT11EXT_IHV_PROFILE_PARAMS@@PAU_DOT11EXT_IHV_CONNECTIVITY_PROFILE@@PAU_DOT11EXT_IHV_SECURITY_PROFILE@@PAK@Z 10002aa0 f   cihvs.obj
 0001:00001b80       ?BcmGet@@YAKPAVCIHVS_ADAPTER_CONTEXT@@KPBXKPAXKPAK@Z 10002b80 f   cihvs.obj
 0001:00001c70       ?Dot11ExtIhvControl@@YGKPAXKPAEK1PAK@Z 10002c70 f   cihvs.obj
 0001:00001db0       ?waitForThreads@CIHVS_ADAPTER_CONTEXT@@QAEXXZ 10002db0 f   cihvs.obj
 0001:00001e00       ?setAssocCompleteParams@CIHVS_ADAPTER_CONTEXT@@QAEXPAUDOT11_ASSOCIATION_COMPLETION_PARAMETERS@@@Z 10002e00 f   cihvs.obj
 0001:00001e80       ?readProfileSecurity@CIHVS_ADAPTER_CONTEXT@@QAEHPAU_DOT11EXT_IHV_SECURITY_PROFILE@@@Z 10002e80 f   cihvs.obj
 0001:00001fc0       ?readProfileConnectivity@CIHVS_ADAPTER_CONTEXT@@QAEHPAU_DOT11EXT_IHV_CONNECTIVITY_PROFILE@@@Z 10002fc0 f   cihvs.obj
 0001:00002090       ?IndicatePostAssociate@CIHVS_ADAPTER_CONTEXT@@QAEXKK@Z 10003090 f   cihvs.obj
 0001:00002110       ?startThread@CIHVS_ADAPTER_CONTEXT@@QAEXP6GKPAX@Z0@Z 10003110 f   cihvs.obj
 0001:00002190       ?threadFunc@CIHVS_ADAPTER_CONTEXT@@CGKPAX@Z 10003190 f   cihvs.obj
 0001:000021e0       ?SetDPTConnection@CIHVS_ADAPTER_CONTEXT@@QAEXXZ 100031e0 f   cihvs.obj
 0001:00002240       ?SetDPTPassphrase@CIHVS_ADAPTER_CONTEXT@@AAEKPAG@Z 10003240 f   cihvs.obj
 0001:00002320       ?DecryptUserData@@YAKPAEKPAU_CRYPTOAPI_BLOB@@@Z 10003320 f   cihvs.obj
 0001:00002390       ?ImpersonateActiveConsoleSessionId@@YGKXZ 10003390 f   cihvs.obj
 0001:00002450       ?CopySecurityProfile@@YAKPAU_DOT11EXT_IHV_SECURITY_PROFILE@@0@Z 10003450 f   cihvs.obj
 0001:000024c0       ?CopyDiscoveryProfile@@YAKPAU_DOT11EXT_IHV_DISCOVERY_PROFILE@@0@Z 100034c0 f   cihvs.obj
 0001:00002570       ?InitCritSect@@YAKPAU_RTL_CRITICAL_SECTION@@@Z 10003570 f   ihvutils.obj
 0001:000025f0       ?BinaryToHexRawString@@YAPAGQAEK@Z 100035f0 f   ihvutils.obj
 0001:00002690       ?HexRawStringToBinary@@YAPAEPBGPAK@Z 10003690 f   ihvutils.obj
 0001:00002740       _bcm_parse_tlvs            10003740 f   bcmutils.obj
 0001:00002780       ?GetRootCertificate@@YAKPBU_CERT_CONTEXT@@PAXPAPBU1@@Z 10003780 f   certutil.obj
 0001:00002840       ??1CBstr@@QAE@XZ           10003840 f i DPTProfile.obj
 0001:00002850       ?xmlSet@DPTProfile@@QAEXPAUIXMLDOMDocument@@PAG@Z 10003850 f   DPTProfile.obj
 0001:00002b00       ?xmlSet@DPTProfile@@QAEXPBG@Z 10003b00 f   DPTProfile.obj
 0001:00002c30       ?HexString2Byte@DPTProfile@@SAPAEPBGPAK@Z 10003c30 f   DPTProfile.obj
 0001:00002d50       ?Hex2DPTKey@DPTProfile@@SAPAGPBG@Z 10003d50 f   DPTProfile.obj
 0001:00002d90       ?GetProfileFragment@DPTProfile@@SAPAGPBG0@Z 10003d90 f   DPTProfile.obj
 0001:00002f50       ?GetRegistryBinaryValue@DPTUtils@@YAPAEPAUHKEY__@@PAGPAK@Z 10003f50 f   DPTUtils.obj
 0001:00003010       ?DecryptDPTKey@DPTUtils@@YAHPAEKPAU_CRYPTOAPI_BLOB@@@Z 10004010 f   DPTUtils.obj
 0001:00003080       ?DecryptDPTKey@DPTUtils@@YAPAGPAEK@Z 10004080 f   DPTUtils.obj
 0001:00003150       ?LoadDPTGlobalKey@DPTUtils@@YAHPAU_CRYPTOAPI_BLOB@@@Z 10004150 f   DPTUtils.obj
 0001:00003210       ?LoadDPTGlobalKey@DPTUtils@@YAPAGXZ 10004210 f   DPTUtils.obj
 0001:000032b0       ?GetTempDPTGlobalKey@DPTUtils@@YAPAGXZ 100042b0 f   DPTUtils.obj
 0001:00003320       ??0CProfileIHVSecurity@@QAE@XZ 10004320 f   CCXProfile.obj
 0001:00003380       ??1CProfileIHVSecurity@@QAE@XZ 10004380 f   CCXProfile.obj
 0001:000033c0       ?setCredential@CProfileIHVSecurity@@QAEXPAU_IHV_CREDENTIAL@@@Z 100043c0 f   CCXProfile.obj
 0001:00003440       ?IsValid@CProfileIHVSecurity@@QAEHXZ 10004440 f   CCXProfile.obj
 0001:00003560       ?xmlSet@CProfileIHVSecurity@@QAEXPBG@Z 10004560 f   CCXProfile.obj
 0001:00003c10       ?xmlGet@CProfileIHVSecurity@@QAEPAGXZ 10004c10 f   CCXProfile.obj
 0001:00004250       ??0CProfileIHVConnectivity@@QAE@XZ 10005250 f   CCXProfile.obj
 0001:000042a0       ?SetDefaults@CProfileIHVConnectivity@@QAEXXZ 100052a0 f   CCXProfile.obj
 0001:000042f0       ?IsValid@CProfileIHVConnectivity@@QAEHXZ 100052f0 f   CCXProfile.obj
 0001:000043e0       ?xmlSet@CProfileIHVConnectivity@@QAEXPBG@Z 100053e0 f   CCXProfile.obj
 0001:00004cd0       ?xmlGet@CProfileIHVConnectivity@@QAEPAGXZ 10005cd0 f   CCXProfile.obj
 0001:00005580       ?Hex2Ssid@CProfileIHVConnectivity@@SA_NPBGPAEPAH@Z 10006580 f   CCXProfile.obj
 0001:000056b0       ?Ssid2Hex@CProfileIHVConnectivity@@SA_NPBEHPAG@Z 100066b0 f   CCXProfile.obj
 0001:00005700       ?Name2Ssid@CProfileIHVConnectivity@@SA_NPBGPAEPAH@Z 10006700 f   CCXProfile.obj
 0001:00005e30       ?DoWapiPskPreAssociate@@YGKPAVCIHVS_ADAPTER_CONTEXT@@PAXPAK@Z 10006e30 f   ihvwapi.obj
 0001:00005e70       ?DoWapiCertPreAssociate@@YGKPAVCIHVS_ADAPTER_CONTEXT@@PAXPAK@Z 10006e70 f   ihvwapi.obj
 0001:00005eb0       ?WaiIhvAdapterReset@@YGKPAX@Z 10006eb0 f   ihvwapi.obj
 0001:00005ed0       ?WaiIhvStopPostAssociate@@YGKPAXPAY05EK@Z 10006ed0 f   ihvwapi.obj
 0001:00005ef0       ?WaiPostAssociate@@YGKPAX@Z 10006ef0 f   ihvwapi.obj
 0001:00005fc0       ?PostAssociateComplete@@YGKPAX@Z 10006fc0 f   ihvwapi.obj
 0001:00006180       ?WaiReceivePacket@@YGKPAXK0@Z 10007180 f   ihvwapi.obj
 0001:000063c0       ?CopySecurityProfilesToDiscoveryBuffer@@YAKPAVCProfileIHVSecurity@@PAU_DOT11EXT_IHV_DISCOVERY_PROFILE@@K@Z 100073c0 f   ihvwapi.obj
 0001:000064b0       ?ParseWapiIe@@YAKPBUDOT11_BSS_ENTRY@@PAUrsn_parms@@@Z 100074b0 f   ihvwapi.obj
 0001:000065a0       ?WapiCreateDiscoveryProfiles@@YAKPAU_DOT11EXT_IHV_PROFILE_PARAMS@@PAU_DOT11_BSS_LIST@@PAU_DOT11EXT_IHV_DISCOVERY_PROFILE_LIST@@@Z 100075a0 f   ihvwapi.obj
 0001:00006840       ?PerformCapabilityMatch@@YAKPAVCProfileIHVConnectivity@@PAVCProfileIHVSecurity@@PAU_DOT11EXT_IHV_PROFILE_PARAMS@@PAU_DOT11_BSS_LIST@@@Z 10007840 f   ihvwapi.obj
 0001:00006940       ?InitWapi@@YAHPAUHINSTANCE__@@@Z 10007940 f   ihvwapi.obj
 0001:00006a00       ?DeinitWapi@@YAXXZ         10007a00 f   ihvwapi.obj
 0001:00006af0       ?CreateWapiSession@@YAKPAXPAPAU_WAPI_SESSION@@@Z 10007af0 f   ihvwapi.obj
 0001:00006bc0       ?DestroyWapiSession@@YAXPAU_WAPI_SESSION@@@Z 10007bc0 f   ihvwapi.obj
 0001:00006d60       _OS_timer_setup            10007d60 f   ihvwapi.obj
 0001:00006dd0       _WIFI_TX_packet            10007dd0 f   ihvwapi.obj
 0001:00006ef0       _WIFI_Action_Deauth        10007ef0 f   ihvwapi.obj
 0001:00006f60       _WIFI_unicast_key_set      10007f60 f   ihvwapi.obj
 0001:00007030       _WIFI_group_key_set        10008030 f   ihvwapi.obj
 0001:00007380       _ecc192_verify             10008380 f   wapiwin.obj
 0001:000074f0       _ecc192_sign               100084f0 f   wapiwin.obj
 0001:00007580       _ecc192_genkey             10008580 f   wapiwin.obj
 0001:00007710       _ecc192_ecdh               10008710 f   wapiwin.obj
 0001:000078d0       _get_x509_cert             100088d0 f   wapiwin.obj
 0001:00007b50       _x509_free_obj_data        10008b50 f   wapiwin.obj
 0001:00007be0       _mhash_sha256              10008be0 f   wapiwin.obj
 0001:00007ce0       _wapi_hmac_sha256          10008ce0 f   wapiwin.obj
 0001:00007e40       _KD_hmac_sha256            10008e40 f   wapiwin.obj
 0001:00008020       ?GetActionFrameRxInfo@@YAHPBXIPAW4IEBLOBINFO_FC@@PAIPAPBX2@Z 10009020 f   FrameRxInfo.obj
 0001:000080e0       ?GetMgmtFrameRxInfo@@YAHIPBXIPAW4IEBLOBINFO_FC@@PAIPAPBX2@Z 100090e0 f   FrameRxInfo.obj
 0001:00008160       ?CacheInsertIeInfo@@YAHPBEPBUIEINFO@@@Z 10009160 f   IeCollector.obj
 0001:00008320       ?PersistentDeviceGet@@YAPAUPERSISTENTDEVICE@@PBE@Z 10009320 f   IeCollector.obj
 0001:00008470       ?PersistentDeviceGetIeBlobInfo@@YAHPAUPERSISTENTDEVICE@@PAUIEBLOBINFO@@PAK@Z 10009470 f   IeCollector.obj
 0001:000084f0       ?PersistentDeviceSetIeInfo@@YAHPAUPERSISTENTDEVICE@@PBUIEINFO@@I@Z 100094f0 f   IeCollector.obj
 0001:00008830       ?IeCollectorDiscoveryCompletion@@YAHPBEPBUIECOLLECTORBCNPRBDATA@@@Z 10009830 f   IeCollector.obj
 0001:00008920       ?IeCollectorProcessFrame@@YAHPBEW4IEBLOBINFO_FC@@IPBXI@Z 10009920 f   IeCollector.obj
 0001:000089c0       ?IeCollectorProcessNewPersistentDevice@@YAHPBEPBUIECOLLECTORBCNPRBDATA@@@Z 100099c0 f   IeCollector.obj
 0001:00008c60       ?IeCollectorGetIeInfo@@YA?AW4IECOLLECTORERR@@PBEPAUIEBLOBINFO@@PAK@Z 10009c60 f   IeCollector.obj
 0001:00008eb0       ?OnEvent@CFunctionDiscoveryNotificationWrapper@@UAGJK_KPBG@Z 10009eb0 f i IhvIeCollector.obj
 0001:00008eb0       ?OnError@CFunctionDiscoveryNotificationWrapper@@UAGJJ_KPBG@Z 10009eb0 f i IhvIeCollector.obj
 0001:00008ec0       ?QueryInterface@CFDWfdDevicePaired@@UAGJABU_GUID@@PAPAX@Z 10009ec0 f i IhvIeCollector.obj
 0001:00008f30       ?AddRef@CFDWfdDevicePaired@@UAGKXZ 10009f30 f i IhvIeCollector.obj
 0001:00008f50       ?Release@CFDWfdDevicePaired@@UAGKXZ 10009f50 f i IhvIeCollector.obj
 0001:00008f80       ??_ECFDWfdDevicePaired@@UAEPAXI@Z 10009f80 f i * CIL library *:* CIL module *
 0001:00008f80       ??_GCFDWfdDevicePaired@@UAEPAXI@Z 10009f80 f i IhvIeCollector.obj
 0001:00008fb0       ??0IFunctionDiscoveryNotification@@QAE@XZ 10009fb0 f i IhvIeCollector.obj
 0001:00009590       ?InitializeAdapter@CIhvIeCollector@@QAE_NPAVCIHVS_ADAPTER_CONTEXT@@@Z 1000a590 f   IhvIeCollector.obj
 0001:00009630       ?Initialize@CIhvIeCollector@@QAE_NXZ 1000a630 f   IhvIeCollector.obj
 0001:000096b0       ?Deinitialize@CIhvIeCollector@@QAEXXZ 1000a6b0 f   IhvIeCollector.obj
 0001:00009760       ?OnIndication@CIhvIeCollector@@QAEXPBU_IHV_NIC_SPECIFIC_EXTENSION@@K@Z 1000a760 f   IhvIeCollector.obj
 0001:000097c0       ?GetIeInfo@CIhvIeCollector@@QAEKPBEPAUIEBLOBINFO@@PAK@Z 1000a7c0 f   IhvIeCollector.obj
 0001:000097f0       ?Initialize@CFDWfdDevicePaired@@QAEJPAXP6AX0PBE@Z@Z 1000a7f0 f   NotifyWfdDevicePaired.obj
 0001:00009890       ?OnUpdate@CFDWfdDevicePaired@@UAGJW4tagQueryUpdateAction@@_KPAUIFunctionInstance@@@Z 1000a890 f   NotifyWfdDevicePaired.obj
 0001:000099c0       _wlan_deauth_for_otherc    1000a9c0 f   waiprot:interface.obj
 0001:00009b70       _timer_resend              1000ab70 f   waiprot:interface.obj
 0001:00009bf0       _iwn_free_buffer           1000abf0 f   waiprot:interface.obj
 0001:00009c10       _lib_get_wapi_state        1000ac10 f   waiprot:interface.obj
 0001:00009dc0       _WAI_CNTAPPARA_SET         1000adc0 f   waiprot:interface.obj
 0001:00009fc0       _WAI_Msg_Input             1000afc0 f   waiprot:interface.obj
 0001:0000a350       _WAI_RX_packets_indication 1000b350 f   waiprot:interface.obj
 0001:0000a3a0       _WIFI_lib_init             1000b3a0 f   waiprot:interface.obj
 0001:0000a8a0       _ParsePubKey               1000b8a0 f   waiprot:cert.obj
 0001:0000aa50       _iwn_x509_get_pubkey       1000ba50 f   waiprot:cert.obj
 0001:0000ad80       _iwn_x509_get_subject_name 1000bd80 f   waiprot:cert.obj
 0001:0000b070       _iwn_x509_get_serial_number 1000c070 f   waiprot:cert.obj
 0001:0000b230       _iwn_x509_get_issuer_name  1000c230 f   waiprot:cert.obj
 0001:0000b4d0       _iwn_x509_get_sign         1000c4d0 f   waiprot:cert.obj
 0001:0000b6d0       _iwn_x509_get_sign_inlen   1000c6d0 f   waiprot:cert.obj
 0001:0000b770       _cert_obj_register         1000c770 f   waiprot:cert.obj
 0001:0000b830       _cert_obj_unregister       1000c830 f   waiprot:cert.obj
 0001:0000b900       _get_cert_obj              1000c900 f   waiprot:cert.obj
 0001:0000b920       _x509_verify_cert          1000c920 f   waiprot:cert.obj
 0001:0000ba60       _init_cert                 1000ca60 f   waiprot:cert.obj
 0001:0000bc40       _free_rxfrag               1000cc40 f   waiprot:wapi.obj
 0001:0000bc80       _iwn_wpa_defrag            1000cc80 f   waiprot:wapi.obj
 0001:0000c170       _iwn_wai_fixdata_id_by_ident 1000d170 f   waiprot:wapi.obj
 0001:0000c600       _iwn_wapi_sm_rx_wai        1000d600 f   waiprot:wapi.obj
 0001:0000def0       _get_random                1000eef0 f   waiprot:common.obj
 0001:0000dfa0       _iwn_wpa_printf            1000efa0 f   waiprot:common.obj
 0001:0000dfd0       _print_buf                 1000efd0 f   waiprot:common.obj
 0001:0000e2c0       _x509_ecc_verify           1000f2c0 f   waiprot:common.obj
 0001:0000e310       _x509_ecc_sign             1000f310 f   waiprot:common.obj
 0001:0000e340       _x509_ecc_verify_key       1000f340 f   waiprot:common.obj
 0001:0000e410       _wpi_encrypt               1000f410 f   waiprot:wpi_pcrypt.obj
 0001:0000e5b0       _SMS4Crypt                 1000f5b0 f   waiprot:sms4c.obj
 0001:0000e8b0       _SMS4KeyExt                1000f8b0 f   waiprot:sms4c.obj
 0001:0000eb40       _GetKeyStorageInterface@12 1000fb40 f   IHVCngLib:bwcgksp.obj
 0001:0000eb60       ?BwcgKspOpenProvider@@YGJPAKPB_WK@Z 1000fb60 f   IHVCngLib:bwcgksp.obj
 0001:0000ec10       ?BwcgKspFreeProvider@@YGJK@Z 1000fc10 f   IHVCngLib:bwcgksp.obj
 0001:0000ec80       ?BwcgKspOpenKey@@YGJKPAKPB_WKK@Z 1000fc80 f   IHVCngLib:bwcgksp.obj
 0001:0000ed40       ?BwcgKspCreatePersistedKey@@YGJKPAKPB_W1KK@Z 1000fd40 f   IHVCngLib:bwcgksp.obj
 0001:0000ee80       ?BwcgKspGetProviderProperty@@YGJKPB_WPAEKPAKK@Z 1000fe80 f   IHVCngLib:bwcgksp.obj
 0001:0000f210       ?BwcgKspGetKeyProperty@@YGJKKPB_WPAEKPAKK@Z 10010210 f   IHVCngLib:bwcgksp.obj
 0001:0000f7e0       ?BwcgKspSetProviderProperty@@YGJKPB_WPAEKK@Z 100107e0 f   IHVCngLib:bwcgksp.obj
 0001:0000f8f0       ?BwcgKspSetKeyProperty@@YGJKKPB_WPAEKK@Z 100108f0 f   IHVCngLib:bwcgksp.obj
 0001:0000fad0       ?BwcgKspFinalizeKey@@YGJKKK@Z 10010ad0 f   IHVCngLib:bwcgksp.obj
 0001:0000fba0       ?BwcgKspDeleteKey@@YGJKKK@Z 10010ba0 f   IHVCngLib:bwcgksp.obj
 0001:0000fc00       ?BwcgKspFreeKey@@YGJKK@Z   10010c00 f   IHVCngLib:bwcgksp.obj
 0001:0000fc40       ?BwcgKspFreeBuffer@@YGJPAX@Z 10010c40 f   IHVCngLib:bwcgksp.obj
 0001:0000fcc0       ?BwcgKspEncrypt@@YGJKKPAEKPAX0KPAKK@Z 10010cc0 f   IHVCngLib:bwcgksp.obj
 0001:0000fd60       ?BwcgKspDecrypt@@YGJKKPAEKPAX0KPAKK@Z 10010d60 f   IHVCngLib:bwcgksp.obj
 0001:0000fe10       ?BwcgKspIsAlgSupported@@YGJKPB_WK@Z 10010e10 f   IHVCngLib:bwcgksp.obj
 0001:0000fea0       ?BwcgKspEnumAlgorithms@@YGJKKPAKPAPAU_NCryptAlgorithmName@@K@Z 10010ea0 f   IHVCngLib:bwcgksp.obj
 0001:0000ffa0       ?BwcgKspEnumKeys@@YGJKPB_WPAPAUNCryptKeyName@@PAPAXK@Z 10010fa0 f   IHVCngLib:bwcgksp.obj
 0001:00010150       ?BwcgKspImportKey@@YGJKKPB_WPAU_BCryptBufferDesc@@PAKPAEKK@Z 10011150 f   IHVCngLib:bwcgksp.obj
 0001:00010510       ?BwcgKspExportKey@@YGJKKKPB_WPAU_BCryptBufferDesc@@PAEKPAKK@Z 10011510 f   IHVCngLib:bwcgksp.obj
 0001:000107f0       ?BwcgKspSignHash@@YGJKKPAXPAEK1KPAKK@Z 100117f0 f   IHVCngLib:bwcgksp.obj
 0001:00010900       ?BwcgKspVerifySignature@@YGJKKPAXPAEK1KK@Z 10011900 f   IHVCngLib:bwcgksp.obj
 0001:00010990       ?BwcgKspPromptUser@@YGJKKPB_WK@Z 10011990 f   IHVCngLib:bwcgksp.obj
 0001:000109a0       ?BwcgKspNotifyChangeKey@@YGJKPAPAXK@Z 100119a0 f   IHVCngLib:bwcgksp.obj
 0001:000109b0       ?BwcgKspSecretAgreement@@YGJKKKPAKK@Z 100119b0 f   IHVCngLib:bwcgksp.obj
 0001:00010a10       ?BwcgKspDeriveKey@@YGJKKPB_WPAU_BCryptBufferDesc@@PAEKPAKK@Z 10011a10 f   IHVCngLib:bwcgksp.obj
 0001:00010a50       ?BwcgKspFreeSecret@@YGJKK@Z 10011a50 f   IHVCngLib:bwcgksp.obj
 0001:00010a80       ?EC192OpenAlgorithmProvider@@YGJPAPAXPB_WK@Z 10011a80 f   IHVCngLib:bwcgsap.obj
 0001:00010f20       ?EC192GetProperty@@YGJPAXPB_WPAEKPAKK@Z 10011f20 f   IHVCngLib:bwcgsap.obj
 0001:00010f90       ?EC192SetProperty@@YGJPAXPB_WPAEKK@Z 10011f90 f   IHVCngLib:bwcgsap.obj
 0001:00010fa0       ?EC192CloseAlgorithmProvider@@YGJPAXK@Z 10011fa0 f   IHVCngLib:bwcgsap.obj
 0001:00010ff0       ?EC192GenerateKeyPair@@YGJPAXPAPAXKK@Z 10011ff0 f   IHVCngLib:bwcgsap.obj
 0001:00011080       ?EC192FinalizeKeyPair@@YGJPAXK@Z 10012080 f   IHVCngLib:bwcgsap.obj
 0001:00011120       ?EC192DestroyKey@@YGJPAX@Z 10012120 f   IHVCngLib:bwcgsap.obj
 0001:00011170       ?EC192SignHash@@YGJPAX0PAEK1KPAKK@Z 10012170 f   IHVCngLib:bwcgsap.obj
 0001:000111c0       ?EC192VerifySignature@@YGJPAX0PAEK1KK@Z 100121c0 f   IHVCngLib:bwcgsap.obj
 0001:00011210       ?EC192ImportKeyPair@@YGJPAX0PB_WPAPAXPAEKK@Z 10012210 f   IHVCngLib:bwcgsap.obj
 0001:00011410       ?EC192ExportKeyPair@@YGJPAX0PB_WPAEKPAKK@Z 10012410 f   IHVCngLib:bwcgsap.obj
 0001:000115d0       ?EC192SecretAgreement@@YGJPAX0PAPAXK@Z 100125d0 f   IHVCngLib:bwcgsap.obj
 0001:00011740       ?EC192DeriveKey@@YGJPAXPB_WPAU_BCryptBufferDesc@@PAEKPAKK@Z 10012740 f   IHVCngLib:bwcgsap.obj
 0001:000117c0       ?EC192DestroySecret@@YGJPAX@Z 100127c0 f   IHVCngLib:bwcgsap.obj
 0001:00011810       _GetSignatureInterface@16  10012810 f   IHVCngLib:bwcgsap.obj
 0001:000118b0       _GetSecretAgreementInterface@16 100128b0 f   IHVCngLib:bwcgsap.obj
 0001:00011950       _BwcgSapEC192Register@4    10012950 f   IHVCngLib:bwcgsapreg.obj
 0001:000119d0       _BwcgKspRegister@4         100129d0 f   IHVCngLib:bwcgkspreg.obj
 0001:00011ad0       ?NormalizeNteStatus@@YAJJ@Z 10012ad0 f   IHVCngLib:bwcgksphlp.obj
 0001:00011bf0       ?AllocAndDecryptPrivateKey@@YAJPAEKPAPAEPAK@Z 10012bf0 f   IHVCngLib:bwcgksphlp.obj
 0001:00011cc0       ?ProtectAndSetPrivateKey@@YAJPB_WPAEKPAU_BWCGKSP_KEY@@@Z 10012cc0 f   IHVCngLib:bwcgksphlp.obj
 0001:00011e10       ?ImportKeyPair@@YAJPAU_BWCGKSP_KEY@@@Z 10012e10 f   IHVCngLib:bwcgksphlp.obj
 0001:00011fd0       ?AllocAndGetEccPrivateKeyBlob@@YAJPAU_BWCGKSP_KEY@@PB_WPAPAEPAK@Z 10012fd0 f   IHVCngLib:bwcgksphlp.obj
 0001:00012110       ?FinalizeKey@@YAJPAU_BWCGKSP_KEY@@@Z 10013110 f   IHVCngLib:bwcgksphlp.obj
 0001:00012230       ?VerifyKey@@YAJPAU_BWCGKSP_KEY@@@Z 10013230 f   IHVCngLib:bwcgksphlp.obj
 0001:00012300       ?CreateNewKeyObject@@YGJPB_WPAPAU_BWCGKSP_KEY@@@Z 10013300 f   IHVCngLib:bwcgksphlp.obj
 0001:00012490       ?DeleteKeyObject@@YGJPAU_BWCGKSP_KEY@@@Z 10013490 f   IHVCngLib:bwcgksphlp.obj
 0001:000125c0       ?CreateNewProperty@@YAJPB_WPAEKKPAPAU_BWCGKSP_PROPERTY@@@Z 100135c0 f   IHVCngLib:bwcgksphlp.obj
 0001:000126a0       ?LookupExistingKeyProperty@@YAJPAU_BWCGKSP_KEY@@PB_WPAPAU_BWCGKSP_PROPERTY@@@Z 100136a0 f   IHVCngLib:bwcgksphlp.obj
 0001:00012720       ?SetBuildinKeyProperty@@YAJPAU_BWCGKSP_KEY@@PB_WPAEKPAK@Z 10013720 f   IHVCngLib:bwcgksphlp.obj
 0001:00012b10       ?FindFirstKeyFile@@YAJPAPAXPAPAUNCryptKeyName@@@Z 10013b10 f   IHVCngLib:bwcgksphlp.obj
 0001:00012db0       ?FindNextKeyFile@@YAJPAXPAPAUNCryptKeyName@@@Z 10013db0 f   IHVCngLib:bwcgksphlp.obj
 0001:00013080       ?ReadKeyNameFromParams@@YAJPBU_BCryptBufferDesc@@PAPA_W@Z 10014080 f   IHVCngLib:bwcgksphlp.obj
 0001:00013110       ?ULongAdd@@YAJKKPAK@Z      10014110 f i IHVCngLib:bwcgkspstorage.obj
 0001:00013130       ?ValidateKeyFile@@YAJPAEK@Z 10014130 f   IHVCngLib:bwcgkspstorage.obj
 0001:000131b0       ?ValidateKeyFileExistence@@YAJPAU_BWCGKSP_KEY@@@Z 100141b0 f   IHVCngLib:bwcgkspstorage.obj
 0001:00013230       ?IsThreadWellKnownSid@@YAJKPAH@Z 10014230 f   IHVCngLib:bwcgkspstorage.obj
 0001:00013400       ?GetSampleKeyStorageArea@@YAJPAPA_W@Z 10014400 f   IHVCngLib:bwcgkspstorage.obj
 0001:00013580       ?BuildKeyFilePath@@YAJU_BWCGKSP_KEY@@PAPA_W@Z 10014580 f   IHVCngLib:bwcgkspstorage.obj
 0001:00013640       ?ZeroizeFile@@YAJPB_W@Z    10014640 f   IHVCngLib:bwcgkspstorage.obj
 0001:000136f0       ?RemoveKeyFromStore@@YAJPAU_BWCGKSP_KEY@@@Z 100146f0 f   IHVCngLib:bwcgkspstorage.obj
 0001:00013780       ?ReadKeyNameFromFile@@YAJPA_W0PAPAUNCryptKeyName@@@Z 10014780 f   IHVCngLib:bwcgkspstorage.obj
 0001:00013960       ?ReadKeyFile@@YAJPAU_BWCGKSP_KEY@@@Z 10014960 f   IHVCngLib:bwcgkspstorage.obj
 0001:00013ba0       ?WriteKeyFile@@YAJPAU_BWCGKSP_KEY@@@Z 10014ba0 f   IHVCngLib:bwcgkspstorage.obj
 0001:00013c60       ?WriteKeyToStore@@YAJPAU_BWCGKSP_KEY@@@Z 10014c60 f   IHVCngLib:bwcgkspstorage.obj
 0001:00013d90       ?ParseKeyFile@@YAJPAU_BWCGKSP_KEY@@@Z 10014d90 f   IHVCngLib:bwcgkspstorage.obj
 0001:00013f20       ?ConvertContainerSecurityDescriptor@@YAJPAXPAPAXPAK@Z 10014f20 f   IHVCngLib:bwcgkspstorage.obj
 0001:00014000       ?CheckAndChangeAccessMasks@@YAJPAU_ACL@@@Z 10015000 f   IHVCngLib:bwcgkspstorage.obj
 0001:000140e0       ?GetSecurityOnKeyFile@@YAJPAU_BWCGKSP_KEY@@KPAPAXPAK@Z 100150e0 f   IHVCngLib:bwcgkspstorage.obj
 0001:00014220       ?SetSecurityOnKeyFile@@YAJPAU_BWCGKSP_KEY@@KPAX@Z 10015220 f   IHVCngLib:bwcgkspstorage.obj
 0001:00014400       ?ComputeSerializedPropertyListLength@@YAXPAU_BWCGKSP_KEY@@PAK@Z 10015400 f   IHVCngLib:bwcgkspstorage.obj
 0001:00014470       ?BuildSerializedPropertyList@@YAJPAU_BWCGKSP_KEY@@PAEK@Z 10015470 f   IHVCngLib:bwcgkspstorage.obj
 0001:000145a0       ?SerializeProperties@@YAJPAU_BWCGKSP_KEY@@PAPAEPAK@Z 100155a0 f   IHVCngLib:bwcgkspstorage.obj
 0001:00014630       ?DeserializeProperties@@YAJPAU_BWCGKSP_KEY@@PAEK@Z 10015630 f   IHVCngLib:bwcgkspstorage.obj
 0001:00014770       ?SerializeKeyForStorage@@YAJPAU_BWCGKSP_KEY@@PAPAEPAK@Z 10015770 f   IHVCngLib:bwcgkspstorage.obj
 0001:000148b0       ?NewSapKeyObject@@YGPAU_EC192_KEY_OBJECT@@PAU_EC192_ALG_OBJECT@@PAPAU1@PAK@Z 100158b0 f   IHVCngLib:bwcgsaphlp.obj
 0001:00014960       ?ec192_signature_length@@YGJPAU_EC192_KEY_OBJECT@@PAK@Z 10015960 f   IHVCngLib:ecc192.obj
 0001:00014990       ?ec192_sign_hash@@YGJPAU_EC192_KEY_OBJECT@@QAEKPAEKPAK@Z 10015990 f   IHVCngLib:ecc192.obj
 0001:00014a90       ?ec192_verify_signature@@YGJPAU_EC192_KEY_OBJECT@@QAEK1K@Z 10015a90 f   IHVCngLib:ecc192.obj
 0001:00015190       _cngimpl_ecc192_genkey     10016190 f   IHVCngLib:ecc_openssl.obj
 0001:00015230       _cngimpl_ecc192_sign_hash  10016230 f   IHVCngLib:ecc_openssl.obj
 0001:00015360       _cngimpl_ecc192_verify_sig 10016360 f   IHVCngLib:ecc_openssl.obj
 0001:000154a0       _cngimpl_ecc192_ecdh       100164a0 f   IHVCngLib:ecc_openssl.obj
 0001:0001554c       @__security_check_cookie@4 1001654c f   LIBCMT:secchk.obj
 0001:0001555b       ??_M@YGXPAXIHP6EX0@Z@Z     1001655b f   LIBCMT:ehvecdtr.obj
 0001:000155ca       ?__ArrayUnwind@@YGXPAXIHP6EX0@Z@Z 100165ca f   LIBCMT:ehvecdtr.obj
 0001:00015628       ___onexitinit              10016628 f   LIBCMT:onexit.obj
 0001:00015657       __onexit                   10016657 f   LIBCMT:onexit.obj
 0001:00015751       _atexit                    10016751 f   LIBCMT:onexit.obj
 0001:00015766       ??_L@YGXPAXIHP6EX0@Z1@Z    10016766 f   LIBCMT:ehvecctr.obj
 0001:000157c8       ??3@YAXPAX@Z               100167c8 f   LIBCMT:delete.obj
 0001:000157cd       ??1type_info@@UAE@XZ       100167cd f   LIBCMT:typinfo.obj
 0001:000157db       ??8type_info@@QBE_NABV0@@Z 100167db f   LIBCMT:typinfo.obj
 0001:000157f9       ??_Etype_info@@UAEPAXI@Z   100167f9 f i LIBCMT:typinfo.obj
 0001:000157f9       ??_Gtype_info@@UAEPAXI@Z   100167f9 f i LIBCMT:typinfo.obj
 0001:00015818       ??0bad_alloc@std@@QAE@ABV01@@Z 10016818 f i LIBCMT:new.obj
 0001:00015833       ??1bad_alloc@std@@UAE@XZ   10016833 f i LIBCMT:new.obj
 0001:0001583e       ??2@YAPAXI@Z               1001683e f   LIBCMT:new.obj
 0001:0001588d       ??_Ebad_alloc@std@@UAEPAXI@Z 1001688d f i LIBCMT:new.obj
 0001:0001588d       ??_Gbad_alloc@std@@UAEPAXI@Z 1001688d f i LIBCMT:new.obj
 0001:000158c0       _strncpy                   100168c0 f   LIBCMT:strncpy.obj
 0001:000159e4       __get_printf_count_output  100169e4 f   LIBCMT:printf.obj
 0001:000159f9       _printf                    100169f9 f   LIBCMT:printf.obj
 0001:00015aa8       _wcschr                    10016aa8 f   LIBCMT:wcschr.obj
 0001:00015b56       _swprintf_s                10016b56 f   LIBCMT:swprintf.obj
 0001:00015b72       _wcsncpy_s                 10016b72 f   LIBCMT:wcsncpy_s.obj
 0001:00015e0c       _wcstol                    10016e0c f   LIBCMT:wcstol.obj
 0001:00015e24       _wcstoul                   10016e24 f   LIBCMT:wcstol.obj
 0001:00015e3c       ??0_LocaleUpdate@@QAE@PAUlocaleinfo_struct@@@Z 10016e3c f i LIBCMT:wcsnicmp.obj
 0001:00015ec4       __wcsnicmp                 10016ec4 f   LIBCMT:wcsnicmp.obj
 0001:00015f78       __wcsnicmp_l               10016f78 f   LIBCMT:wcsnicmp.obj
 0001:0001606f       _wcsstr                    1001706f f   LIBCMT:wcsstr.obj
 0001:00016302       ___raise_securityfailure   10017302 f   LIBCMT:gs_report.obj
 0001:0001633f       ___report_gsfailure        1001733f f   LIBCMT:gs_report.obj
 0001:00016438       ___report_rangecheckfailure 10017438 f   LIBCMT:gs_report.obj
 0001:00016444       ___report_securityfailure  10017444 f   LIBCMT:gs_report.obj
 0001:00016512       _wcscpy_s                  10017512 f   LIBCMT:wcscpy_s.obj
 0001:0001656e       __wcsicmp                  1001756e f   LIBCMT:wcsicmp.obj
 0001:00016601       __wcsicmp_l                10017601 f   LIBCMT:wcsicmp.obj
 0001:000166da       __wtoi                     100176da f   LIBCMT:wtox.obj
 0001:000166e3       __wtol                     100176e3 f   LIBCMT:wtox.obj
 0001:000166f7       __itow                     100176f7 f   LIBCMT:xtow.obj
 0001:00016783       __wcstombs_l_helper        10017783 f   LIBCMT:wcstombs.obj
 0001:000169e8       _wcstombs                  100179e8 f   LIBCMT:wcstombs.obj
 0001:00016a00       __CRT_INIT@12              10017a00 f   LIBCMT:dllcrt0.obj
 0001:00016b72       __DllMainCRTStartup@12     10017b72 f   LIBCMT:dllcrt0.obj
 0001:00016ca3       ___DllXcptFilter           10017ca3 f   LIBCMT:dllcrt0.obj
 0001:00016cc8       _free                      10017cc8 f   LIBCMT:free.obj
 0001:00016d00       _malloc                    10017d00 f   LIBCMT:malloc.obj
 0001:00016d92       _sprintf                   10017d92 f   LIBCMT:sprintf.obj
 0001:00016e14       _vprintf                   10017e14 f   LIBCMT:vprintf.obj
 0001:00016e2e       _vprintf_helper            10017e2e f   LIBCMT:vprintf.obj
 0001:00016ebb       _wcscat_s                  10017ebb f   LIBCMT:wcscat_s.obj
 0001:00016f27       ?_inconsistency@@YAXXZ     10017f27 f   LIBCMT:hooks.obj
 0001:00016f5f       ?terminate@@YAXXZ          10017f5f f   LIBCMT:hooks.obj
 0001:00016f93       ?unexpected@@YAXXZ         10017f93 f   LIBCMT:hooks.obj
 0001:00016fa6       __initp_eh_hooks           10017fa6 f   LIBCMT:hooks.obj
 0001:00016fc0       __SEH_prolog4              10017fc0 f   LIBCMT:sehprolg4.obj
 0001:00017005       __SEH_epilog4              10018005 f   LIBCMT:sehprolg4.obj
 0001:00017020       __except_handler4          10018020 f   LIBCMT:chandler4.obj
 0001:000171b5       ___copy_path_to_wide_string 100181b5 f   LIBCMT:crt0dat.obj
 0001:00017265       ___crtCorExitProcess       10018265 f   LIBCMT:crt0dat.obj
 0001:00017297       ___crtExitProcess          10018297 f   LIBCMT:crt0dat.obj
 0001:000172ad       ___freeCrtMemory           100182ad f   LIBCMT:crt0dat.obj
 0001:000173bd       __amsg_exit                100183bd f   LIBCMT:crt0dat.obj
 0001:000173d9       __cexit                    100183d9 f   LIBCMT:crt0dat.obj
 0001:000173e8       __cinit                    100183e8 f   LIBCMT:crt0dat.obj
 0001:00017479       __exit                     10018479 f   LIBCMT:crt0dat.obj
 0001:0001748d       __init_pointers            1001848d f   LIBCMT:crt0dat.obj
 0001:000174e1       __initterm_e               100184e1 f   LIBCMT:crt0dat.obj
 0001:00017503       __lockexit                 10018503 f   LIBCMT:crt0dat.obj
 0001:0001750c       __unlockexit               1001850c f   LIBCMT:crt0dat.obj
 0001:00017644       __msize                    10018644 f   LIBCMT:msize.obj
 0001:00017675       __calloc_crt               10018675 f   LIBCMT:crtheap.obj
 0001:000176bd       __malloc_crt               100186bd f   LIBCMT:crtheap.obj
 0001:00017704       __realloc_crt              10018704 f   LIBCMT:crtheap.obj
 0001:00017750       _strcmp                    10018750 f   LIBCMT:strcmp.obj
 0001:000177dc       ?_Type_info_dtor@type_info@@CAXPAV1@@Z 100187dc f   LIBCMT:typname.obj
 0001:0001784d       ??0exception@std@@QAE@ABQBD@Z 1001884d f   LIBCMT:stdexcpt.obj
 0001:00017872       ??0exception@std@@QAE@ABQBDH@Z 10018872 f   LIBCMT:stdexcpt.obj
 0001:0001788d       ??0exception@std@@QAE@ABV01@@Z 1001888d f   LIBCMT:stdexcpt.obj
 0001:000178b0       ??1exception@std@@UAE@XZ   100188b0 f   LIBCMT:stdexcpt.obj
 0001:000178bb       ??4exception@std@@QAEAAV01@ABV01@@Z 100188bb f   LIBCMT:stdexcpt.obj
 0001:000178ee       ??_Eexception@std@@UAEPAXI@Z 100188ee f i LIBCMT:stdexcpt.obj
 0001:000178ee       ??_Gexception@std@@UAEPAXI@Z 100188ee f i LIBCMT:stdexcpt.obj
 0001:00017913       ?_Copy_str@exception@std@@AAEXPBD@Z 10018913 f   LIBCMT:stdexcpt.obj
 0001:00017951       ?_Tidy@exception@std@@AAEXXZ 10018951 f   LIBCMT:stdexcpt.obj
 0001:0001796d       ?what@exception@std@@UBEPBDXZ 1001896d f   LIBCMT:stdexcpt.obj
 0001:0001797a       __callnewh                 1001897a f   LIBCMT:handler.obj
 0001:000179a0       __initp_heap_handler       100189a0 f   LIBCMT:handler.obj
 0001:000179ad       __CxxThrowException@8      100189ad f   LIBCMT:throw.obj
 0001:00017a0e       __call_reportfault         10018a0e f   LIBCMT:invarg.obj
 0001:00017b31       __initp_misc_invarg        10018b31 f   LIBCMT:invarg.obj
 0001:00017b3e       __invalid_parameter        10018b3e f   LIBCMT:invarg.obj
 0001:00017b69       __invalid_parameter_noinfo 10018b69 f   LIBCMT:invarg.obj
 0001:00017b79       __invoke_watson            10018b79 f   LIBCMT:invarg.obj
 0001:00017ba4       __flsbuf                   10018ba4 f   LIBCMT:_flsbuf.obj
 0001:00017cf1       __output_l                 10018cf1 f   LIBCMT:output.obj
 0001:0001895b       ___doserrno                1001995b f   LIBCMT:dosmap.obj
 0001:0001896e       __dosmaperr                1001996e f   LIBCMT:dosmap.obj
 0001:0001898f       __errno                    1001998f f   LIBCMT:dosmap.obj
 0001:000189a2       __get_errno_from_oserr     100199a2 f   LIBCMT:dosmap.obj
 0001:000189e3       ___initstdio               100199e3 f   LIBCMT:_file.obj
 0001:00018a56       ___endstdio                10019a56 f   LIBCMT:_file.obj
 0001:00018a7d       ___iob_func                10019a7d f   LIBCMT:_file.obj
 0001:00018a83       __lock_file                10019a83 f   LIBCMT:_file.obj
 0001:00018ac2       __lock_file2               10019ac2 f   LIBCMT:_file.obj
 0001:00018af2       __unlock_file              10019af2 f   LIBCMT:_file.obj
 0001:00018b2c       __unlock_file2             10019b2c f   LIBCMT:_file.obj
 0001:00018b59       __ftbuf                    10019b59 f   LIBCMT:_sftbuf.obj
 0001:00018b8a       __stbuf                    10019b8a f   LIBCMT:_sftbuf.obj
 0001:00018c30       ___isa_available_init      10019c30 f   LIBCMT:cpu_disp.obj
 0001:00018d82       __vswprintf_helper         10019d82 f   LIBCMT:vswprnc.obj
 0001:00018e7b       __vswprintf_s_l            10019e7b f   LIBCMT:vswprnc.obj
 0001:00018ef2       _iswctype                  10019ef2 f   LIBCMT:iswctype.obj
 0001:00018f44       __wchartodigit             10019f44 f   LIBCMT:wchtodig.obj
 0001:000190e3       ___addlocaleref            1001a0e3 f   LIBCMT:localref.obj
 0001:00019173       ___freetlocinfo            1001a173 f   LIBCMT:localref.obj
 0001:000192cd       ___removelocaleref         1001a2cd f   LIBCMT:localref.obj
 0001:00019368       ___updatetlocinfo          1001a368 f   LIBCMT:localref.obj
 0001:000193e8       __updatetlocinfoEx_nolock  1001a3e8 f   LIBCMT:localref.obj
 0001:00019433       ___initmbctable            1001a433 f   LIBCMT:mbctype.obj
 0001:000196ee       ___updatetmbcinfo          1001a6ee f   LIBCMT:mbctype.obj
 0001:00019796       __setmbcp                  1001a796 f   LIBCMT:mbctype.obj
 0001:00019944       __setmbcp_nolock           1001a944 f   LIBCMT:mbctype.obj
 0001:00019b37       __towlower_l               1001ab37 f   LIBCMT:towlower.obj
 0001:00019be9       __freefls@4                1001abe9 f   LIBCMT:tidtable.obj
 0001:00019d20       __freeptd                  1001ad20 f   LIBCMT:tidtable.obj
 0001:00019d56       __getptd                   1001ad56 f   LIBCMT:tidtable.obj
 0001:00019d6e       __getptd_noexit            1001ad6e f   LIBCMT:tidtable.obj
 0001:00019ddd       __initptd                  1001addd f   LIBCMT:tidtable.obj
 0001:00019e90       __mtinit                   1001ae90 f   LIBCMT:tidtable.obj
 0001:00019f06       __mtterm                   1001af06 f   LIBCMT:tidtable.obj
 0001:00019f23       __locterm                  1001af23 f   LIBCMT:wsetloca.obj
 0001:00019f75       __crt_debugger_hook        1001af75 f   LIBCMT:dbghook.obj
 0001:00019f7d       ___crtFlsAlloc             1001af7d f   LIBCMT:winapisupp.obj
 0001:00019f9b       ___crtFlsFree              1001af9b f   LIBCMT:winapisupp.obj
 0001:00019fba       ___crtFlsGetValue          1001afba f   LIBCMT:winapisupp.obj
 0001:00019fd9       ___crtFlsSetValue          1001afd9 f   LIBCMT:winapisupp.obj
 0001:00019ffc       ___crtInitializeCriticalSectionEx 1001affc f   LIBCMT:winapisupp.obj
 0001:0001a02a       ___crtIsPackagedApp        1001b02a f   LIBCMT:winapisupp.obj
 0001:0001a068       ___crtLoadWinApiPointers   1001b068 f   LIBCMT:winapisupp.obj
 0001:0001a2f3       ___crtSleep                1001b2f3 f   LIBCMT:winapisupp.obj
 0001:0001a301       ___crtTerminateProcess     1001b301 f   LIBCMT:winapisupp.obj
 0001:0001a316       ___crtUnhandledException   1001b316 f   LIBCMT:winapisupp.obj
 0001:0001a330       __aulldvrm                 1001b330 f   LIBCMT:ulldvrm.obj
 0001:0001a3c5       _abort                     1001b3c5 f   LIBCMT:abort.obj
 0001:0001a408       __initp_misc_purevirt      1001b408 f   LIBCMT:inithelp.obj
 0001:0001a415       __XcptFilter               1001b415 f   LIBCMT:winxfltr.obj
 0001:0001a570       ___CppXcptFilter           1001b570 f   LIBCMT:winxfltr.obj
 0001:0001a58e       __heap_init                1001b58e f   LIBCMT:heapinit.obj
 0001:0001a5a3       __heap_term                1001b5a3 f   LIBCMT:heapinit.obj
 0001:0001a5ab       __ioinit                   1001b5ab f   LIBCMT:ioinit.obj
 0001:0001a85f       __ioterm                   1001b85f f   LIBCMT:ioinit.obj
 0001:0001a8b1       __setargv                  1001b8b1 f   LIBCMT:stdargv.obj
 0001:0001aade       __setenvp                  1001bade f   LIBCMT:stdenvp.obj
 0001:0001abbf       ___security_init_cookie    1001bbbf f   LIBCMT:gs_support.obj
 0001:0001ac59       ___crtGetEnvironmentStringsA 1001bc59 f   LIBCMT:a_env.obj
 0001:0001ace4       __RTC_Initialize           1001bce4 f   LIBCMT:initsect.obj
 0001:0001ad04       __RTC_Terminate            1001bd04 f   LIBCMT:initsect.obj
 0001:0001ad24       __FF_MSGBANNER             1001bd24 f   LIBCMT:crt0msg.obj
 0001:0001ad5d       __GET_RTERRMSG             1001bd5d f   LIBCMT:crt0msg.obj
 0001:0001ad81       __NMSG_WRITE               1001bd81 f   LIBCMT:crt0msg.obj
 0001:0001af40       __FindPESection            1001bf40 f   LIBCMT:pesect.obj
 0001:0001af90       __IsNonwritableInCurrentImage 1001bf90 f   LIBCMT:pesect.obj
 0001:0001b050       __ValidateImageBase        1001c050 f   LIBCMT:pesect.obj
 0001:0001b090       __local_unwind4            1001c090 f   LIBCMT:exsup4.obj
 0001:0001b166       __seh_longjmp_unwind4@4    1001c166 f   LIBCMT:exsup4.obj
 0001:0001b182       @_EH4_CallFilterFunc@8     1001c182 f   LIBCMT:exsup4.obj
 0001:0001b199       @_EH4_TransferToHandler@8  1001c199 f   LIBCMT:exsup4.obj
 0001:0001b1b2       @_EH4_GlobalUnwind2@8      1001c1b2 f   LIBCMT:exsup4.obj
 0001:0001b1cb       @_EH4_LocalUnwind@16       1001c1cb f   LIBCMT:exsup4.obj
 0001:0001b1e2       __lock                     1001c1e2 f   LIBCMT:mlock.obj
 0001:0001b216       __mtdeletelocks            1001c216 f   LIBCMT:mlock.obj
 0001:0001b26a       __mtinitlocknum            1001c26a f   LIBCMT:mlock.obj
 0001:0001b313       __mtinitlocks              1001c313 f   LIBCMT:mlock.obj
 0001:0001b34c       __unlock                   1001c34c f   LIBCMT:mlock.obj
 0001:0001b361       __initp_misc_cfltcvt_tab   1001c361 f   LIBCMT:cmiscdat.obj
 0001:0001b380       ___get_sigabrt             1001c380 f   LIBCMT:winsig.obj
 0001:0001b38d       __initp_misc_winsig        1001c38d f   LIBCMT:winsig.obj
 0001:0001b3a9       _raise                     1001c3a9 f   LIBCMT:winsig.obj
 0001:0001b59e       __initp_misc_rand_s        1001c59e f   LIBCMT:rand_s.obj
 0001:0001b5ab       _realloc                   1001c5ab f   LIBCMT:realloc.obj
 0001:0001b656       __calloc_impl              1001c656 f   LIBCMT:calloc_impl.obj
 0001:0001b6d0       _strcpy_s                  1001c6d0 f   LIBCMT:strcpy_s.obj
 0001:0001b730       _strlen                    1001c730 f   LIBCMT:strlen.obj
 0001:0001b7c0       _memset                    1001c7c0 f   LIBCMT:memset.obj
 0001:0001b850       __fileno                   1001c850 f   LIBCMT:fileno.obj
 0001:0001b850       _fileno                    1001c850 f   LIBCMT:fileno.obj
 0001:0001b874       __isatty                   1001c874 f   LIBCMT:isatty.obj
 0001:0001b8c8       __write                    1001c8c8 f   LIBCMT:write.obj
 0001:0001b9b7       __write_nolock             1001c9b7 f   LIBCMT:write.obj
 0001:0001c21a       __lseeki64                 1001d21a f   LIBCMT:lseeki64.obj
 0001:0001c316       __lseeki64_nolock          1001d316 f   LIBCMT:lseeki64.obj
 0001:0001c387       __getbuf                   1001d387 f   LIBCMT:_getbuf.obj
 0001:0001c3cd       __isleadbyte_l             1001d3cd f i LIBCMT:_wctype.obj
 0001:0001c403       _isleadbyte                1001d403 f i LIBCMT:_wctype.obj
 0001:0001c414       __wctomb_s_l               1001d414 f   LIBCMT:wctomb.obj
 0001:0001c536       _wctomb_s                  1001d536 f   LIBCMT:wctomb.obj
 0001:0001c551       __fcloseall                1001d551 f   LIBCMT:closeall.obj
 0001:0001c5ee       __fflush_nolock            1001d5ee f   LIBCMT:fflush.obj
 0001:0001c634       __flush                    1001d634 f   LIBCMT:fflush.obj
 0001:0001c698       __flushall                 1001d698 f   LIBCMT:fflush.obj
 0001:0001c6a1       _fflush                    1001d6a1 f   LIBCMT:fflush.obj
 0001:0001c7de       __woutput_s_l              1001d7de f   LIBCMT:woutputs.obj
 0001:0001d4f5       __fputwc_nolock            1001e4f5 f   LIBCMT:fputwc.obj
 0001:0001d67a       __mbtowc_l                 1001e67a f   LIBCMT:mbtowc.obj
 0001:0001d76d       _mbtowc                    1001e76d f   LIBCMT:mbtowc.obj
 0001:0001d785       ___free_lconv_mon          1001e785 f   LIBCMT:initmon.obj
 0001:0001d881       ___free_lconv_num          1001e881 f   LIBCMT:initnum.obj
 0001:0001d8e8       ___free_lc_time            1001e8e8 f   LIBCMT:inittime.obj
 0001:0001de6a       ___crtLCMapStringA         1001ee6a f   LIBCMT:a_map.obj
 0001:0001deae       __freea                    1001eeae f i LIBCMT:a_map.obj
 0001:0001dfc2       ___crtGetStringTypeA       1001efc2 f   LIBCMT:a_str.obj
 0001:0001e000       ___crtLCMapStringW         1001f000 f   LIBCMT:w_map.obj
 0001:0001e030       _memcpy                    1001f030 f   LIBCMT:memcpy.obj
 0001:0001e674       _wcslen                    1001f674 f   LIBCMT:wcslen.obj
 0001:0001e68d       _wcsnlen                   1001f68d f   LIBCMT:wcslen_s.obj
 0001:0001e6ac       _GetTableIndexFromLocaleName 1001f6ac f   LIBCMT:winapinls.obj
 0001:0001e6fa       ___crtDownlevelLocaleNameToLCID 1001f6fa f   LIBCMT:winapinls.obj
 0001:0001e724       ___crtLCMapStringEx        1001f724 f   LIBCMT:winapinls.obj
 0001:0001e770       ___wcsnicmp_ascii          1001f770 f   LIBCMT:winapinls.obj
 0001:0001e7de       __atodbl_l                 1001f7de f   LIBCMT:atodbl.obj
 0001:0001e86a       __atoflt_l                 1001f86a f   LIBCMT:atodbl.obj
 0001:0001e900       __allmul                   1001f900 f   LIBCMT:llmul.obj
 0001:0001e934       __fpmath                   1001f934 f   LIBCMT:fpinit.obj
 0001:0001e94b       __cfltcvt_init             1001f94b f   LIBCMT:fpinit.obj
 0001:0001ea01       __ismbblead                1001fa01 f   LIBCMT:ismbbyte.obj
 0001:0001ea17       __set_error_mode           1001fa17 f   LIBCMT:errmode.obj
 0001:0001ea57       ___crtMessageBoxW          1001fa57 f   LIBCMT:crtmboxw.obj
 0001:0001ec40       __global_unwind2           1001fc40 f   LIBCMT:exsup.obj
 0001:0001eca5       __local_unwind2            1001fca5 f   LIBCMT:exsup.obj
 0001:0001ed29       __abnormal_termination     1001fd29 f   LIBCMT:exsup.obj
 0001:0001ed4c       __NLG_Notify1              1001fd4c f   LIBCMT:exsup.obj
 0001:0001ed55       __NLG_Notify               1001fd55 f   LIBCMT:exsup.obj
 0001:0001ed6c       __NLG_Dispatch             1001fd6c     LIBCMT:exsup.obj
 0001:0001ed6c       __NLG_Dispatch2            1001fd6c     LIBCMT:exsup.obj
 0001:0001ed74       __NLG_Call                 1001fd74 f   LIBCMT:exsup.obj
 0001:0001ed76       __NLG_Return2              1001fd76     LIBCMT:exsup.obj
 0001:0001ed77       __fptrap                   1001fd77 f   LIBCMT:crt0fp.obj
 0001:0001ed80       __VEC_memset               1001fd80 f   LIBCMT:p4_memset.obj
 0001:0001ee48       ___lock_fhandle            1001fe48 f   LIBCMT:osfinfo.obj
 0001:0001eed9       __alloc_osfhnd             1001fed9 f   LIBCMT:osfinfo.obj
 0001:0001f082       __free_osfhnd              10020082 f   LIBCMT:osfinfo.obj
 0001:0001f108       __get_osfhandle            10020108 f   LIBCMT:osfinfo.obj
 0001:0001f16f       __set_osfhnd               1002016f f   LIBCMT:osfinfo.obj
 0001:0001f1f1       __unlock_fhandle           100201f1 f   LIBCMT:osfinfo.obj
 0001:0001f217       __putwch_nolock            10020217 f   LIBCMT:putwch.obj
 0001:0001f260       __chkstk                   10020260 f   LIBCMT:chkstk.obj
 0001:0001f260       __alloca_probe             10020260 f   LIBCMT:chkstk.obj
 0001:0001f28b       __fclose_nolock            1002028b f   LIBCMT:fclose.obj
 0001:0001f2f7       _fclose                    100202f7 f   LIBCMT:fclose.obj
 0001:0001f36e       __commit                   1002036e f   LIBCMT:commit.obj
 0001:0001f457       __flswbuf                  10020457 f   LIBCMT:_flswbuf.obj
 0001:0001f5c0       __alloca_probe_16          100205c0 f   LIBCMT:alloca16.obj
 0001:0001f5d6       __alloca_probe_8           100205d6     LIBCMT:alloca16.obj
 0001:0001f5f0       __ld12tod                  100205f0 f   LIBCMT:intrncvt.obj
 0001:0001fb61       __ld12tof                  10020b61 f   LIBCMT:intrncvt.obj
 0001:000200d1       ___strgtold12_l            100210d1 f   LIBCMT:strgtold.obj
 0001:00020879       __cfltcvt                  10021879 f   LIBCMT:cvt.obj
 0001:0002089a       __cfltcvt_l                1002189a f   LIBCMT:cvt.obj
 0001:00020920       __cftoa_l                  10021920 f   LIBCMT:cvt.obj
 0001:00020c7a       __cftoe                    10021c7a f   LIBCMT:cvt.obj
 0001:00020de7       __cftoe_l                  10021de7 f   LIBCMT:cvt.obj
 0001:00020f9d       __cftof_l                  10021f9d f   LIBCMT:cvt.obj
 0001:0002105c       __cftog_l                  1002205c f   LIBCMT:cvt.obj
 0001:00021159       __cropzeros                10022159 f   LIBCMT:cvt.obj
 0001:0002116a       __cropzeros_l              1002216a f   LIBCMT:cvt.obj
 0001:000211e8       __fassign                  100221e8 f   LIBCMT:cvt.obj
 0001:00021200       __fassign_l                10022200 f   LIBCMT:cvt.obj
 0001:00021240       __forcdecpt                10022240 f   LIBCMT:cvt.obj
 0001:00021251       __forcdecpt_l              10022251 f   LIBCMT:cvt.obj
 0001:000212c3       __positive                 100222c3 f   LIBCMT:cvt.obj
 0001:00021305       __setdefaultprecision      10022305 f   LIBCMT:fp8.obj
 0001:0002132c       __isctype_l                1002232c f   LIBCMT:isctype.obj
 0001:000213db       ___termconout              100223db f   LIBCMT:initcon.obj
 0001:000213f2       ___initconout              100223f2 f   LIBCMT:initcon.obj
 0001:00021411       __close                    10022411 f   LIBCMT:close.obj
 0001:000214ec       __close_nolock             100224ec f   LIBCMT:close.obj
 0001:00021586       __freebuf                  10022586 f   LIBCMT:_freebuf.obj
 0001:000215b6       ___mtold12                 100225b6 f   LIBCMT:mantold.obj
 0001:00021794       __isdigit_l                10022794 f i LIBCMT:_ctype.obj
 0001:000217e4       __isxdigit_l               100227e4 f i LIBCMT:_ctype.obj
 0001:0002183a       _isdigit                   1002283a f i LIBCMT:_ctype.obj
 0001:00021865       _isxdigit                  10022865 f i LIBCMT:_ctype.obj
 0001:00021892       __tolower_l                10022892 f   LIBCMT:tolower.obj
 0001:000219d3       _tolower                   100229d3 f   LIBCMT:tolower.obj
 0001:00021a00       _memmove                   10022a00 f   LIBCMT:memmove.obj
 0001:00022050       _strrchr                   10023050 f   LIBCMT:strrchr.obj
 0001:00022187       __fptostr                  10023187 f   LIBCMT:_fptostr.obj
 0001:00022237       ___dtold                   10023237 f   LIBCMT:cfout.obj
 0001:000222fd       __fltout2                  100232fd f   LIBCMT:cfout.obj
 0001:00022390       __alldvrm                  10023390 f   LIBCMT:lldvrm.obj
 0001:00022470       __aullshr                  10023470 f   LIBCMT:ullshr.obj
 0001:0002248f       __controlfp_s              1002348f f   LIBCMT:contrlfp.obj
 0001:000224ec       _$I10_OUTPUT               100234ec f   LIBCMT:x10fout.obj
 0001:00022f67       __control87                10023f67 f i LIBCMT:ieee87.obj
 0001:000232fe       ___set_fpsr_sse2           100242fe f   LIBCMT:fpctrl.obj
 0001:00023380       _EC_KEY_free               10024380 f   libeay32120:ec_key.obj
 0001:000233f0       _EC_KEY_generate_key       100243f0 f   libeay32120:ec_key.obj
 0001:00023520       _EC_KEY_get0_group         10024520 f   libeay32120:ec_key.obj
 0001:00023520       _EC_GROUP_get0_generator   10024520 f   libeay32120:ec_lib.obj
 0001:00023530       _EC_KEY_get0_private_key   10024530 f   libeay32120:ec_key.obj
 0001:00023540       _EC_KEY_get0_public_key    10024540 f   libeay32120:ec_key.obj
 0001:00023550       _EC_KEY_get_key_method_data 10024550 f   libeay32120:ec_key.obj
 0001:00023570       _EC_KEY_insert_key_method_data 10024570 f   libeay32120:ec_key.obj
 0001:000235e0       _EC_KEY_new                100245e0 f   libeay32120:ec_key.obj
 0001:00023650       _EC_KEY_set_group          10024650 f   libeay32120:ec_key.obj
 0001:00023680       _EC_KEY_set_private_key    10024680 f   libeay32120:ec_key.obj
 0001:000236b0       _EC_KEY_set_public_key     100246b0 f   libeay32120:ec_key.obj
 0001:000236f0       _BN_bin2bn                 100246f0 f   libeay32120:bn_lib.obj
 0001:000237e0       _BN_bn2bin                 100247e0 f   libeay32120:bn_lib.obj
 0001:00023840       _BN_clear                  10024840 f   libeay32120:bn_lib.obj
 0001:00023870       _BN_clear_free             10024870 f   libeay32120:bn_lib.obj
 0001:000238c0       _BN_cmp                    100248c0 f   libeay32120:bn_lib.obj
 0001:00023960       _BN_copy                   10024960 f   libeay32120:bn_lib.obj
 0001:00023a30       _BN_dup                    10024a30 f   libeay32120:bn_lib.obj
 0001:00023a70       _BN_free                   10024a70 f   libeay32120:bn_lib.obj
 0001:00023ab0       _BN_init                   10024ab0 f   libeay32120:bn_lib.obj
 0001:00023ad0       _BN_is_bit_set             10024ad0 f   libeay32120:bn_lib.obj
 0001:00023b10       _BN_new                    10024b10 f   libeay32120:bn_lib.obj
 0001:00023b70       _BN_num_bits               10024b70 f   libeay32120:bn_lib.obj
 0001:00023be0       _BN_num_bits_word          10024be0 f   libeay32120:bn_lib.obj
 0001:00023c30       _BN_set_bit                10024c30 f   libeay32120:bn_lib.obj
 0001:00023cc0       _BN_set_negative           10024cc0 f   libeay32120:bn_lib.obj
 0001:00023cf0       _BN_set_word               10024cf0 f   libeay32120:bn_lib.obj
 0001:00023d50       _BN_ucmp                   10024d50 f   libeay32120:bn_lib.obj
 0001:00023d90       _BN_value_one              10024d90 f   libeay32120:bn_lib.obj
 0001:00023da0       _bn_cmp_part_words         10024da0 f   libeay32120:bn_lib.obj
 0001:00023e40       _bn_cmp_words              10024e40 f   libeay32120:bn_lib.obj
 0001:00023e90       _bn_expand2                10024e90 f   libeay32120:bn_lib.obj
 0001:00023fc0       _ECDSA_do_verify           10024fc0 f   libeay32120:ecs_vrf.obj
 0001:00023fe0       _BN_hex2bn                 10024fe0 f   libeay32120:bn_print.obj
 0001:00024170       _EC_EX_DATA_clear_free_all_data 10025170 f   libeay32120:ec_lib.obj
 0001:000241b0       _EC_EX_DATA_free_all_data  100251b0 f   libeay32120:ec_lib.obj
 0001:000241f0       _EC_EX_DATA_free_data      100251f0 f   libeay32120:ec_lib.obj
 0001:00024250       _EC_EX_DATA_get_data       10025250 f   libeay32120:ec_lib.obj
 0001:00024290       _EC_EX_DATA_set_data       10025290 f   libeay32120:ec_lib.obj
 0001:00024330       _EC_GROUP_clear_free       10025330 f   libeay32120:ec_lib.obj
 0001:000243e0       _EC_GROUP_copy             100253e0 f   libeay32120:ec_lib.obj
 0001:000245a0       _EC_GROUP_dup              100255a0 f   libeay32120:ec_lib.obj
 0001:000245e0       _EC_GROUP_free             100255e0 f   libeay32120:ec_lib.obj
 0001:00024660       _EC_GROUP_get_degree       10025660 f   libeay32120:ec_lib.obj
 0001:000246a0       _EC_GROUP_get_order        100256a0 f   libeay32120:ec_lib.obj
 0001:000246d0       _EC_GROUP_get_point_conversion_form 100256d0 f   libeay32120:ec_lib.obj
 0001:000246e0       _EC_GROUP_have_precompute_mult 100256e0 f   libeay32120:ec_lib.obj
 0001:00024710       _EC_GROUP_new              10025710 f   libeay32120:ec_lib.obj
 0001:000247f0       _EC_GROUP_set_curve_GFp    100257f0 f   libeay32120:ec_lib.obj
 0001:00024820       _EC_GROUP_set_generator    10025820 f   libeay32120:ec_lib.obj
 0001:000248d0       _EC_POINT_add              100258d0 f   libeay32120:ec_lib.obj
 0001:00024950       _EC_POINT_clear_free       10025950 f   libeay32120:ec_lib.obj
 0001:00024990       _EC_POINT_cmp              10025990 f   libeay32120:ec_lib.obj
 0001:00024a00       _EC_POINT_copy             10025a00 f   libeay32120:ec_lib.obj
 0001:00024a70       _EC_POINT_dbl              10025a70 f   libeay32120:ec_lib.obj
 0001:00024ae0       _EC_POINT_dup              10025ae0 f   libeay32120:ec_lib.obj
 0001:00024b30       _EC_POINT_free             10025b30 f   libeay32120:ec_lib.obj
 0001:00024b60       _EC_POINT_get_affine_coordinates_GF2m 10025b60 f   libeay32120:ec_lib.obj
 0001:00024bd0       _EC_POINT_get_affine_coordinates_GFp 10025bd0 f   libeay32120:ec_lib.obj
 0001:00024c40       _EC_POINT_invert           10025c40 f   libeay32120:ec_lib.obj
 0001:00024ca0       _EC_POINT_is_at_infinity   10025ca0 f   libeay32120:ec_lib.obj
 0001:00024d00       _EC_POINT_is_on_curve      10025d00 f   libeay32120:ec_lib.obj
 0001:00024d60       _EC_POINT_make_affine      10025d60 f   libeay32120:ec_lib.obj
 0001:00024dc0       _EC_POINT_mul              10025dc0 f   libeay32120:ec_lib.obj
 0001:00024e40       _EC_POINT_new              10025e40 f   libeay32120:ec_lib.obj
 0001:00024ef0       _EC_POINT_oct2point        10025ef0 f   libeay32120:ec_lib.obj
 0001:00024f60       _EC_POINT_point2oct        10025f60 f   libeay32120:ec_lib.obj
 0001:00024fd0       _EC_POINT_set_Jprojective_coordinates_GFp 10025fd0 f   libeay32120:ec_lib.obj
 0001:00025040       _EC_POINT_set_affine_coordinates_GF2m 10026040 f   libeay32120:ec_lib.obj
 0001:000250b0       _EC_POINT_set_affine_coordinates_GFp 100260b0 f   libeay32120:ec_lib.obj
 0001:00025120       _EC_POINT_set_compressed_coordinates_GF2m 10026120 f   libeay32120:ec_lib.obj
 0001:00025190       _EC_POINT_set_compressed_coordinates_GFp 10026190 f   libeay32120:ec_lib.obj
 0001:00025200       _EC_POINT_set_to_infinity  10026200 f   libeay32120:ec_lib.obj
 0001:00025260       _EC_POINTs_make_affine     10026260 f   libeay32120:ec_lib.obj
 0001:000252e0       _ECDSA_SIG_free            100262e0 f   libeay32120:ecs_asn1.obj
 0001:00025300       _ECDSA_SIG_new             10026300 f   libeay32120:ecs_asn1.obj
 0001:00025310       _ECDH_compute_key          10026310 f   libeay32120:ech_key.obj
 0001:00025330       _EC_GROUP_new_curve_GFp    10026330 f   libeay32120:ec_cvt.obj
 0001:000253e0       _BN_div                    100263e0 f   libeay32120:bn_div.obj
 0001:00025c30       _SHA224_Init               10026c30 f   libeay32120:sha256.obj
 0001:00025c90       _SHA256_Final              10026c90 f   libeay32120:sha256.obj
 0001:00025f70       _SHA256_Init               10026f70 f   libeay32120:sha256.obj
 0001:00025fd0       _SHA256_Update             10026fd0 f   libeay32120:sha256.obj
 0001:000271a0       _ECDSA_do_sign             100281a0 f   libeay32120:ecs_sign.obj
 0001:000271d0       _ECDSA_sign_setup          100281d0 f   libeay32120:ecs_sign.obj
 0001:000271f0       _BN_CTX_end                100281f0 f   libeay32120:bn_ctx.obj
 0001:00027230       _BN_CTX_free               10028230 f   libeay32120:bn_ctx.obj
 0001:00027260       _BN_CTX_get                10028260 f   libeay32120:bn_ctx.obj
 0001:000272c0       _BN_CTX_new                100282c0 f   libeay32120:bn_ctx.obj
 0001:00027340       _BN_CTX_start              10028340 f   libeay32120:bn_ctx.obj
 0001:00027570       _CRYPTO_add_lock           10028570 f   libeay32120:cryptlib.obj
 0001:000275c0       _CRYPTO_destroy_dynlockid  100285c0 f   libeay32120:cryptlib.obj
 0001:00027690       _CRYPTO_get_dynlock_value  10028690 f   libeay32120:cryptlib.obj
 0001:00027710       _CRYPTO_lock               10028710 f   libeay32120:cryptlib.obj
 0001:00027780       _CRYPTO_thread_id          10028780 f   libeay32120:cryptlib.obj
 0001:000277a0       _OpenSSLDie                100287a0 f   libeay32120:cryptlib.obj
 0001:00027810       _CRYPTO_free               10028810 f   libeay32120:mem.obj
 0001:00027850       _CRYPTO_malloc             10028850 f   libeay32120:mem.obj
 0001:000278d0       _CRYPTO_realloc            100288d0 f   libeay32120:mem.obj
 0001:00027950       _CRYPTO_realloc_clean      10028950 f   libeay32120:mem.obj
 0001:00027a00       _OPENSSL_cleanse           10028a00 f   libeay32120:mem_clr.obj
 0001:00027a50       _BN_pseudo_rand            10028a50 f   libeay32120:bn_rand.obj
 0001:00027a70       _BN_rand                   10028a70 f   libeay32120:bn_rand.obj
 0001:00027a90       _BN_rand_range             10028a90 f   libeay32120:bn_rand.obj
 0001:00028480       _ERR_add_error_data        10029480 f   libeay32120:err.obj
 0001:000285c0       _ERR_clear_error           100295c0 f   libeay32120:err.obj
 0001:00028630       _ERR_get_error             10029630 f   libeay32120:err.obj
 0001:000286b0       _ERR_get_state             100296b0 f   libeay32120:err.obj
 0001:00028800       _ERR_peek_error            10029800 f   libeay32120:err.obj
 0001:00028830       _ERR_peek_last_error       10029830 f   libeay32120:err.obj
 0001:00028850       _ERR_put_error             10029850 f   libeay32120:err.obj
 0001:00028a40       _ecdsa_check               10029a40 f   libeay32120:ecs_lib.obj
 0001:00028f90       _BN_add_word               10029f90 f   libeay32120:bn_word.obj
 0001:00029040       _BN_mul_word               1002a040 f   libeay32120:bn_word.obj
 0001:000290b0       _BN_sub_word               1002a0b0 f   libeay32120:bn_word.obj
 0001:000294d0       _ec_wNAF_have_precompute_mult 1002a4d0 f   libeay32120:ec_mult.obj
 0001:00029500       _ec_wNAF_mul               1002a500 f   libeay32120:ec_mult.obj
 0001:00029f10       _ec_wNAF_precompute_mult   1002af10 f   libeay32120:ec_mult.obj
 0001:0002a4a0       _CBIGNUM_it                1002b4a0 f   libeay32120:x_bignum.obj
 0001:0002a4b0       _ASN1_item_ex_new          1002b4b0 f   libeay32120:tasn_new.obj
 0001:0002a4d0       _ASN1_item_new             1002b4d0 f   libeay32120:tasn_new.obj
 0001:0002a510       _ASN1_primitive_new        1002b510 f   libeay32120:tasn_new.obj
 0001:0002a610       _ASN1_template_new         1002b610 f   libeay32120:tasn_new.obj
 0001:0002a960       _asn1_primitive_clear      1002b960 f   libeay32120:tasn_new.obj
 0001:0002a9a0       _ASN1_item_ex_free         1002b9a0 f   libeay32120:tasn_fre.obj
 0001:0002a9c0       _ASN1_item_free            1002b9c0 f   libeay32120:tasn_fre.obj
 0001:0002a9e0       _ASN1_primitive_free       1002b9e0 f   libeay32120:tasn_fre.obj
 0001:0002aac0       _ASN1_template_free        1002bac0 f   libeay32120:tasn_fre.obj
 0001:0002ad20       _ASN1_item_d2i             1002bd20 f   libeay32120:tasn_dec.obj
 0001:0002ada0       _ASN1_item_ex_d2i          1002bda0 f   libeay32120:tasn_dec.obj
 0001:0002b4a0       _ASN1_tag2bit              1002c4a0 f   libeay32120:tasn_dec.obj
 0001:0002bc40       _asn1_ex_c2i               1002cc40 f   libeay32120:tasn_dec.obj
 0001:0002c420       _ASN1_item_ex_i2d          1002d420 f   libeay32120:tasn_enc.obj
 0001:0002c760       _ASN1_item_i2d             1002d760 f   libeay32120:tasn_enc.obj
 0001:0002c780       _asn1_ex_i2c               1002d780 f   libeay32120:tasn_enc.obj
 0001:0002d0a0       _ecdh_check                1002e0a0 f   libeay32120:ech_lib.obj
 0001:0002d160       _ec_GFp_mont_group_init    1002e160 f   libeay32120:ecp_mont.obj
 0001:0002d190       _ec_GFp_mont_group_set_curve 1002e190 f   libeay32120:ecp_mont.obj
 0001:0002d2d0       _ec_GFp_mont_group_finish  1002e2d0 f   libeay32120:ecp_mont.obj
 0001:0002d320       _ec_GFp_mont_group_clear_finish 1002e320 f   libeay32120:ecp_mont.obj
 0001:0002d370       _ec_GFp_mont_group_copy    1002e370 f   libeay32120:ecp_mont.obj
 0001:0002d440       _ec_GFp_mont_field_mul     1002e440 f   libeay32120:ecp_mont.obj
 0001:0002d490       _ec_GFp_mont_field_sqr     1002e490 f   libeay32120:ecp_mont.obj
 0001:0002d4e0       _ec_GFp_mont_field_encode  1002e4e0 f   libeay32120:ecp_mont.obj
 0001:0002d530       _ec_GFp_mont_field_decode  1002e530 f   libeay32120:ecp_mont.obj
 0001:0002d580       _ec_GFp_mont_field_set_to_one 1002e580 f   libeay32120:ecp_mont.obj
 0001:0002d5c0       _EC_GFp_mont_method        1002e5c0 f   libeay32120:ecp_mont.obj
 0001:0002d5d0       _ec_GFp_nist_group_copy    1002e5d0 f   libeay32120:ecp_nist.obj
 0001:0002d600       _ec_GFp_nist_group_set_curve 1002e600 f   libeay32120:ecp_nist.obj
 0001:0002d740       _ec_GFp_nist_field_mul     1002e740 f   libeay32120:ecp_nist.obj
 0001:0002d7f0       _ec_GFp_nist_field_sqr     1002e7f0 f   libeay32120:ecp_nist.obj
 0001:0002d890       _EC_GFp_nist_method        1002e890 f   libeay32120:ecp_nist.obj
 0001:0002d8a0       _ec_GF2m_simple_group_init 1002e8a0 f   libeay32120:ec2_smpl.obj
 0001:0002d8d0       _ec_GF2m_simple_group_finish 1002e8d0 f   libeay32120:ec2_smpl.obj
 0001:0002d8d0       _ec_GFp_simple_group_finish 1002e8d0 f   libeay32120:ecp_smpl.obj
 0001:0002d900       _ec_GF2m_simple_group_clear_finish 1002e900 f   libeay32120:ec2_smpl.obj
 0001:0002d950       _ec_GF2m_simple_group_copy 1002e950 f   libeay32120:ec2_smpl.obj
 0001:0002da50       _ec_GF2m_simple_group_set_curve 1002ea50 f   libeay32120:ec2_smpl.obj
 0001:0002db60       _ec_GF2m_simple_group_get_curve 1002eb60 f   libeay32120:ec2_smpl.obj
 0001:0002dbd0       _ec_GF2m_simple_group_get_degree 1002ebd0 f   libeay32120:ec2_smpl.obj
 0001:0002dbf0       _ec_GF2m_simple_group_check_discriminant 1002ebf0 f   libeay32120:ec2_smpl.obj
 0001:0002dc90       _ec_GF2m_simple_point_init 1002ec90 f   libeay32120:ec2_smpl.obj
 0001:0002dcc0       _ec_GF2m_simple_point_finish 1002ecc0 f   libeay32120:ec2_smpl.obj
 0001:0002dcc0       _ec_GFp_simple_point_finish 1002ecc0 f   libeay32120:ecp_smpl.obj
 0001:0002dcf0       _ec_GF2m_simple_point_clear_finish 1002ecf0 f   libeay32120:ec2_smpl.obj
 0001:0002dcf0       _ec_GFp_simple_point_clear_finish 1002ecf0 f   libeay32120:ecp_smpl.obj
 0001:0002dd20       _ec_GFp_simple_point_set_to_infinity 1002ed20 f   libeay32120:ecp_smpl.obj
 0001:0002dd20       _ec_GF2m_simple_point_set_to_infinity 1002ed20 f   libeay32120:ec2_smpl.obj
 0001:0002dd40       _ec_GF2m_simple_point_set_affine_coordinates 1002ed40 f   libeay32120:ec2_smpl.obj
 0001:0002dde0       _ec_GF2m_simple_point_get_affine_coordinates 1002ede0 f   libeay32120:ec2_smpl.obj
 0001:0002deb0       _ec_GF2m_simple_set_compressed_coordinates 1002eeb0 f   libeay32120:ec2_smpl.obj
 0001:0002ded0       _ec_GF2m_simple_point2oct  1002eed0 f   libeay32120:ec2_smpl.obj
 0001:0002e160       _ec_GF2m_simple_oct2point  1002f160 f   libeay32120:ec2_smpl.obj
 0001:0002e410       _ec_GF2m_simple_add        1002f410 f   libeay32120:ec2_smpl.obj
 0001:0002e790       _ec_GF2m_simple_dbl        1002f790 f   libeay32120:ec2_smpl.obj
 0001:0002e7b0       _ec_GF2m_simple_invert     1002f7b0 f   libeay32120:ec2_smpl.obj
 0001:0002e800       _ec_GFp_simple_is_at_infinity 1002f800 f   libeay32120:ecp_smpl.obj
 0001:0002e800       _ec_GF2m_simple_is_at_infinity 1002f800 f   libeay32120:ec2_smpl.obj
 0001:0002e810       _ec_GF2m_simple_is_on_curve 1002f810 f   libeay32120:ec2_smpl.obj
 0001:0002e980       _ec_GF2m_simple_cmp        1002f980 f   libeay32120:ec2_smpl.obj
 0001:0002eaf0       _ec_GF2m_simple_make_affine 1002faf0 f   libeay32120:ec2_smpl.obj
 0001:0002ebf0       _ec_GF2m_simple_points_make_affine 1002fbf0 f   libeay32120:ec2_smpl.obj
 0001:0002ec40       _ec_GF2m_simple_field_mul  1002fc40 f   libeay32120:ec2_smpl.obj
 0001:0002ec70       _ec_GF2m_simple_field_sqr  1002fc70 f   libeay32120:ec2_smpl.obj
 0001:0002ec90       _ec_GF2m_simple_field_div  1002fc90 f   libeay32120:ec2_smpl.obj
 0001:0002ecc0       _BN_lshift                 1002fcc0 f   libeay32120:bn_shift.obj
 0001:0002ee00       _BN_lshift1                1002fe00 f   libeay32120:bn_shift.obj
 0001:0002eea0       _BN_rshift                 1002fea0 f   libeay32120:bn_shift.obj
 0001:0002eff0       _BN_rshift1                1002fff0 f   libeay32120:bn_shift.obj
 0001:0002f0a0       _bn_add_words              100300a0 f   libeay32120:bn_asm.obj
 0001:0002f1a0       _bn_mul_add_words          100301a0 f   libeay32120:bn_asm.obj
 0001:0002f310       _bn_mul_comba4             10030310 f   libeay32120:bn_asm.obj
 0001:0002f4a0       _bn_mul_comba8             100304a0 f   libeay32120:bn_asm.obj
 0001:0002fa70       _bn_mul_words              10030a70 f   libeay32120:bn_asm.obj
 0001:0002fbb0       _bn_sqr_comba4             10030bb0 f   libeay32120:bn_asm.obj
 0001:0002fd90       _bn_sqr_comba8             10030d90 f   libeay32120:bn_asm.obj
 0001:00030460       _bn_sqr_words              10031460 f   libeay32120:bn_asm.obj
 0001:00030530       _bn_sub_words              10031530 f   libeay32120:bn_asm.obj
 0001:00030630       _sk_delete                 10031630 f   libeay32120:stack.obj
 0001:00030680       _sk_free                   10031680 f   libeay32120:stack.obj
 0001:000306b0       _sk_insert                 100316b0 f   libeay32120:stack.obj
 0001:00030760       _sk_new                    10031760 f   libeay32120:stack.obj
 0001:000307f0       _sk_new_null               100317f0 f   libeay32120:stack.obj
 0001:00030800       _sk_num                    10031800 f   libeay32120:stack.obj
 0001:00030810       _sk_pop                    10031810 f   libeay32120:stack.obj
 0001:00030830       _sk_pop_free               10031830 f   libeay32120:stack.obj
 0001:00030880       _sk_push                   10031880 f   libeay32120:stack.obj
 0001:000308a0       _sk_set                    100318a0 f   libeay32120:stack.obj
 0001:000308c0       _sk_value                  100318c0 f   libeay32120:stack.obj
 0001:000308e0       _BUF_MEM_grow_clean        100318e0 f   libeay32120:buffer.obj
 0001:000309c0       _BN_add                    100319c0 f   libeay32120:bn_add.obj
 0001:00030a50       _BN_sub                    10031a50 f   libeay32120:bn_add.obj
 0001:00030b20       _BN_uadd                   10031b20 f   libeay32120:bn_add.obj
 0001:00030bf0       _BN_usub                   10031bf0 f   libeay32120:bn_add.obj
 0001:00030d60       _RAND_add                  10031d60 f   libeay32120:rand_lib.obj
 0001:00030de0       _RAND_bytes                10031de0 f   libeay32120:rand_lib.obj
 0001:00030e40       _RAND_pseudo_bytes         10031e40 f   libeay32120:rand_lib.obj
 0001:00030ea0       _CRYPTO_is_mem_check_on    10031ea0 f   libeay32120:mem_dbg.obj
 0001:00030f00       _CRYPTO_pop_info           10031f00 f   libeay32120:mem_dbg.obj
 0001:00031030       _CRYPTO_push_info_         10032030 f   libeay32120:mem_dbg.obj
 0001:00031490       _lh_delete                 10032490 f   libeay32120:lhash.obj
 0001:00031500       _lh_doall                  10032500 f   libeay32120:lhash.obj
 0001:00031540       _lh_free                   10032540 f   libeay32120:lhash.obj
 0001:00031590       _lh_insert                 10032590 f   libeay32120:lhash.obj
 0001:00031620       _lh_new                    10032620 f   libeay32120:lhash.obj
 0001:00031730       _lh_num_items              10032730 f   libeay32120:lhash.obj
 0001:00031740       _lh_retrieve               10032740 f   libeay32120:lhash.obj
 0001:00031770       _lh_strhash                10032770 f   libeay32120:lhash.obj
 0001:00031c70       _CRYPTO_free_ex_data       10032c70 f   libeay32120:ex_data.obj
 0001:00031cd0       _CRYPTO_new_ex_data        10032cd0 f   libeay32120:ex_data.obj
 0001:00031d30       _CRYPTO_set_ex_data        10032d30 f   libeay32120:ex_data.obj
 0001:00032050       _EC_GROUP_method_of        10033050 f   libeay32120:ec_lib.obj
 0001:00032050       _EC_METHOD_get_field_type  10033050 f   libeay32120:ec_lib.obj
 0001:00032060       _ASN1_ANY_it               10033060 f   libeay32120:tasn_typ.obj
 0001:00032070       _ASN1_OBJECT_it            10033070 f   libeay32120:tasn_typ.obj
 0001:00032080       _ASN1_OCTET_STRING_it      10033080 f   libeay32120:tasn_typ.obj
 0001:00032090       _ASN1_TYPE_free            10033090 f   libeay32120:tasn_typ.obj
 0001:000320b0       _ASN1_TYPE_new             100330b0 f   libeay32120:tasn_typ.obj
 0001:000320c0       _ASN1_STRING_free          100330c0 f   libeay32120:asn1_lib.obj
 0001:000320f0       _ASN1_STRING_set           100330f0 f   libeay32120:asn1_lib.obj
 0001:000321b0       _ASN1_STRING_type_new      100331b0 f   libeay32120:asn1_lib.obj
 0001:00032210       _ASN1_get_object           10033210 f   libeay32120:asn1_lib.obj
 0001:00032330       _ASN1_object_size          10033330 f   libeay32120:asn1_lib.obj
 0001:00032370       _ASN1_put_eoc              10033370 f   libeay32120:asn1_lib.obj
 0001:00032390       _ASN1_put_object           10033390 f   libeay32120:asn1_lib.obj
 0001:00032e20       _ECDSA_OpenSSL             10033e20 f   libeay32120:ecs_ossl.obj
 0001:00032e30       _ENGINE_get_ECDSA          10033e30 f   libeay32120:tb_ecdsa.obj
 0001:00032e40       _ENGINE_get_default_ECDSA  10033e40 f   libeay32120:tb_ecdsa.obj
 0001:00032e50       _ENGINE_finish             10033e50 f   libeay32120:eng_init.obj
 0001:00032f30       _ENGINE_init               10033f30 f   libeay32120:eng_init.obj
 0001:00032fb0       _engine_unlocked_finish    10033fb0 f   libeay32120:eng_init.obj
 0001:00033040       _engine_unlocked_init      10034040 f   libeay32120:eng_init.obj
 0001:00033070       _OBJ_nid2obj               10034070 f   libeay32120:obj_dat.obj
 0001:00033100       _OBJ_obj2nid               10034100 f   libeay32120:obj_dat.obj
 0001:00033210       _asn1_do_adb               10034210 f   libeay32120:tasn_utl.obj
 0001:000332b0       _asn1_do_lock              100342b0 f   libeay32120:tasn_utl.obj
 0001:00033300       _asn1_enc_free             10034300 f   libeay32120:tasn_utl.obj
 0001:00033350       _asn1_enc_init             10034350 f   libeay32120:tasn_utl.obj
 0001:00033390       _asn1_enc_restore          10034390 f   libeay32120:tasn_utl.obj
 0001:00033400       _asn1_enc_save             10034400 f   libeay32120:tasn_utl.obj
 0001:00033480       _asn1_get_choice_selector  10034480 f   libeay32120:tasn_utl.obj
 0001:000334a0       _asn1_get_field_ptr        100344a0 f   libeay32120:tasn_utl.obj
 0001:000334c0       _asn1_set_choice_selector  100344c0 f   libeay32120:tasn_utl.obj
 0001:000334e0       _ASN1_OBJECT_free          100344e0 f   libeay32120:a_object.obj
 0001:00033550       _ASN1_OBJECT_new           10034550 f   libeay32120:a_object.obj
 0001:000335b0       _c2i_ASN1_OBJECT           100345b0 f   libeay32120:a_object.obj
 0001:00033690       _ASN1_TYPE_get             10034690 f   libeay32120:a_type.obj
 0001:000336b0       _ASN1_TYPE_set             100346b0 f   libeay32120:a_type.obj
 0001:000336e0       _c2i_ASN1_BIT_STRING       100346e0 f   libeay32120:a_bitstr.obj
 0001:00033800       _i2c_ASN1_BIT_STRING       10034800 f   libeay32120:a_bitstr.obj
 0001:000338d0       _ASN1_INTEGER_get          100348d0 f   libeay32120:a_int.obj
 0001:00033940       _c2i_ASN1_INTEGER          10034940 f   libeay32120:a_int.obj
 0001:00033ac0       _i2c_ASN1_INTEGER          10034ac0 f   libeay32120:a_int.obj
 0001:00033e90       _ECDH_OpenSSL              10034e90 f   libeay32120:ech_ossl.obj
 0001:00033ea0       _ENGINE_get_ECDH           10034ea0 f   libeay32120:tb_ecdh.obj
 0001:00033eb0       _ENGINE_get_default_ECDH   10034eb0 f   libeay32120:tb_ecdh.obj
 0001:00033ec0       _ec_GFp_simple_group_init  10034ec0 f   libeay32120:ecp_smpl.obj
 0001:00033f00       _ec_GFp_simple_group_clear_finish 10034f00 f   libeay32120:ecp_smpl.obj
 0001:00033f30       _ec_GFp_simple_group_copy  10034f30 f   libeay32120:ecp_smpl.obj
 0001:00033fa0       _ec_GFp_simple_group_set_curve 10034fa0 f   libeay32120:ecp_smpl.obj
 0001:00034130       _ec_GFp_simple_group_get_curve 10035130 f   libeay32120:ecp_smpl.obj
 0001:00034230       _ec_GFp_simple_group_get_degree 10035230 f   libeay32120:ecp_smpl.obj
 0001:00034240       _ec_GFp_simple_group_check_discriminant 10035240 f   libeay32120:ecp_smpl.obj
 0001:00034420       _ec_GFp_simple_point_init  10035420 f   libeay32120:ecp_smpl.obj
 0001:00034460       _ec_GFp_simple_point_copy  10035460 f   libeay32120:ecp_smpl.obj
 0001:00034460       _ec_GF2m_simple_point_copy 10035460 f   libeay32120:ec2_smpl.obj
 0001:000344c0       _ec_GFp_simple_set_Jprojective_coordinates_GFp 100354c0 f   libeay32120:ecp_smpl.obj
 0001:00034620       _ec_GFp_simple_get_Jprojective_coordinates_GFp 10035620 f   libeay32120:ecp_smpl.obj
 0001:00034730       _ec_GFp_simple_point_set_affine_coordinates 10035730 f   libeay32120:ecp_smpl.obj
 0001:00034780       _ec_GFp_simple_point_get_affine_coordinates 10035780 f   libeay32120:ecp_smpl.obj
 0001:00034a10       _ec_GFp_simple_set_compressed_coordinates 10035a10 f   libeay32120:ecp_smpl.obj
 0001:00034d50       _ec_GFp_simple_point2oct   10035d50 f   libeay32120:ecp_smpl.obj
 0001:00035020       _ec_GFp_simple_oct2point   10036020 f   libeay32120:ecp_smpl.obj
 0001:00035280       _ec_GFp_simple_add         10036280 f   libeay32120:ecp_smpl.obj
 0001:00035790       _ec_GFp_simple_dbl         10036790 f   libeay32120:ecp_smpl.obj
 0001:00035b90       _ec_GFp_simple_invert      10036b90 f   libeay32120:ecp_smpl.obj
 0001:00035bd0       _ec_GFp_simple_is_on_curve 10036bd0 f   libeay32120:ecp_smpl.obj
 0001:00035e50       _ec_GFp_simple_cmp         10036e50 f   libeay32120:ecp_smpl.obj
 0001:000360d0       _ec_GFp_simple_make_affine 100370d0 f   libeay32120:ecp_smpl.obj
 0001:000361c0       _ec_GFp_simple_points_make_affine 100371c0 f   libeay32120:ecp_smpl.obj
 0001:00036620       _ec_GFp_simple_field_mul   10037620 f   libeay32120:ecp_smpl.obj
 0001:00036650       _ec_GFp_simple_field_sqr   10037650 f   libeay32120:ecp_smpl.obj
 0001:00036670       _BN_MONT_CTX_copy          10037670 f   libeay32120:bn_mont.obj
 0001:000366d0       _BN_MONT_CTX_free          100376d0 f   libeay32120:bn_mont.obj
 0001:00036710       _BN_MONT_CTX_new           10037710 f   libeay32120:bn_mont.obj
 0001:00036770       _BN_MONT_CTX_set           10037770 f   libeay32120:bn_mont.obj
 0001:000368f0       _BN_from_montgomery        100378f0 f   libeay32120:bn_mont.obj
 0001:00036c50       _BN_mod_mul_montgomery     10037c50 f   libeay32120:bn_mont.obj
 0001:00036cd0       _BN_mul                    10037cd0 f   libeay32120:bn_mul.obj
 0001:00036f60       _bn_mul_normal             10037f60 f   libeay32120:bn_mul.obj
 0001:00037070       _bn_mul_part_recursive     10038070 f   libeay32120:bn_mul.obj
 0001:000374b0       _bn_mul_recursive          100384b0 f   libeay32120:bn_mul.obj
 0001:000378c0       _bn_sub_part_words         100388c0 f   libeay32120:bn_mul.obj
 0001:00037a30       _BN_sqr                    10038a30 f   libeay32120:bn_sqr.obj
 0001:00037bf0       _bn_sqr_normal             10038bf0 f   libeay32120:bn_sqr.obj
 0001:00037cb0       _bn_sqr_recursive          10038cb0 f   libeay32120:bn_sqr.obj
 0001:00037e30       _BN_get0_nist_prime_192    10038e30 f   libeay32120:bn_nist.obj
 0001:00037e40       _BN_get0_nist_prime_224    10038e40 f   libeay32120:bn_nist.obj
 0001:00037e50       _BN_get0_nist_prime_256    10038e50 f   libeay32120:bn_nist.obj
 0001:00037e60       _BN_get0_nist_prime_384    10038e60 f   libeay32120:bn_nist.obj
 0001:00037e70       _BN_get0_nist_prime_521    10038e70 f   libeay32120:bn_nist.obj
 0001:00037e80       _BN_nist_mod_192           10038e80 f   libeay32120:bn_nist.obj
 0001:00038100       _BN_nist_mod_224           10039100 f   libeay32120:bn_nist.obj
 0001:00038450       _BN_nist_mod_256           10039450 f   libeay32120:bn_nist.obj
 0001:00038910       _BN_nist_mod_384           10039910 f   libeay32120:bn_nist.obj
 0001:00038ef0       _BN_nist_mod_521           10039ef0 f   libeay32120:bn_nist.obj
 0001:00039110       _ec_GF2m_have_precompute_mult 1003a110 f   libeay32120:ec2_mult.obj
 0001:00039400       _ec_GF2m_precompute_mult   1003a400 f   libeay32120:ec2_mult.obj
 0001:00039410       _ec_GF2m_simple_mul        1003a410 f   libeay32120:ec2_mult.obj
 0001:00039ad0       _BN_GF2m_add               1003aad0 f   libeay32120:bn_gf2m.obj
 0001:00039b70       _BN_GF2m_mod               1003ab70 f   libeay32120:bn_gf2m.obj
 0001:00039c10       _BN_GF2m_mod_arr           1003ac10 f   libeay32120:bn_gf2m.obj
 0001:00039e20       _BN_GF2m_mod_div           1003ae20 f   libeay32120:bn_gf2m.obj
 0001:00039e90       _BN_GF2m_mod_inv           1003ae90 f   libeay32120:bn_gf2m.obj
 0001:0003a020       _BN_GF2m_mod_mul           1003b020 f   libeay32120:bn_gf2m.obj
 0001:0003a0c0       _BN_GF2m_mod_mul_arr       1003b0c0 f   libeay32120:bn_gf2m.obj
 0001:0003a310       _BN_GF2m_mod_sqr_arr       1003b310 f   libeay32120:bn_gf2m.obj
 0001:0003a460       _BN_GF2m_poly2arr          1003b460 f   libeay32120:bn_gf2m.obj
 0001:0003b090       _RAND_SSLeay               1003c090 f   libeay32120:md_rand.obj
 0001:0003b0a0       _ENGINE_get_RAND           1003c0a0 f   libeay32120:tb_rand.obj
 0001:0003b0b0       _ENGINE_get_default_RAND   1003c0b0 f   libeay32120:tb_rand.obj
 0001:0003b0c0       _BN_mod_add                1003c0c0 f   libeay32120:bn_mod.obj
 0001:0003b130       _BN_mod_add_quick          1003c130 f   libeay32120:bn_mod.obj
 0001:0003b180       _BN_mod_lshift1_quick      1003c180 f   libeay32120:bn_mod.obj
 0001:0003b1c0       _BN_mod_lshift_quick       1003c1c0 f   libeay32120:bn_mod.obj
 0001:0003b280       _BN_mod_mul                1003c280 f   libeay32120:bn_mod.obj
 0001:0003b300       _BN_mod_sqr                1003c300 f   libeay32120:bn_mod.obj
 0001:0003b340       _BN_mod_sub_quick          1003c340 f   libeay32120:bn_mod.obj
 0001:0003b380       _BN_nnmod                  1003c380 f   libeay32120:bn_mod.obj
 0001:0003b3d0       _BN_mod_inverse            1003c3d0 f   libeay32120:bn_gcd.obj
 0001:0003bc80       _engine_table_select       1003cc80 f   libeay32120:eng_table.obj
 0001:0003bda0       _engine_free_util          1003cda0 f   libeay32120:eng_lib.obj
 0001:0003be20       _BN_kronecker              1003ce20 f   libeay32120:bn_kron.obj
 0001:0003c090       _BN_mod_sqrt               1003d090 f   libeay32120:bn_sqrt.obj
 0001:0003c7b0       _RAND_poll                 1003d7b0 f   libeay32120:rand_win.obj
 0001:0003cfe0       _EVP_DigestFinal_ex        1003dfe0 f   libeay32120:digest.obj
 0001:0003d050       _EVP_DigestInit_ex         1003e050 f   libeay32120:digest.obj
 0001:0003d170       _EVP_DigestUpdate          1003e170 f   libeay32120:digest.obj
 0001:0003d180       _EVP_MD_CTX_cleanup        1003e180 f   libeay32120:digest.obj
 0001:0003d1f0       _EVP_MD_CTX_init           1003e1f0 f   libeay32120:digest.obj
 0001:0003d2c0       _EVP_sha1                  1003e2c0 f   libeay32120:m_sha1.obj
 0001:0003d2d0       _BN_mod_exp                1003e2d0 f   libeay32120:bn_exp.obj
 0001:0003d340       _BN_mod_exp_mont           1003e340 f   libeay32120:bn_exp.obj
 0001:0003d750       _BN_mod_exp_mont_consttime 1003e750 f   libeay32120:bn_exp.obj
 0001:0003db60       _BN_mod_exp_mont_word      1003eb60 f   libeay32120:bn_exp.obj
 0001:0003ded0       _BN_mod_exp_recp           1003eed0 f   libeay32120:bn_exp.obj
 0001:0003e390       _ENGINE_get_digest         1003f390 f   libeay32120:tb_digest.obj
 0001:0003e3e0       _ENGINE_get_digest_engine  1003f3e0 f   libeay32120:tb_digest.obj
 0001:0003e400       _RSA_sign                  1003f400 f   libeay32120:rsa_sign.obj
 0001:0003e610       _RSA_verify                1003f610 f   libeay32120:rsa_sign.obj
 0001:0003e8c0       _SHA1_Final                1003f8c0 f   libeay32120:sha1dgst.obj
 0001:0003ea10       _SHA1_Init                 1003fa10 f   libeay32120:sha1dgst.obj
 0001:0003ea60       _SHA1_Update               1003fa60 f   libeay32120:sha1dgst.obj
 0001:00040070       _BN_RECP_CTX_free          10041070 f   libeay32120:bn_recp.obj
 0001:000400a0       _BN_RECP_CTX_init          100410a0 f   libeay32120:bn_recp.obj
 0001:000400d0       _BN_RECP_CTX_set           100410d0 f   libeay32120:bn_recp.obj
 0001:00040110       _BN_div_recp               10041110 f   libeay32120:bn_recp.obj
 0001:00040350       _BN_mod_mul_reciprocal     10041350 f   libeay32120:bn_recp.obj
 0001:000403d0       _BN_reciprocal             100413d0 f   libeay32120:bn_recp.obj
 0001:00040430       _RSA_private_encrypt       10041430 f   libeay32120:rsa_lib.obj
 0001:00040440       _RSA_public_decrypt        10041440 f   libeay32120:rsa_lib.obj
 0001:00040450       _RSA_size                  10041450 f   libeay32120:rsa_lib.obj
 0001:00040470       _X509_SIG_free             10041470 f   libeay32120:x_sig.obj
 0001:00040490       _d2i_X509_SIG              10041490 f   libeay32120:x_sig.obj
 0001:000404b0       _i2d_X509_SIG              100414b0 f   libeay32120:x_sig.obj
 0001:000404d0       _X509_ALGOR_it             100414d0 f   libeay32120:x_algor.obj
 0001:000404d6       _IsProcessorFeaturePresent@4 100414d6 f   kernel32:KERNEL32.dll
 0001:000404dc       _RtlUnwind@16              100414dc f   kernel32:KERNEL32.dll
 0001:000404f0       __aulldiv                  100414f0 f   LIBCMT:ulldiv.obj
 0001:00040558       _fprintf                   10041558 f   LIBCMT:fprintf.obj
 0001:00040670       _memchr                    10041670 f   LIBCMT:memchr.obj
 0001:0004071d       __time64                   1004171d f   LIBCMT:time64.obj
 0001:00040770       _strchr                    10041770 f   LIBCMT:strchr.obj
 0001:000407de       ___from_strstr_to_strchr   100417de     LIBCMT:strchr.obj
 0001:0004089b       _feof                      1004189b f   LIBCMT:feoferr.obj
 0001:000408c1       _ferror                    100418c1 f   LIBCMT:feoferr.obj
 0001:000408e7       _fgets                     100418e7 f   LIBCMT:fgets.obj
 0001:00040a26       __fsopen                   10041a26 f   LIBCMT:fopen.obj
 0001:00040aea       _fopen                     10041aea f   LIBCMT:fopen.obj
 0001:00040aff       __fread_nolock_s           10041aff f   LIBCMT:fread.obj
 0001:00040cc2       _fread                     10041cc2 f   LIBCMT:fread.obj
 0001:00040cdd       _fread_s                   10041cdd f   LIBCMT:fread.obj
 0001:00040d6e       __fseek_nolock             10041d6e f   LIBCMT:fseek.obj
 0001:00040dfd       _fseek                     10041dfd f   LIBCMT:fseek.obj
 0001:00040e80       __ftell_nolock             10041e80 f   LIBCMT:ftell.obj
 0001:000411d9       _ftell                     100421d9 f   LIBCMT:ftell.obj
 0001:00041245       __fwrite_nolock            10042245 f   LIBCMT:fwrite.obj
 0001:0004139c       _fwrite                    1004239c f   LIBCMT:fwrite.obj
 0001:0004141e       __get_fmode                1004241e f   LIBCMT:setmode.obj
 0001:00041448       __setmode                  10042448 f   LIBCMT:setmode.obj
 0001:0004154d       __setmode_nolock           1004254d f   LIBCMT:setmode.obj
 0001:00041620       __aullrem                  10042620 f   LIBCMT:ullrem.obj
 0001:000416a0       _qsort                     100426a0 f   LIBCMT:qsort.obj
 0001:000419cc       __filbuf                   100429cc f   LIBCMT:_filbuf.obj
 0001:00041aed       __getstream                10042aed f   LIBCMT:stream.obj
 0001:00041c0c       __openfile                 10042c0c f   LIBCMT:_open.obj
 0001:00041e84       _memcpy_s                  10042e84 f   LIBCMT:memcpy_s.obj
 0001:00041f03       __read                     10042f03 f   LIBCMT:read.obj
 0001:00042017       __read_nolock              10043017 f   LIBCMT:read.obj
 0001:000427a6       __lseek                    100437a6 f   LIBCMT:lseek.obj
 0001:00042895       __lseek_nolock             10043895 f   LIBCMT:lseek.obj
 0001:00042940       __alldiv                   10043940 f   LIBCMT:lldiv.obj
 0001:000429f0       __allrem                   100439f0 f   LIBCMT:llrem.obj
 0001:00042aa2       __sopen_helper             10043aa2 f   LIBCMT:open.obj
 0001:00042b6b       __sopen_nolock             10043b6b f   LIBCMT:open.obj
 0001:00042bb7       __sopen_s                  10043bb7 f   LIBCMT:open.obj
 0001:00042bd5       __mbsnbcmp                 10043bd5 f   LIBCMT:mbsnbcmp.obj
 0001:00042bed       __mbsnbcmp_l               10043bed f   LIBCMT:mbsnbcmp.obj
 0001:00042d02       __mbsnbicmp                10043d02 f   LIBCMT:mbsnbicm.obj
 0001:00042d1a       __mbsnbicmp_l              10043d1a f   LIBCMT:mbsnbicm.obj
 0001:00042f59       __wsopen_nolock            10043f59 f   LIBCMT:wopen.obj
 0001:000436b0       _strncmp                   100446b0 f   LIBCMT:strncmp.obj
 0001:00043728       __strnicmp                 10044728 f   LIBCMT:strnicmp.obj
 0001:00043793       __strnicmp_l               10044793 f   LIBCMT:strnicmp.obj
 0001:00043842       __chsize_nolock            10044842 f   LIBCMT:chsize.obj
 0001:00043a00       ___ascii_strnicmp          10044a00 f   LIBCMT:_strnicm.obj
 0001:00043b2f       ?_CallCatchBlock2@@YAPAXPAUEHRegistrationNode@@PBU_s_FuncInfo@@PAXHK@Z 10044b2f f   LIBCMT:_trnsctrl_.obj
 0001:00043b8d       ?_CallMemberFunction2@@YGXPAX00H@Z 10044b8d f   LIBCMT:_trnsctrl_.obj
 0001:00043b8d       ?_CallMemberFunction0@@YGXPAX0@Z 10044b8d f   LIBCMT:_trnsctrl_.obj
 0001:00043b8d       ?_CallMemberFunction1@@YGXPAX00@Z 10044b8d f   LIBCMT:_trnsctrl_.obj
 0001:00043b94       ?_CallSETranslator@@YAHPAUEHExceptionRecord@@PAUEHRegistrationNode@@PAX2PBU_s_FuncInfo@@H1@Z 10044b94 f   LIBCMT:_trnsctrl_.obj
 0001:00043c69       ?_GetRangeOfTrysToCheck@@YAPBU_s_TryBlockMapEntry@@PBU_s_FuncInfo@@HHPAI1@Z 10044c69 f   LIBCMT:_trnsctrl_.obj
 0001:00043ce5       ?_JumpToContinuation@@YGXPAXPAUEHRegistrationNode@@@Z 10044ce5 f   LIBCMT:_trnsctrl_.obj
 0001:00043d15       ?_UnwindNestedFrames@@YGXPAUEHRegistrationNode@@PAUEHExceptionRecord@@@Z 10044d15 f   LIBCMT:_trnsctrl_.obj
 0001:00043d68       __CreateFrameInfo          10044d68 f   LIBCMT:_trnsctrl_.obj
 0001:00043d92       __FindAndUnlinkFrame       10044d92 f   LIBCMT:_trnsctrl_.obj
 0001:00043de2       __IsExceptionObjectToBeDestroyed 10044de2 f   LIBCMT:_trnsctrl_.obj
 0001:00043e0b       ___CxxFrameHandler3        10044e0b f   LIBCMT:_trnsctrl_.obj
 0001:00043e50       __CallSettingFrame@12      10044e50 f   LIBCMT:lowhelpr.obj
 0001:00043e77       __NLG_Return               10044e77     LIBCMT:lowhelpr.obj
 0001:00043e9c       ___DestructExceptionObject 10044e9c f   LIBCMT:frame.obj
 0001:00043f27       ??0bad_exception@std@@QAE@ABV01@@Z 10044f27 f i LIBCMT:frame.obj
 0001:00043f42       ??1bad_exception@std@@UAE@XZ 10044f42 f i LIBCMT:frame.obj
 0001:00043f4d       ??_Ebad_exception@std@@UAEPAXI@Z 10044f4d f i LIBCMT:frame.obj
 0001:00043f4d       ??_Gbad_exception@std@@UAEPAXI@Z 10044f4d f i LIBCMT:frame.obj
 0001:0004477b       ___AdjustPointer           1004577b f   LIBCMT:frame.obj
 0001:000447a0       ___BuildCatchObject        100457a0 f   LIBCMT:frame.obj
 0001:0004482e       ___BuildCatchObjectHelper  1004582e f   LIBCMT:frame.obj
 0001:000449f0       ___FrameUnwindFilter       100459f0 f   LIBCMT:frame.obj
 0001:00044a3e       ___FrameUnwindToState      10045a3e f   LIBCMT:frame.obj
 0001:00044b17       ___InternalCxxFrameHandler 10045b17 f   LIBCMT:frame.obj
 0001:00044bf6       ___TypeMatch               10045bf6 f   LIBCMT:frame.obj
 0001:00044c5d       ?_ValidateWrite@@YAHPAXI@Z 10045c5d f   LIBCMT:validate.obj
 0001:00044c5d       ?_ValidateRead@@YAHPBXI@Z  10045c5d f   LIBCMT:validate.obj
 0001:00044c5d       ?_ValidateExecute@@YAHP6GHXZ@Z 10045c5d f   LIBCMT:validate.obj
 0001:00044c6c       __EH_prolog3_catch         10045c6c f   LIBCMT:ehprolg3.obj
 0002:00000000       __imp__OpenProcessToken@12 10047000     ssleay32120:ADVAPI32.dll
 0002:00000004       __imp__CryptGenRandom@12   10047004     ssleay32120:ADVAPI32.dll
 0002:00000008       __imp__CryptReleaseContext@8 10047008     ssleay32120:ADVAPI32.dll
 0002:0000000c       __imp__GetSecurityDescriptorDacl@16 1004700c     ssleay32120:ADVAPI32.dll
 0002:00000010       __imp__GetSecurityDescriptorGroup@12 10047010     ssleay32120:ADVAPI32.dll
 0002:00000014       __imp__GetSecurityDescriptorSacl@16 10047014     ssleay32120:ADVAPI32.dll
 0002:00000018       __imp__FreeSid@4           10047018     ssleay32120:ADVAPI32.dll
 0002:0000001c       __imp__GetSecurityDescriptorOwner@12 1004701c     ssleay32120:ADVAPI32.dll
 0002:00000020       __imp__AllocateAndInitializeSid@44 10047020     ssleay32120:ADVAPI32.dll
 0002:00000024       __imp__MakeAbsoluteSD@44   10047024     ssleay32120:ADVAPI32.dll
 0002:00000028       __imp__GetNamedSecurityInfoW@32 10047028     ssleay32120:ADVAPI32.dll
 0002:0000002c       __imp__GetAce@12           1004702c     ssleay32120:ADVAPI32.dll
 0002:00000030       __imp__SetNamedSecurityInfoW@28 10047030     ssleay32120:ADVAPI32.dll
 0002:00000034       __imp__EqualSid@8          10047034     ssleay32120:ADVAPI32.dll
 0002:00000038       __imp__GetSecurityDescriptorControl@12 10047038     ssleay32120:ADVAPI32.dll
 0002:0000003c       __imp__GetAclInformation@16 1004703c     ssleay32120:ADVAPI32.dll
 0002:00000040       __imp__GetTokenInformation@20 10047040     ssleay32120:ADVAPI32.dll
 0002:00000044       __imp__OpenThreadToken@16  10047044     ssleay32120:ADVAPI32.dll
 0002:00000048       __imp__IsValidSecurityDescriptor@4 10047048     ssleay32120:ADVAPI32.dll
 0002:0000004c       __imp__GetSecurityDescriptorLength@4 1004704c     ssleay32120:ADVAPI32.dll
 0002:00000050       __imp__CryptAcquireContextW@20 10047050     ssleay32120:ADVAPI32.dll
 0002:00000054       __imp__RevertToSelf@0      10047054     ssleay32120:ADVAPI32.dll
 0002:00000058       __imp__ImpersonateLoggedOnUser@4 10047058     ssleay32120:ADVAPI32.dll
 0002:0000005c       __imp__RegCloseKey@4       1004705c     ssleay32120:ADVAPI32.dll
 0002:00000060       __imp__RegQueryValueExW@24 10047060     ssleay32120:ADVAPI32.dll
 0002:00000064       __imp__RegOpenKeyExW@20    10047064     ssleay32120:ADVAPI32.dll
 0002:00000068       \177ADVAPI32_NULL_THUNK_DATA 10047068     ssleay32120:ADVAPI32.dll
 0002:0000006c       __imp__CryptFindOIDInfo@12 1004706c     crypt32:CRYPT32.dll
 0002:00000070       __imp__CryptAcquireCertificatePrivateKey@24 10047070     crypt32:CRYPT32.dll
 0002:00000074       __imp__CryptProtectMemory@12 10047074     crypt32:CRYPT32.dll
 0002:00000078       __imp__CryptUnregisterOIDInfo@4 10047078     crypt32:CRYPT32.dll
 0002:0000007c       __imp__CryptRegisterOIDInfo@8 1004707c     crypt32:CRYPT32.dll
 0002:00000080       __imp__CryptUnprotectMemory@12 10047080     crypt32:CRYPT32.dll
 0002:00000084       __imp__CertCloseStore@8    10047084     crypt32:CRYPT32.dll
 0002:00000088       __imp__CryptProtectData@28 10047088     crypt32:CRYPT32.dll
 0002:0000008c       __imp__CryptUnprotectData@28 1004708c     crypt32:CRYPT32.dll
 0002:00000090       __imp__CryptStringToBinaryW@28 10047090     crypt32:CRYPT32.dll
 0002:00000094       __imp__CryptBinaryToStringW@20 10047094     crypt32:CRYPT32.dll
 0002:00000098       __imp__CertFreeCertificateChain@4 10047098     crypt32:CRYPT32.dll
 0002:0000009c       __imp__CertGetCertificateChain@32 1004709c     crypt32:CRYPT32.dll
 0002:000000a0       __imp__CertDuplicateCertificateContext@4 100470a0     crypt32:CRYPT32.dll
 0002:000000a4       __imp__CertOpenSystemStoreW@8 100470a4     crypt32:CRYPT32.dll
 0002:000000a8       __imp__CertFreeCertificateContext@4 100470a8     crypt32:CRYPT32.dll
 0002:000000ac       __imp__CertFindCertificateInStore@24 100470ac     crypt32:CRYPT32.dll
 0002:000000b0       \177CRYPT32_NULL_THUNK_DATA 100470b0     crypt32:CRYPT32.dll
 0002:000000b4       __imp__HeapFree@12         100470b4     kernel32:KERNEL32.dll
 0002:000000b8       __imp__GetProcessHeap@0    100470b8     kernel32:KERNEL32.dll
 0002:000000bc       __imp__LocalFree@4         100470bc     kernel32:KERNEL32.dll
 0002:000000c0       __imp__SetEvent@4          100470c0     kernel32:KERNEL32.dll
 0002:000000c4       __imp__GetModuleHandleW@4  100470c4     kernel32:KERNEL32.dll
 0002:000000c8       __imp__InitializeCriticalSection@4 100470c8     kernel32:KERNEL32.dll
 0002:000000cc       __imp__WideCharToMultiByte@32 100470cc     kernel32:KERNEL32.dll
 0002:000000d0       __imp__Sleep@4             100470d0     kernel32:KERNEL32.dll
 0002:000000d4       __imp__LeaveCriticalSection@4 100470d4     kernel32:KERNEL32.dll
 0002:000000d8       __imp__GetLastError@0      100470d8     kernel32:KERNEL32.dll
 0002:000000dc       __imp__EnterCriticalSection@4 100470dc     kernel32:KERNEL32.dll
 0002:000000e0       __imp__GlobalMemoryStatus@4 100470e0     kernel32:KERNEL32.dll
 0002:000000e4       __imp__ResetEvent@4        100470e4     kernel32:KERNEL32.dll
 0002:000000e8       __imp__CreateEventW@16     100470e8     kernel32:KERNEL32.dll
 0002:000000ec       __imp__DeleteCriticalSection@4 100470ec     kernel32:KERNEL32.dll
 0002:000000f0       __imp__CloseHandle@4       100470f0     kernel32:KERNEL32.dll
 0002:000000f4       __imp__CreateThread@24     100470f4     kernel32:KERNEL32.dll
 0002:000000f8       __imp__GetTimeFormatW@24   100470f8     kernel32:KERNEL32.dll
 0002:000000fc       __imp__WaitForSingleObject@8 100470fc     kernel32:KERNEL32.dll
 0002:00000100       __imp__GetModuleFileNameW@12 10047100     kernel32:KERNEL32.dll
 0002:00000104       __imp__HeapAlloc@12        10047104     kernel32:KERNEL32.dll
 0002:00000108       __imp__CreateTimerQueueTimer@28 10047108     kernel32:KERNEL32.dll
 0002:0000010c       __imp__WTSGetActiveConsoleSessionId@0 1004710c     kernel32:KERNEL32.dll
 0002:00000110       __imp__DeleteTimerQueueTimer@12 10047110     kernel32:KERNEL32.dll
 0002:00000114       __imp__ResumeThread@4      10047114     kernel32:KERNEL32.dll
 0002:00000118       __imp__SetFilePointerEx@20 10047118     kernel32:KERNEL32.dll
 0002:0000011c       __imp__GetConsoleMode@8    1004711c     kernel32:KERNEL32.dll
 0002:00000120       __imp__GetConsoleCP@0      10047120     kernel32:KERNEL32.dll
 0002:00000124       __imp__HeapReAlloc@16      10047124     kernel32:KERNEL32.dll
 0002:00000128       __imp__TlsGetValue@4       10047128     kernel32:KERNEL32.dll
 0002:0000012c       __imp__TlsAlloc@0          1004712c     kernel32:KERNEL32.dll
 0002:00000130       __imp__TerminateProcess@8  10047130     kernel32:KERNEL32.dll
 0002:00000134       __imp__InitializeCriticalSectionAndSpinCount@8 10047134     kernel32:KERNEL32.dll
 0002:00000138       __imp__SetUnhandledExceptionFilter@4 10047138     kernel32:KERNEL32.dll
 0002:0000013c       __imp__UnhandledExceptionFilter@4 1004713c     kernel32:KERNEL32.dll
 0002:00000140       __imp__SetLastError@4      10047140     kernel32:KERNEL32.dll
 0002:00000144       __imp__LoadLibraryExW@12   10047144     kernel32:KERNEL32.dll
 0002:00000148       __imp__FreeLibrary@4       10047148     kernel32:KERNEL32.dll
 0002:0000014c       __imp__RtlUnwind@16        1004714c     kernel32:KERNEL32.dll
 0002:00000150       __imp__FreeEnvironmentStringsW@4 10047150     kernel32:KERNEL32.dll
 0002:00000154       __imp__GetCPInfo@8         10047154     kernel32:KERNEL32.dll
 0002:00000158       __imp__GetEnvironmentStringsW@0 10047158     kernel32:KERNEL32.dll
 0002:0000015c       __imp__LoadLibraryA@4      1004715c     kernel32:KERNEL32.dll
 0002:00000160       __imp__LCMapStringW@24     10047160     kernel32:KERNEL32.dll
 0002:00000164       __imp__OutputDebugStringW@4 10047164     kernel32:KERNEL32.dll
 0002:00000168       __imp__TlsSetValue@8       10047168     kernel32:KERNEL32.dll
 0002:0000016c       __imp__TlsFree@4           1004716c     kernel32:KERNEL32.dll
 0002:00000170       __imp__GetVersionExA@4     10047170     kernel32:KERNEL32.dll
 0002:00000174       __imp__FlushFileBuffers@4  10047174     kernel32:KERNEL32.dll
 0002:00000178       __imp__WriteConsoleW@20    10047178     kernel32:KERNEL32.dll
 0002:0000017c       __imp__ChangeTimerQueueTimer@16 1004717c     kernel32:KERNEL32.dll
 0002:00000180       __imp__SetStdHandle@8      10047180     kernel32:KERNEL32.dll
 0002:00000184       __imp__ReadConsoleW@20     10047184     kernel32:KERNEL32.dll
 0002:00000188       __imp__SetEndOfFile@4      10047188     kernel32:KERNEL32.dll
 0002:0000018c       __imp__GetStartupInfoW@4   1004718c     kernel32:KERNEL32.dll
 0002:00000190       __imp__GetTickCount@0      10047190     kernel32:KERNEL32.dll
 0002:00000194       __imp__GetSystemTimeAsFileTime@4 10047194     kernel32:KERNEL32.dll
 0002:00000198       __imp__GetCurrentProcessId@0 10047198     kernel32:KERNEL32.dll
 0002:0000019c       __imp__QueryPerformanceCounter@4 1004719c     kernel32:KERNEL32.dll
 0002:000001a0       __imp__GetStdHandle@4      100471a0     kernel32:KERNEL32.dll
 0002:000001a4       __imp__GetFileType@4       100471a4     kernel32:KERNEL32.dll
 0002:000001a8       __imp__DisableThreadLibraryCalls@4 100471a8     kernel32:KERNEL32.dll
 0002:000001ac       __imp__FindClose@4         100471ac     kernel32:KERNEL32.dll
 0002:000001b0       __imp__FindFirstFileExW@24 100471b0     kernel32:KERNEL32.dll
 0002:000001b4       __imp__FindNextFileW@8     100471b4     kernel32:KERNEL32.dll
 0002:000001b8       __imp__GetFileSize@8       100471b8     kernel32:KERNEL32.dll
 0002:000001bc       __imp__GetCurrentProcess@0 100471bc     kernel32:KERNEL32.dll
 0002:000001c0       __imp__CreateDirectoryW@8  100471c0     kernel32:KERNEL32.dll
 0002:000001c4       __imp__GetCurrentThread@0  100471c4     kernel32:KERNEL32.dll
 0002:000001c8       __imp__WriteFile@20        100471c8     kernel32:KERNEL32.dll
 0002:000001cc       __imp__ReadFile@20         100471cc     kernel32:KERNEL32.dll
 0002:000001d0       __imp__CreateFileW@28      100471d0     kernel32:KERNEL32.dll
 0002:000001d4       __imp__DeleteFileW@4       100471d4     kernel32:KERNEL32.dll
 0002:000001d8       __imp__EncodePointer@4     100471d8     kernel32:KERNEL32.dll
 0002:000001dc       __imp__DecodePointer@4     100471dc     kernel32:KERNEL32.dll
 0002:000001e0       __imp__IsDebuggerPresent@0 100471e0     kernel32:KERNEL32.dll
 0002:000001e4       __imp__IsProcessorFeaturePresent@4 100471e4     kernel32:KERNEL32.dll
 0002:000001e8       __imp__GetCommandLineA@0   100471e8     kernel32:KERNEL32.dll
 0002:000001ec       __imp__GetCurrentThreadId@0 100471ec     kernel32:KERNEL32.dll
 0002:000001f0       __imp__InterlockedDecrement@4 100471f0     kernel32:KERNEL32.dll
 0002:000001f4       __imp__ExitProcess@4       100471f4     kernel32:KERNEL32.dll
 0002:000001f8       __imp__GetModuleHandleExW@12 100471f8     kernel32:KERNEL32.dll
 0002:000001fc       __imp__GetProcAddress@8    100471fc     kernel32:KERNEL32.dll
 0002:00000200       __imp__AreFileApisANSI@0   10047200     kernel32:KERNEL32.dll
 0002:00000204       __imp__MultiByteToWideChar@24 10047204     kernel32:KERNEL32.dll
 0002:00000208       __imp__HeapSize@12         10047208     kernel32:KERNEL32.dll
 0002:0000020c       __imp__RaiseException@16   1004720c     kernel32:KERNEL32.dll
 0002:00000210       __imp__GetStringTypeW@16   10047210     kernel32:KERNEL32.dll
 0002:00000214       __imp__InterlockedIncrement@4 10047214     kernel32:KERNEL32.dll
 0002:00000218       __imp__IsValidCodePage@4   10047218     kernel32:KERNEL32.dll
 0002:0000021c       __imp__GetACP@0            1004721c     kernel32:KERNEL32.dll
 0002:00000220       __imp__GetOEMCP@0          10047220     kernel32:KERNEL32.dll
 0002:00000224       __imp__GetModuleFileNameA@12 10047224     kernel32:KERNEL32.dll
 0002:00000228       \177KERNEL32_NULL_THUNK_DATA 10047228     kernel32:KERNEL32.dll
 0002:0000022c       __imp__SysStringByteLen@4  1004722c     oleaut32:OLEAUT32.dll
 0002:00000230       __imp__SysFreeString@4     10047230     oleaut32:OLEAUT32.dll
 0002:00000234       __imp__VariantInit@4       10047234     oleaut32:OLEAUT32.dll
 0002:00000238       __imp__VariantClear@4      10047238     oleaut32:OLEAUT32.dll
 0002:0000023c       __imp__SysAllocString@4    1004723c     oleaut32:OLEAUT32.dll
 0002:00000240       \177OLEAUT32_NULL_THUNK_DATA 10047240     oleaut32:OLEAUT32.dll
 0002:00000244       __imp__UuidCreate@4        10047244     rpcrt4:RPCRT4.dll
 0002:00000248       \177RPCRT4_NULL_THUNK_DATA 10047248     rpcrt4:RPCRT4.dll
 0002:0000024c       __imp__SetupDiGetClassDevsW@16 1004724c     setupapi:SETUPAPI.dll
 0002:00000250       __imp__SetupDiSetDevicePropertyW@28 10047250     setupapi:SETUPAPI.dll
 0002:00000254       __imp__SetupDiEnumDeviceInfo@12 10047254     setupapi:SETUPAPI.dll
 0002:00000258       __imp__SetupDiDestroyDeviceInfoList@4 10047258     setupapi:SETUPAPI.dll
 0002:0000025c       __imp__SetupDiGetDevicePropertyW@32 1004725c     setupapi:SETUPAPI.dll
 0002:00000260       \177SETUPAPI_NULL_THUNK_DATA 10047260     setupapi:SETUPAPI.dll
 0002:00000264       __imp__GetAllUsersProfileDirectoryW@8 10047264     userenv:USERENV.dll
 0002:00000268       __imp__GetUserProfileDirectoryW@12 10047268     userenv:USERENV.dll
 0002:0000026c       \177USERENV_NULL_THUNK_DATA 1004726c     userenv:USERENV.dll
 0002:00000270       __imp__WTSQueryUserToken@8 10047270     wtsapi32:WTSAPI32.dll
 0002:00000274       __imp__WTSFreeMemory@4     10047274     wtsapi32:WTSAPI32.dll
 0002:00000278       __imp__WTSEnumerateSessionsW@20 10047278     wtsapi32:WTSAPI32.dll
 0002:0000027c       \177WTSAPI32_NULL_THUNK_DATA 1004727c     wtsapi32:WTSAPI32.dll
 0002:00000280       __imp__BCryptDecrypt@40    10047280     bcrypt:bcrypt.dll
 0002:00000284       __imp__BCryptEncrypt@40    10047284     bcrypt:bcrypt.dll
 0002:00000288       __imp__BCryptOpenAlgorithmProvider@16 10047288     bcrypt:bcrypt.dll
 0002:0000028c       __imp__BCryptDestroyHash@4 1004728c     bcrypt:bcrypt.dll
 0002:00000290       __imp__BCryptHashData@16   10047290     bcrypt:bcrypt.dll
 0002:00000294       __imp__BCryptGenerateKeyPair@16 10047294     bcrypt:bcrypt.dll
 0002:00000298       __imp__BCryptFinishHash@16 10047298     bcrypt:bcrypt.dll
 0002:0000029c       __imp__BCryptSignHash@32   1004729c     bcrypt:bcrypt.dll
 0002:000002a0       __imp__BCryptRemoveContextFunctionProvider@20 100472a0     bcrypt:bcrypt.dll
 0002:000002a4       __imp__BCryptRegisterProvider@12 100472a4     bcrypt:bcrypt.dll
 0002:000002a8       __imp__BCryptAddContextFunctionProvider@24 100472a8     bcrypt:bcrypt.dll
 0002:000002ac       __imp__BCryptAddContextFunction@20 100472ac     bcrypt:bcrypt.dll
 0002:000002b0       __imp__BCryptSetProperty@20 100472b0     bcrypt:bcrypt.dll
 0002:000002b4       __imp__BCryptVerifySignature@28 100472b4     bcrypt:bcrypt.dll
 0002:000002b8       __imp__BCryptDestroySecret@4 100472b8     bcrypt:bcrypt.dll
 0002:000002bc       __imp__BCryptCloseAlgorithmProvider@8 100472bc     bcrypt:bcrypt.dll
 0002:000002c0       __imp__BCryptGetProperty@24 100472c0     bcrypt:bcrypt.dll
 0002:000002c4       __imp__BCryptDeriveKey@28  100472c4     bcrypt:bcrypt.dll
 0002:000002c8       __imp__BCryptCreateHash@28 100472c8     bcrypt:bcrypt.dll
 0002:000002cc       __imp__BCryptExportKey@28  100472cc     bcrypt:bcrypt.dll
 0002:000002d0       __imp__BCryptSecretAgreement@16 100472d0     bcrypt:bcrypt.dll
 0002:000002d4       __imp__BCryptDestroyKey@4  100472d4     bcrypt:bcrypt.dll
 0002:000002d8       __imp__BCryptImportKeyPair@28 100472d8     bcrypt:bcrypt.dll
 0002:000002dc       __imp__BCryptFinalizeKeyPair@8 100472dc     bcrypt:bcrypt.dll
 0002:000002e0       __imp__BCryptUnregisterProvider@4 100472e0     bcrypt:bcrypt.dll
 0002:000002e4       \177bcrypt_NULL_THUNK_DATA 100472e4     bcrypt:bcrypt.dll
 0002:000002e8       __imp__NCryptSignHash@32   100472e8     ncrypt:ncrypt.dll
 0002:000002ec       __imp__NCryptFreeObject@4  100472ec     ncrypt:ncrypt.dll
 0002:000002f0       \177ncrypt_NULL_THUNK_DATA 100472f0     ncrypt:ncrypt.dll
 0002:000002f4       __imp__CoCreateInstance@20 100472f4     ole32:ole32.dll
 0002:000002f8       __imp__PropVariantClear@4  100472f8     ole32:ole32.dll
 0002:000002fc       __imp__CoInitializeEx@8    100472fc     ole32:ole32.dll
 0002:00000300       __imp__CoUninitialize@0    10047300     ole32:ole32.dll
 0002:00000304       \177ole32_NULL_THUNK_DATA  10047304     ole32:ole32.dll
 0002:00000308       ___xc_a                    10047308     LIBCMT:crt0init.obj
 0002:00000314       ___xc_z                    10047314     LIBCMT:crt0init.obj
 0002:00000318       ___xi_a                    10047318     LIBCMT:crt0init.obj
 0002:0000032c       ___xi_z                    1004732c     LIBCMT:crt0init.obj
 0002:00000330       ___xp_a                    10047330     LIBCMT:crt0init.obj
 0002:00000340       ___xp_z                    10047340     LIBCMT:crt0init.obj
 0002:00000344       ___xt_a                    10047344     LIBCMT:crt0init.obj
 0002:00000348       ___xt_z                    10047348     LIBCMT:crt0init.obj
 0002:00000388       _GUID_NULL                 10047388     uuid:cguid_i.obj
 0002:00000398       _LIBID_FctnDiscLib         10047398     uuid:functiondiscovery_i.obj
 0002:000003a8       _CLSID_FunctionDiscovery   100473a8     uuid:functiondiscovery_i.obj
 0002:000003b8       _CLSID_PropertyStore       100473b8     uuid:functiondiscovery_i.obj
 0002:000003c8       _CLSID_FunctionInstanceCollection 100473c8     uuid:functiondiscovery_i.obj
 0002:000003d8       _CLSID_PropertyStoreCollection 100473d8     uuid:functiondiscovery_i.obj
 0002:000003e8       _IID_IFunctionDiscoveryNotification 100473e8     uuid:functiondiscoveryapi_i.obj
 0002:000003f8       _IID_IFunctionDiscovery    100473f8     uuid:functiondiscoveryapi_i.obj
 0002:00000408       _IID_IFunctionInstance     10047408     uuid:functiondiscoveryapi_i.obj
 0002:00000418       _IID_IFunctionInstanceCollection 10047418     uuid:functiondiscoveryapi_i.obj
 0002:00000428       _IID_IPropertyStoreCollection 10047428     uuid:functiondiscoveryapi_i.obj
 0002:00000438       _IID_IFunctionInstanceQuery 10047438     uuid:functiondiscoveryapi_i.obj
 0002:00000448       _IID_IFunctionInstanceCollectionQuery 10047448     uuid:functiondiscoveryapi_i.obj
 0002:00000458       _IID_IFunctionInstanceQuery2 10047458     uuid:functiondiscoveryapi_i.obj
 0002:00000468       _IID_IFunctionInstanceCollectionQuery2 10047468     uuid:functiondiscoveryapi_i.obj
 0002:00000478       _IID_IFunctionInstanceCollectionQueryCollection 10047478     uuid:functiondiscoveryapi_i.obj
 0002:00000488       _IID_IFunctionDiscoveryProviderRefresh 10047488     uuid:functiondiscoveryapi_i.obj
 0002:0000049c       ??_7type_info@@6B@         1004749c     LIBCMT:typinfo.obj
 0002:000004a4       ??_7bad_alloc@std@@6B@     100474a4     LIBCMT:new.obj
 0002:000004ac       ??_C@_0P@GHFPNOJB@bad?5allocation?$AA@ 100474ac     LIBCMT:new.obj
 0002:000004c4       __pDefaultRawDllMain       100474c4     LIBCMT:dllcrt0.obj
 0002:000004c4       __pRawDllMain              100474c4     LIBCMT:dllcrt0.obj
 0002:000004c8       ??_C@_1BI@BGOHAHKC@?$AAm?$AAs?$AAc?$AAo?$AAr?$AAe?$AAe?$AA?4?$AAd?$AAl?$AAl?$AA?$AA@ 100474c8     LIBCMT:crt0dat.obj
 0002:000004e0       ??_C@_0P@MIGLKIOC@CorExitProcess?$AA@ 100474e0     LIBCMT:crt0dat.obj
 0002:000004f4       ??_7exception@std@@6B@     100474f4     LIBCMT:stdexcpt.obj
 0002:000004fc       ??_C@_0BC@EOODALEL@Unknown?5exception?$AA@ 100474fc     LIBCMT:stdexcpt.obj
 0002:00000530       ??_C@_06OJHGLDPL@?$CInull?$CJ?$AA@ 10047530     LIBCMT:output.obj
 0002:00000538       ??_C@_1O@CEDCILHN@?$AA?$CI?$AAn?$AAu?$AAl?$AAl?$AA?$CJ?$AA?$AA@ 10047538     LIBCMT:output.obj
 0002:00000548       ___lookuptable             10047548     LIBCMT:output.obj
 0002:000005b4       ??_C@_1M@HPNHIDJI@?$AAj?$AAa?$AA?9?$AAJ?$AAP?$AA?$AA@ 100475b4     LIBCMT:mbctype.obj
 0002:000005c0       ??_C@_1M@BIBDDEMK@?$AAz?$AAh?$AA?9?$AAC?$AAN?$AA?$AA@ 100475c0     LIBCMT:mbctype.obj
 0002:000005cc       ??_C@_1M@JLOOOEGK@?$AAk?$AAo?$AA?9?$AAK?$AAR?$AA?$AA@ 100475cc     LIBCMT:mbctype.obj
 0002:000005d8       ??_C@_1M@CLNBBOPM@?$AAz?$AAh?$AA?9?$AAT?$AAW?$AA?$AA@ 100475d8     LIBCMT:mbctype.obj
 0002:000005e4       ??_C@_03KOEHGMDN@Sun?$AA@  100475e4     LIBCMT:nlsdata.obj
 0002:000005e8       ??_C@_03PDAGKDH@Mon?$AA@   100475e8     LIBCMT:nlsdata.obj
 0002:000005ec       ??_C@_03NAGEINEP@Tue?$AA@  100475ec     LIBCMT:nlsdata.obj
 0002:000005f0       ??_C@_03MHOMLAJA@Wed?$AA@  100475f0     LIBCMT:nlsdata.obj
 0002:000005f4       ??_C@_03IOFIKPDN@Thu?$AA@  100475f4     LIBCMT:nlsdata.obj
 0002:000005f8       ??_C@_03IDIOELNC@Fri?$AA@  100475f8     LIBCMT:nlsdata.obj
 0002:000005fc       ??_C@_03FEFJNEK@Sat?$AA@   100475fc     LIBCMT:nlsdata.obj
 0002:00000600       ??_C@_06OOPIFAJ@Sunday?$AA@ 10047600     LIBCMT:nlsdata.obj
 0002:00000608       ??_C@_06JLEDEDGH@Monday?$AA@ 10047608     LIBCMT:nlsdata.obj
 0002:00000610       ??_C@_07BAAGCFCM@Tuesday?$AA@ 10047610     LIBCMT:nlsdata.obj
 0002:00000618       ??_C@_09DLIGFAKA@Wednesday?$AA@ 10047618     LIBCMT:nlsdata.obj
 0002:00000624       ??_C@_08HACCIKIA@Thursday?$AA@ 10047624     LIBCMT:nlsdata.obj
 0002:00000630       ??_C@_06JECMNKMI@Friday?$AA@ 10047630     LIBCMT:nlsdata.obj
 0002:00000638       ??_C@_08INBOOONO@Saturday?$AA@ 10047638     LIBCMT:nlsdata.obj
 0002:00000644       ??_C@_03JIHJHPIE@Jan?$AA@  10047644     LIBCMT:nlsdata.obj
 0002:00000648       ??_C@_03HJBDCHOM@Feb?$AA@  10047648     LIBCMT:nlsdata.obj
 0002:0000064c       ??_C@_03ODNJBKGA@Mar?$AA@  1004764c     LIBCMT:nlsdata.obj
 0002:00000650       ??_C@_03LEOLGMJP@Apr?$AA@  10047650     LIBCMT:nlsdata.obj
 0002:00000654       ??_C@_03CNMDKL@May?$AA@    10047654     LIBCMT:nlsdata.obj
 0002:00000658       ??_C@_03IDFGHECI@Jun?$AA@  10047658     LIBCMT:nlsdata.obj
 0002:0000065c       ??_C@_03LBGABGKK@Jul?$AA@  1004765c     LIBCMT:nlsdata.obj
 0002:00000660       ??_C@_03IFJFEIGA@Aug?$AA@  10047660     LIBCMT:nlsdata.obj
 0002:00000664       ??_C@_03GGCAPAJC@Sep?$AA@  10047664     LIBCMT:nlsdata.obj
 0002:00000668       ??_C@_03BMAOKBAD@Oct?$AA@  10047668     LIBCMT:nlsdata.obj
 0002:0000066c       ??_C@_03JPJOFNIA@Nov?$AA@  1004766c     LIBCMT:nlsdata.obj
 0002:00000670       ??_C@_03MKABNOCG@Dec?$AA@  10047670     LIBCMT:nlsdata.obj
 0002:00000674       ??_C@_07CGJPFGJA@January?$AA@ 10047674     LIBCMT:nlsdata.obj
 0002:0000067c       ??_C@_08GNJGEPFN@February?$AA@ 1004767c     LIBCMT:nlsdata.obj
 0002:00000688       ??_C@_05HPCKOFNC@March?$AA@ 10047688     LIBCMT:nlsdata.obj
 0002:00000690       ??_C@_05DMJDNLEJ@April?$AA@ 10047690     LIBCMT:nlsdata.obj
 0002:00000698       ??_C@_04CNLMGBGM@June?$AA@ 10047698     LIBCMT:nlsdata.obj
 0002:000006a0       ??_C@_04MIEPOIFP@July?$AA@ 100476a0     LIBCMT:nlsdata.obj
 0002:000006a8       ??_C@_06LBBHFDDG@August?$AA@ 100476a8     LIBCMT:nlsdata.obj
 0002:000006b0       ??_C@_09BHHEALKD@September?$AA@ 100476b0     LIBCMT:nlsdata.obj
 0002:000006bc       ??_C@_07JJNFCEND@October?$AA@ 100476bc     LIBCMT:nlsdata.obj
 0002:000006c4       ??_C@_08HCHEGEOA@November?$AA@ 100476c4     LIBCMT:nlsdata.obj
 0002:000006d0       ??_C@_08EDHMEBNP@December?$AA@ 100476d0     LIBCMT:nlsdata.obj
 0002:000006dc       ??_C@_02DEDBPAFC@AM?$AA@   100476dc     LIBCMT:nlsdata.obj
 0002:000006e0       ??_C@_02CJNFDJBF@PM?$AA@   100476e0     LIBCMT:nlsdata.obj
 0002:000006e4       ??_C@_08BPBNCDIB@MM?1dd?1yy?$AA@ 100476e4     LIBCMT:nlsdata.obj
 0002:000006f0       ??_C@_0BE@CKGJFCPC@dddd?0?5MMMM?5dd?0?5yyyy?$AA@ 100476f0     LIBCMT:nlsdata.obj
 0002:00000704       ??_C@_08JCCMCCIL@HH?3mm?3ss?$AA@ 10047704     LIBCMT:nlsdata.obj
 0002:00000710       ??_C@_17MBGCMIPB@?$AAS?$AAu?$AAn?$AA?$AA@ 10047710     LIBCMT:nlsdata.obj
 0002:00000718       ??_C@_17KBOMKBF@?$AAM?$AAo?$AAn?$AA?$AA@ 10047718     LIBCMT:nlsdata.obj
 0002:00000720       ??_C@_17BMKGEGOJ@?$AAT?$AAu?$AAe?$AA?$AA@ 10047720     LIBCMT:nlsdata.obj
 0002:00000728       ??_C@_17CJEDCEPE@?$AAW?$AAe?$AAd?$AA?$AA@ 10047728     LIBCMT:nlsdata.obj
 0002:00000730       ??_C@_17PDPHAADD@?$AAT?$AAh?$AAu?$AA?$AA@ 10047730     LIBCMT:nlsdata.obj
 0002:00000738       ??_C@_17HFOLPPLP@?$AAF?$AAr?$AAi?$AA?$AA@ 10047738     LIBCMT:nlsdata.obj
 0002:00000740       ??_C@_17GGIBDPIH@?$AAS?$AAa?$AAt?$AA?$AA@ 10047740     LIBCMT:nlsdata.obj
 0002:00000748       ??_C@_1O@IHNHDHPB@?$AAS?$AAu?$AAn?$AAd?$AAa?$AAy?$AA?$AA@ 10047748     LIBCMT:nlsdata.obj
 0002:00000758       ??_C@_1O@MMNBFLIA@?$AAM?$AAo?$AAn?$AAd?$AAa?$AAy?$AA?$AA@ 10047758     LIBCMT:nlsdata.obj
 0002:00000768       ??_C@_1BA@ENFBFFEK@?$AAT?$AAu?$AAe?$AAs?$AAd?$AAa?$AAy?$AA?$AA@ 10047768     LIBCMT:nlsdata.obj
 0002:00000778       ??_C@_1BE@EBOGMDOH@?$AAW?$AAe?$AAd?$AAn?$AAe?$AAs?$AAd?$AAa?$AAy?$AA?$AA@ 10047778     LIBCMT:nlsdata.obj
 0002:0000078c       ??_C@_1BC@HHMNLIHE@?$AAT?$AAh?$AAu?$AAr?$AAs?$AAd?$AAa?$AAy?$AA?$AA@ 1004778c     LIBCMT:nlsdata.obj
 0002:000007a0       ??_C@_1O@PDICJHAG@?$AAF?$AAr?$AAi?$AAd?$AAa?$AAy?$AA?$AA@ 100477a0     LIBCMT:nlsdata.obj
 0002:000007b0       ??_C@_1BC@ENMNNPAJ@?$AAS?$AAa?$AAt?$AAu?$AAr?$AAd?$AAa?$AAy?$AA?$AA@ 100477b0     LIBCMT:nlsdata.obj
 0002:000007c4       ??_C@_17DKNBKCHM@?$AAJ?$AAa?$AAn?$AA?$AA@ 100477c4     LIBCMT:nlsdata.obj
 0002:000007cc       ??_C@_17LMDJEKJN@?$AAF?$AAe?$AAb?$AA?$AA@ 100477cc     LIBCMT:nlsdata.obj
 0002:000007d4       ??_C@_17CKNLEDEC@?$AAM?$AAa?$AAr?$AA?$AA@ 100477d4     LIBCMT:nlsdata.obj
 0002:000007dc       ??_C@_17LFPOIHDD@?$AAA?$AAp?$AAr?$AA?$AA@ 100477dc     LIBCMT:nlsdata.obj
 0002:000007e4       ??_C@_17PNNKMEED@?$AAM?$AAa?$AAy?$AA?$AA@ 100477e4     LIBCMT:nlsdata.obj
 0002:000007ec       ??_C@_17KCJGOCPB@?$AAJ?$AAu?$AAn?$AA?$AA@ 100477ec     LIBCMT:nlsdata.obj
 0002:000007f4       ??_C@_17IJPCKHK@?$AAJ?$AAu?$AAl?$AA?$AA@ 100477f4     LIBCMT:nlsdata.obj
 0002:000007fc       ??_C@_17ICPELBCN@?$AAA?$AAu?$AAg?$AA?$AA@ 100477fc     LIBCMT:nlsdata.obj
 0002:00000804       ??_C@_17HCHCOKMG@?$AAS?$AAe?$AAp?$AA?$AA@ 10047804     LIBCMT:nlsdata.obj
 0002:0000080c       ??_C@_17FNLKOI@?$AAO?$AAc?$AAt?$AA?$AA@ 1004780c     LIBCMT:nlsdata.obj
 0002:00000814       ??_C@_17BBDMLCIG@?$AAN?$AAo?$AAv?$AA?$AA@ 10047814     LIBCMT:nlsdata.obj
 0002:0000081c       ??_C@_17EGKACKIF@?$AAD?$AAe?$AAc?$AA?$AA@ 1004781c     LIBCMT:nlsdata.obj
 0002:00000824       ??_C@_1BA@EFMEIEBA@?$AAJ?$AAa?$AAn?$AAu?$AAa?$AAr?$AAy?$AA?$AA@ 10047824     LIBCMT:nlsdata.obj
 0002:00000834       ??_C@_1BC@JGDDFFAM@?$AAF?$AAe?$AAb?$AAr?$AAu?$AAa?$AAr?$AAy?$AA?$AA@ 10047834     LIBCMT:nlsdata.obj
 0002:00000848       ??_C@_1M@IKEENEDF@?$AAM?$AAa?$AAr?$AAc?$AAh?$AA?$AA@ 10047848     LIBCMT:nlsdata.obj
 0002:00000854       ??_C@_1M@GJNLMHFD@?$AAA?$AAp?$AAr?$AAi?$AAl?$AA?$AA@ 10047854     LIBCMT:nlsdata.obj
 0002:00000860       ??_C@_19EPFLPGAP@?$AAJ?$AAu?$AAn?$AAe?$AA?$AA@ 10047860     LIBCMT:nlsdata.obj
 0002:0000086c       ??_C@_19BIFMLPCD@?$AAJ?$AAu?$AAl?$AAy?$AA?$AA@ 1004786c     LIBCMT:nlsdata.obj
 0002:00000878       ??_C@_1O@PAHLKOAC@?$AAA?$AAu?$AAg?$AAu?$AAs?$AAt?$AA?$AA@ 10047878     LIBCMT:nlsdata.obj
 0002:00000888       ??_C@_1BE@DKAAMBJL@?$AAS?$AAe?$AAp?$AAt?$AAe?$AAm?$AAb?$AAe?$AAr?$AA?$AA@ 10047888     LIBCMT:nlsdata.obj
 0002:0000089c       ??_C@_1BA@EPANDLNG@?$AAO?$AAc?$AAt?$AAo?$AAb?$AAe?$AAr?$AA?$AA@ 1004789c     LIBCMT:nlsdata.obj
 0002:000008ac       ??_C@_1BC@BGLIFPF@?$AAN?$AAo?$AAv?$AAe?$AAm?$AAb?$AAe?$AAr?$AA?$AA@ 100478ac     LIBCMT:nlsdata.obj
 0002:000008c0       ??_C@_1BC@FEMKIFH@?$AAD?$AAe?$AAc?$AAe?$AAm?$AAb?$AAe?$AAr?$AA?$AA@ 100478c0     LIBCMT:nlsdata.obj
 0002:000008d4       ??_C@_15ODEHAHHF@?$AAA?$AAM?$AA?$AA@ 100478d4     LIBCMT:nlsdata.obj
 0002:000008dc       ??_C@_15CLMNNGEL@?$AAP?$AAM?$AA?$AA@ 100478dc     LIBCMT:nlsdata.obj
 0002:000008e4       ??_C@_1BC@IEBCMHCM@?$AAM?$AAM?$AA?1?$AAd?$AAd?$AA?1?$AAy?$AAy?$AA?$AA@ 100478e4     LIBCMT:nlsdata.obj
 0002:000008f8       ??_C@_1CI@KNAKOEBC@?$AAd?$AAd?$AAd?$AAd?$AA?0?$AA?5?$AAM?$AAM?$AAM?$AAM?$AA?5?$AAd?$AAd?$AA?0?$AA?5?$AAy?$AAy?$AAy?$AAy?$AA?$AA@ 100478f8     LIBCMT:nlsdata.obj
 0002:00000920       ??_C@_1BC@GDGBMEMK@?$AAH?$AAH?$AA?3?$AAm?$AAm?$AA?3?$AAs?$AAs?$AA?$AA@ 10047920     LIBCMT:nlsdata.obj
 0002:00000934       ??_C@_1M@BMHNFIME@?$AAe?$AAn?$AA?9?$AAU?$AAS?$AA?$AA@ 10047934     LIBCMT:nlsdata.obj
 0002:000009c0       ??_C@_1BK@MGMFAEKH@?$AAk?$AAe?$AAr?$AAn?$AAe?$AAl?$AA3?$AA2?$AA?4?$AAd?$AAl?$AAl?$AA?$AA@ 100479c0     LIBCMT:winapisupp.obj
 0002:000009dc       ??_C@_08KNHFBNJ@FlsAlloc?$AA@ 100479dc     LIBCMT:winapisupp.obj
 0002:000009e8       ??_C@_07PEJMOBNF@FlsFree?$AA@ 100479e8     LIBCMT:winapisupp.obj
 0002:000009f0       ??_C@_0M@GDNOONDI@FlsGetValue?$AA@ 100479f0     LIBCMT:winapisupp.obj
 0002:000009fc       ??_C@_0M@JCPCPOEF@FlsSetValue?$AA@ 100479fc     LIBCMT:winapisupp.obj
 0002:00000a08       ??_C@_0BM@HCFOFFN@InitializeCriticalSectionEx?$AA@ 10047a08     LIBCMT:winapisupp.obj
 0002:00000a24       ??_C@_0P@DLHPPCNH@CreateEventExW?$AA@ 10047a24     LIBCMT:winapisupp.obj
 0002:00000a34       ??_C@_0BD@KIEEOEEH@CreateSemaphoreExW?$AA@ 10047a34     LIBCMT:winapisupp.obj
 0002:00000a48       ??_C@_0BI@BKLFFAPO@SetThreadStackGuarantee?$AA@ 10047a48     LIBCMT:winapisupp.obj
 0002:00000a60       ??_C@_0BG@OGFAJCKC@CreateThreadpoolTimer?$AA@ 10047a60     LIBCMT:winapisupp.obj
 0002:00000a78       ??_C@_0BD@LPLEMMDI@SetThreadpoolTimer?$AA@ 10047a78     LIBCMT:winapisupp.obj
 0002:00000a8c       ??_C@_0CA@FMNJENH@WaitForThreadpoolTimerCallbacks?$AA@ 10047a8c     LIBCMT:winapisupp.obj
 0002:00000aac       ??_C@_0BF@DCFCCNOC@CloseThreadpoolTimer?$AA@ 10047aac     LIBCMT:winapisupp.obj
 0002:00000ac4       ??_C@_0BF@FLABGKKM@CreateThreadpoolWait?$AA@ 10047ac4     LIBCMT:winapisupp.obj
 0002:00000adc       ??_C@_0BC@MGCOHNA@SetThreadpoolWait?$AA@ 10047adc     LIBCMT:winapisupp.obj
 0002:00000af0       ??_C@_0BE@OCIOMIMP@CloseThreadpoolWait?$AA@ 10047af0     LIBCMT:winapisupp.obj
 0002:00000b04       ??_C@_0BJ@LKGHFHBO@FlushProcessWriteBuffers?$AA@ 10047b04     LIBCMT:winapisupp.obj
 0002:00000b20       ??_C@_0BP@KALKKPMO@FreeLibraryWhenCallbackReturns?$AA@ 10047b20     LIBCMT:winapisupp.obj
 0002:00000b40       ??_C@_0BK@DFNBACLA@GetCurrentProcessorNumber?$AA@ 10047b40     LIBCMT:winapisupp.obj
 0002:00000b5c       ??_C@_0BP@KHGALBC@GetLogicalProcessorInformation?$AA@ 10047b5c     LIBCMT:winapisupp.obj
 0002:00000b7c       ??_C@_0BE@FKKLLFLM@CreateSymbolicLinkW?$AA@ 10047b7c     LIBCMT:winapisupp.obj
 0002:00000b90       ??_C@_0BJ@OHNKDLIJ@SetDefaultDllDirectories?$AA@ 10047b90     LIBCMT:winapisupp.obj
 0002:00000bac       ??_C@_0BE@LJANKFHF@EnumSystemLocalesEx?$AA@ 10047bac     LIBCMT:winapisupp.obj
 0002:00000bc0       ??_C@_0BA@IHGNDAEB@CompareStringEx?$AA@ 10047bc0     LIBCMT:winapisupp.obj
 0002:00000bd0       ??_C@_0BA@EPCJIIPD@GetDateFormatEx?$AA@ 10047bd0     LIBCMT:winapisupp.obj
 0002:00000be0       ??_C@_0BA@ONOKGCMP@GetLocaleInfoEx?$AA@ 10047be0     LIBCMT:winapisupp.obj
 0002:00000bf0       ??_C@_0BA@CIJJKCJJ@GetTimeFormatEx?$AA@ 10047bf0     LIBCMT:winapisupp.obj
 0002:00000c00       ??_C@_0BJ@PBCCBIPI@GetUserDefaultLocaleName?$AA@ 10047c00     LIBCMT:winapisupp.obj
 0002:00000c1c       ??_C@_0BC@CELBKLLA@IsValidLocaleName?$AA@ 10047c1c     LIBCMT:winapisupp.obj
 0002:00000c30       ??_C@_0O@KKBNKAPF@LCMapStringEx?$AA@ 10047c30     LIBCMT:winapisupp.obj
 0002:00000c40       ??_C@_0BE@JOGNEJCI@GetCurrentPackageId?$AA@ 10047c40     LIBCMT:winapisupp.obj
 0002:00000c54       ??_C@_0P@CDHHOHKP@GetTickCount64?$AA@ 10047c54     LIBCMT:winapisupp.obj
 0002:00000c64       ??_C@_0BO@KPCLFDJJ@GetFileInformationByHandleExW?$AA@ 10047c64     LIBCMT:winapisupp.obj
 0002:00000c84       ??_C@_0BM@MHIDLABK@SetFileInformationByHandleW?$AA@ 10047c84     LIBCMT:winapisupp.obj
 0002:00000ca0       __XcptActTab               10047ca0     LIBCMT:winxfltr.obj
 0002:00000d30       __XcptActTabCount          10047d30     LIBCMT:winxfltr.obj
 0002:00000d34       __XcptActTabSize           10047d34     LIBCMT:winxfltr.obj
 0002:00000d38       __First_FPE_Indx           10047d38     LIBCMT:winxfltr.obj
 0002:00000d3c       __Num_FPE                  10047d3c     LIBCMT:winxfltr.obj
 0002:00000df8       ??_C@_1FK@PGACCAFB@?$AAR?$AA6?$AA0?$AA0?$AA2?$AA?$AN?$AA?6?$AA?9?$AA?5?$AAf?$AAl?$AAo?$AAa?$AAt?$AAi?$AAn?$AAg?$AA?5?$AAp?$AAo?$AAi?$AAn?$AAt?$AA?5?$AAs?$AAu?$AAp?$AAp?$AAo?$AAr?$AAt?$AA?5@ 10047df8     LIBCMT:crt0msg.obj
 0002:00000e58       ??_C@_1FE@LLNEDJMD@?$AAR?$AA6?$AA0?$AA0?$AA8?$AA?$AN?$AA?6?$AA?9?$AA?5?$AAn?$AAo?$AAt?$AA?5?$AAe?$AAn?$AAo?$AAu?$AAg?$AAh?$AA?5?$AAs?$AAp?$AAa?$AAc?$AAe?$AA?5?$AAf?$AAo?$AAr?$AA?5?$AAa?$AAr@ 10047e58     LIBCMT:crt0msg.obj
 0002:00000eb0       ??_C@_1FI@HONFMGBI@?$AAR?$AA6?$AA0?$AA0?$AA9?$AA?$AN?$AA?6?$AA?9?$AA?5?$AAn?$AAo?$AAt?$AA?5?$AAe?$AAn?$AAo?$AAu?$AAg?$AAh?$AA?5?$AAs?$AAp?$AAa?$AAc?$AAe?$AA?5?$AAf?$AAo?$AAr?$AA?5?$AAe?$AAn@ 10047eb0     LIBCMT:crt0msg.obj
 0002:00000f08       ??_C@_1EG@BEHAGFJD@?$AAR?$AA6?$AA0?$AA1?$AA0?$AA?$AN?$AA?6?$AA?9?$AA?5?$AAa?$AAb?$AAo?$AAr?$AAt?$AA?$CI?$AA?$CJ?$AA?5?$AAh?$AAa?$AAs?$AA?5?$AAb?$AAe?$AAe?$AAn?$AA?5?$AAc?$AAa?$AAl?$AAl?$AAe?$AAd@ 10047f08     LIBCMT:crt0msg.obj
 0002:00000f50       ??_C@_1FI@LOGNIKDM@?$AAR?$AA6?$AA0?$AA1?$AA6?$AA?$AN?$AA?6?$AA?9?$AA?5?$AAn?$AAo?$AAt?$AA?5?$AAe?$AAn?$AAo?$AAu?$AAg?$AAh?$AA?5?$AAs?$AAp?$AAa?$AAc?$AAe?$AA?5?$AAf?$AAo?$AAr?$AA?5?$AAt?$AAh@ 10047f50     LIBCMT:crt0msg.obj
 0002:00000fa8       ??_C@_1FK@BEOGODMC@?$AAR?$AA6?$AA0?$AA1?$AA7?$AA?$AN?$AA?6?$AA?9?$AA?5?$AAu?$AAn?$AAe?$AAx?$AAp?$AAe?$AAc?$AAt?$AAe?$AAd?$AA?5?$AAm?$AAu?$AAl?$AAt?$AAi?$AAt?$AAh?$AAr?$AAe?$AAa?$AAd?$AA?5@ 10047fa8     LIBCMT:crt0msg.obj
 0002:00001008       ??_C@_1EC@JIBHAOPH@?$AAR?$AA6?$AA0?$AA1?$AA8?$AA?$AN?$AA?6?$AA?9?$AA?5?$AAu?$AAn?$AAe?$AAx?$AAp?$AAe?$AAc?$AAt?$AAe?$AAd?$AA?5?$AAh?$AAe?$AAa?$AAp?$AA?5?$AAe?$AAr?$AAr?$AAo?$AAr?$AA?$AN?$AA?6@ 10048008     LIBCMT:crt0msg.obj
 0002:00001050       ??_C@_1FC@ECHBIFBC@?$AAR?$AA6?$AA0?$AA1?$AA9?$AA?$AN?$AA?6?$AA?9?$AA?5?$AAu?$AAn?$AAa?$AAb?$AAl?$AAe?$AA?5?$AAt?$AAo?$AA?5?$AAo?$AAp?$AAe?$AAn?$AA?5?$AAc?$AAo?$AAn?$AAs?$AAo?$AAl?$AAe?$AA?5@ 10048050     LIBCMT:crt0msg.obj
 0002:000010a8       ??_C@_1GK@FHCKBEFA@?$AAR?$AA6?$AA0?$AA2?$AA4?$AA?$AN?$AA?6?$AA?9?$AA?5?$AAn?$AAo?$AAt?$AA?5?$AAe?$AAn?$AAo?$AAu?$AAg?$AAh?$AA?5?$AAs?$AAp?$AAa?$AAc?$AAe?$AA?5?$AAf?$AAo?$AAr?$AA?5?$AA_?$AAo@ 100480a8     LIBCMT:crt0msg.obj
 0002:00001118       ??_C@_1EM@MAADIHMB@?$AAR?$AA6?$AA0?$AA2?$AA5?$AA?$AN?$AA?6?$AA?9?$AA?5?$AAp?$AAu?$AAr?$AAe?$AA?5?$AAv?$AAi?$AAr?$AAt?$AAu?$AAa?$AAl?$AA?5?$AAf?$AAu?$AAn?$AAc?$AAt?$AAi?$AAo?$AAn?$AA?5?$AAc@ 10048118     LIBCMT:crt0msg.obj
 0002:00001168       ??_C@_1GK@MCAAGJMO@?$AAR?$AA6?$AA0?$AA2?$AA6?$AA?$AN?$AA?6?$AA?9?$AA?5?$AAn?$AAo?$AAt?$AA?5?$AAe?$AAn?$AAo?$AAu?$AAg?$AAh?$AA?5?$AAs?$AAp?$AAa?$AAc?$AAe?$AA?5?$AAf?$AAo?$AAr?$AA?5?$AAs?$AAt@ 10048168     LIBCMT:crt0msg.obj
 0002:000011d8       ??_C@_1GK@MFGOKLAG@?$AAR?$AA6?$AA0?$AA2?$AA7?$AA?$AN?$AA?6?$AA?9?$AA?5?$AAn?$AAo?$AAt?$AA?5?$AAe?$AAn?$AAo?$AAu?$AAg?$AAh?$AA?5?$AAs?$AAp?$AAa?$AAc?$AAe?$AA?5?$AAf?$AAo?$AAr?$AA?5?$AAl?$AAo@ 100481d8     LIBCMT:crt0msg.obj
 0002:00001248       ??_C@_1EK@HHFLMAOL@?$AAR?$AA6?$AA0?$AA2?$AA8?$AA?$AN?$AA?6?$AA?9?$AA?5?$AAu?$AAn?$AAa?$AAb?$AAl?$AAe?$AA?5?$AAt?$AAo?$AA?5?$AAi?$AAn?$AAi?$AAt?$AAi?$AAa?$AAl?$AAi?$AAz?$AAe?$AA?5?$AAh?$AAe@ 10048248     LIBCMT:crt0msg.obj
 0002:00001294       ??_C@_1DO@BMFCDCD@?$AAR?$AA6?$AA0?$AA3?$AA0?$AA?$AN?$AA?6?$AA?9?$AA?5?$AAC?$AAR?$AAT?$AA?5?$AAn?$AAo?$AAt?$AA?5?$AAi?$AAn?$AAi?$AAt?$AAi?$AAa?$AAl?$AAi?$AAz?$AAe?$AAd?$AA?$AN?$AA?6?$AA?$AA@ 10048294     LIBCMT:crt0msg.obj
 0002:000012d8       ??_C@_1MG@ENCOOIDF@?$AAR?$AA6?$AA0?$AA3?$AA1?$AA?$AN?$AA?6?$AA?9?$AA?5?$AAA?$AAt?$AAt?$AAe?$AAm?$AAp?$AAt?$AA?5?$AAt?$AAo?$AA?5?$AAi?$AAn?$AAi?$AAt?$AAi?$AAa?$AAl?$AAi?$AAz?$AAe?$AA?5?$AAt@ 100482d8     LIBCMT:crt0msg.obj
 0002:000013a0       ??_C@_1GG@GOPILAJP@?$AAR?$AA6?$AA0?$AA3?$AA2?$AA?$AN?$AA?6?$AA?9?$AA?5?$AAn?$AAo?$AAt?$AA?5?$AAe?$AAn?$AAo?$AAu?$AAg?$AAh?$AA?5?$AAs?$AAp?$AAa?$AAc?$AAe?$AA?5?$AAf?$AAo?$AAr?$AA?5?$AAl?$AAo@ 100483a0     LIBCMT:crt0msg.obj
 0002:00001408       ??_C@_1BOO@KGEDBGAJ@?$AAR?$AA6?$AA0?$AA3?$AA3?$AA?$AN?$AA?6?$AA?9?$AA?5?$AAA?$AAt?$AAt?$AAe?$AAm?$AAp?$AAt?$AA?5?$AAt?$AAo?$AA?5?$AAu?$AAs?$AAe?$AA?5?$AAM?$AAS?$AAI?$AAL?$AA?5?$AAc?$AAo?$AAd@ 10048408     LIBCMT:crt0msg.obj
 0002:000015f8       ??_C@_1GG@MKFPEKFO@?$AAR?$AA6?$AA0?$AA3?$AA4?$AA?$AN?$AA?6?$AA?9?$AA?5?$AAi?$AAn?$AAc?$AAo?$AAn?$AAs?$AAi?$AAs?$AAt?$AAe?$AAn?$AAt?$AA?5?$AAo?$AAn?$AAe?$AAx?$AAi?$AAt?$AA?5?$AAb?$AAe?$AAg@ 100485f8     LIBCMT:crt0msg.obj
 0002:00001660       ??_C@_1BO@BFCDCGC@?$AAD?$AAO?$AAM?$AAA?$AAI?$AAN?$AA?5?$AAe?$AAr?$AAr?$AAo?$AAr?$AA?$AN?$AA?6?$AA?$AA@ 10048660     LIBCMT:crt0msg.obj
 0002:00001680       ??_C@_1BK@KMOMNAAI@?$AAS?$AAI?$AAN?$AAG?$AA?5?$AAe?$AAr?$AAr?$AAo?$AAr?$AA?$AN?$AA?6?$AA?$AA@ 10048680     LIBCMT:crt0msg.obj
 0002:0000169c       ??_C@_1BM@JBBEPPHI@?$AAT?$AAL?$AAO?$AAS?$AAS?$AA?5?$AAe?$AAr?$AAr?$AAo?$AAr?$AA?$AN?$AA?6?$AA?$AA@ 1004869c     LIBCMT:crt0msg.obj
 0002:000016b8       ??_C@_15JNBOKNOG@?$AA?$AN?$AA?6?$AA?$AA@ 100486b8     LIBCMT:crt0msg.obj
 0002:000016c0       ??_C@_1BO@BKOMIGKJ@?$AAr?$AAu?$AAn?$AAt?$AAi?$AAm?$AAe?$AA?5?$AAe?$AAr?$AAr?$AAo?$AAr?$AA?5?$AA?$AA@ 100486c0     LIBCMT:crt0msg.obj
 0002:000016e0       ??_C@_1DE@JNGNBFGO@?$AAR?$AAu?$AAn?$AAt?$AAi?$AAm?$AAe?$AA?5?$AAE?$AAr?$AAr?$AAo?$AAr?$AA?$CB?$AA?6?$AA?6?$AAP?$AAr?$AAo?$AAg?$AAr?$AAa?$AAm?$AA?3?$AA?5?$AA?$AA@ 100486e0     LIBCMT:crt0msg.obj
 0002:00001714       ??_C@_1CO@EAEJAADC@?$AA?$DM?$AAp?$AAr?$AAo?$AAg?$AAr?$AAa?$AAm?$AA?5?$AAn?$AAa?$AAm?$AAe?$AA?5?$AAu?$AAn?$AAk?$AAn?$AAo?$AAw?$AAn?$AA?$DO?$AA?$AA@ 10048714     LIBCMT:crt0msg.obj
 0002:00001744       ??_C@_17LGKOMLJ@?$AA?4?$AA?4?$AA?4?$AA?$AA@ 10048744     LIBCMT:crt0msg.obj
 0002:0000174c       ??_C@_15IABLJNFO@?$AA?6?$AA?6?$AA?$AA@ 1004874c     LIBCMT:crt0msg.obj
 0002:00001758       ??_C@_1EK@MBDPDCGA@?$AAM?$AAi?$AAc?$AAr?$AAo?$AAs?$AAo?$AAf?$AAt?$AA?5?$AAV?$AAi?$AAs?$AAu?$AAa?$AAl?$AA?5?$AAC?$AA?$CL?$AA?$CL?$AA?5?$AAR?$AAu?$AAn?$AAt?$AAi?$AAm?$AAe?$AA?5?$AAL?$AAi?$AAb@ 10048758     LIBCMT:crt0msg.obj
 0002:000017a8       ___lookuptable_s           100487a8     LIBCMT:outputs.obj
 0002:00001994       ??_C@_08EHJDFFNH@__based?$CI?$AA@ 10048994     LIBCMT:undname.obj
 0002:000019a0       ??_C@_07KOLFKCDI@__cdecl?$AA@ 100489a0     LIBCMT:undname.obj
 0002:000019a8       ??_C@_08GHMPAG@__pascal?$AA@ 100489a8     LIBCMT:undname.obj
 0002:000019b4       ??_C@_09IFJBGAPI@__stdcall?$AA@ 100489b4     LIBCMT:undname.obj
 0002:000019c0       ??_C@_0L@NPHFGOKO@__thiscall?$AA@ 100489c0     LIBCMT:undname.obj
 0002:000019cc       ??_C@_0L@JMKHOMEK@__fastcall?$AA@ 100489cc     LIBCMT:undname.obj
 0002:000019d8       ??_C@_0N@BCKKPABJ@__vectorcall?$AA@ 100489d8     LIBCMT:undname.obj
 0002:000019e8       ??_C@_09HIJEGCPM@__clrcall?$AA@ 100489e8     LIBCMT:undname.obj
 0002:000019f4       ??_C@_06GHPCKEAG@__eabi?$AA@ 100489f4     LIBCMT:undname.obj
 0002:000019fc       ??_C@_07JOMMBBKO@__ptr64?$AA@ 100489fc     LIBCMT:undname.obj
 0002:00001a04       ??_C@_0L@PILCLIHE@__restrict?$AA@ 10048a04     LIBCMT:undname.obj
 0002:00001a10       ??_C@_0M@GFIIJFMG@__unaligned?$AA@ 10048a10     LIBCMT:undname.obj
 0002:00001a1c       ??_C@_09DHDLOLLB@restrict?$CI?$AA@ 10048a1c     LIBCMT:undname.obj
 0002:00001a28       ??_C@_04NIHEBCM@?5new?$AA@ 10048a28     LIBCMT:undname.obj
 0002:00001a30       ??_C@_07FPCDHGMM@?5delete?$AA@ 10048a30     LIBCMT:undname.obj
 0002:00001a38       ??_C@_01NEMOKFLO@?$DN?$AA@ 10048a38     LIBCMT:undname.obj
 0002:00001a3c       ??_C@_02GPIOPFAK@?$DO?$DO?$AA@ 10048a3c     LIBCMT:undname.obj
 0002:00001a40       ??_C@_02FODMEDOG@?$DM?$DM?$AA@ 10048a40     LIBCMT:undname.obj
 0002:00001a44       ??_C@_01DCLJPIOD@?$CB?$AA@ 10048a44     LIBCMT:undname.obj
 0002:00001a48       ??_C@_02EGOFBIJA@?$DN?$DN?$AA@ 10048a48     LIBCMT:undname.obj
 0002:00001a4c       ??_C@_02FDNJECIE@?$CB?$DN?$AA@ 10048a4c     LIBCMT:undname.obj
 0002:00001a50       ??_C@_02GPECMEKF@?$FL?$FN?$AA@ 10048a50     LIBCMT:undname.obj
 0002:00001a54       ??_C@_08LHJFAFGD@operator?$AA@ 10048a54     LIBCMT:undname.obj
 0002:00001a60       ??_C@_02HBOOOICD@?9?$DO?$AA@ 10048a60     LIBCMT:undname.obj
 0002:00001a64       ??_C@_01NBENCBCI@?$CK?$AA@ 10048a64     LIBCMT:undname.obj
 0002:00001a68       ??_C@_02ECNGHCIF@?$CL?$CL?$AA@ 10048a68     LIBCMT:undname.obj
 0002:00001a6c       ??_C@_02BAABKJLB@?9?9?$AA@ 10048a6c     LIBCMT:undname.obj
 0002:00001a70       ??_C@_01JOAMLHOP@?9?$AA@   10048a70     LIBCMT:undname.obj
 0002:00001a74       ??_C@_01MIFGBAGJ@?$CL?$AA@ 10048a74     LIBCMT:undname.obj
 0002:00001a78       ??_C@_01HNPIGOCE@?$CG?$AA@ 10048a78     LIBCMT:undname.obj
 0002:00001a7c       ??_C@_03MNHNFDLC@?9?$DO?$CK?$AA@ 10048a7c     LIBCMT:undname.obj
 0002:00001a80       ??_C@_01KMDKNFGN@?1?$AA@   10048a80     LIBCMT:undname.obj
 0002:00001a84       ??_C@_01FGNFDNOH@?$CF?$AA@ 10048a84     LIBCMT:undname.obj
 0002:00001a88       ??_C@_01MNNFJEPP@?$DM?$AA@ 10048a88     LIBCMT:undname.obj
 0002:00001a8c       ??_C@_02EHCHHCKH@?$DM?$DN?$AA@ 10048a8c     LIBCMT:undname.obj
 0002:00001a90       ??_C@_01PPODPGHN@?$DO?$AA@ 10048a90     LIBCMT:undname.obj
 0002:00001a94       ??_C@_02EEKDKGMJ@?$DO?$DN?$AA@ 10048a94     LIBCMT:undname.obj
 0002:00001a98       ??_C@_01IHBHIGKO@?0?$AA@   10048a98     LIBCMT:undname.obj
 0002:00001a9c       ??_C@_02HCKGKOFO@?$CI?$CJ?$AA@ 10048a9c     LIBCMT:undname.obj
 0002:00001aa0       ??_C@_01PJKLJHI@?$HO?$AA@  10048aa0     LIBCMT:undname.obj
 0002:00001aa4       ??_C@_01JKBOJNNK@?$FO?$AA@ 10048aa4     LIBCMT:undname.obj
 0002:00001aa8       ??_C@_01DNKMNLPK@?$HM?$AA@ 10048aa8     LIBCMT:undname.obj
 0002:00001aac       ??_C@_02PPKAJPJL@?$CG?$CG?$AA@ 10048aac     LIBCMT:undname.obj
 0002:00001ab0       ??_C@_02NONPIBCD@?$HM?$HM?$AA@ 10048ab0     LIBCMT:undname.obj
 0002:00001ab4       ??_C@_02FPIMKNGF@?$CK?$DN?$AA@ 10048ab4     LIBCMT:undname.obj
 0002:00001ab8       ??_C@_02FOEOMHFC@?$CL?$DN?$AA@ 10048ab8     LIBCMT:undname.obj
 0002:00001abc       ??_C@_02FKMDLLOA@?9?$DN?$AA@ 10048abc     LIBCMT:undname.obj
 0002:00001ac0       ??_C@_02FJEHGPIO@?1?$DN?$AA@ 10048ac0     LIBCMT:undname.obj
 0002:00001ac4       ??_C@_02FENAOKFI@?$CF?$DN?$AA@ 10048ac4     LIBCMT:undname.obj
 0002:00001ac8       ??_C@_03IKFCCPFF@?$DO?$DO?$DN?$AA@ 10048ac8     LIBCMT:undname.obj
 0002:00001acc       ??_C@_03CDNPDDLA@?$DM?$DM?$DN?$AA@ 10048acc     LIBCMT:undname.obj
 0002:00001ad0       ??_C@_02FGJGFEAB@?$CG?$DN?$AA@ 10048ad0     LIBCMT:undname.obj
 0002:00001ad4       ??_C@_02DHLNPPGH@?$HM?$DN?$AA@ 10048ad4     LIBCMT:undname.obj
 0002:00001ad8       ??_C@_02MHEGNOJ@?$FO?$DN?$AA@ 10048ad8     LIBCMT:undname.obj
 0002:00001adc       ??_C@_09IFPLHPGF@?$GAvftable?8?$AA@ 10048adc     LIBCMT:undname.obj
 0002:00001ae8       ??_C@_09BLBHBJP@?$GAvbtable?8?$AA@ 10048ae8     LIBCMT:undname.obj
 0002:00001af4       ??_C@_07FEEIOKP@?$GAvcall?8?$AA@ 10048af4     LIBCMT:undname.obj
 0002:00001afc       ??_C@_08LLFFHHDJ@?$GAtypeof?8?$AA@ 10048afc     LIBCMT:undname.obj
 0002:00001b08       ??_C@_0BF@KDPPACIK@?$GAlocal?5static?5guard?8?$AA@ 10048b08     LIBCMT:undname.obj
 0002:00001b20       ??_C@_08OBABFOLI@?$GAstring?8?$AA@ 10048b20     LIBCMT:undname.obj
 0002:00001b2c       ??_C@_0BD@JDLKDPAB@?$GAvbase?5destructor?8?$AA@ 10048b2c     LIBCMT:undname.obj
 0002:00001b40       ??_C@_0BN@DEGPLNFK@?$GAvector?5deleting?5destructor?8?$AA@ 10048b40     LIBCMT:undname.obj
 0002:00001b60       ??_C@_0BO@OBMKPJIG@?$GAdefault?5constructor?5closure?8?$AA@ 10048b60     LIBCMT:undname.obj
 0002:00001b80       ??_C@_0BN@IMDCHIKM@?$GAscalar?5deleting?5destructor?8?$AA@ 10048b80     LIBCMT:undname.obj
 0002:00001ba0       ??_C@_0BO@PFGOCPJJ@?$GAvector?5constructor?5iterator?8?$AA@ 10048ba0     LIBCMT:undname.obj
 0002:00001bc0       ??_C@_0BN@LFPFMEDL@?$GAvector?5destructor?5iterator?8?$AA@ 10048bc0     LIBCMT:undname.obj
 0002:00001be0       ??_C@_0CE@IKBNEHA@?$GAvector?5vbase?5constructor?5iterat@ 10048be0     LIBCMT:undname.obj
 0002:00001c04       ??_C@_0BL@NILFHHPC@?$GAvirtual?5displacement?5map?8?$AA@ 10048c04     LIBCMT:undname.obj
 0002:00001c20       ??_C@_0CB@JONCMFFK@?$GAeh?5vector?5constructor?5iterator?8@ 10048c20     LIBCMT:undname.obj
 0002:00001c44       ??_C@_0CA@GCEOPDGL@?$GAeh?5vector?5destructor?5iterator?8?$AA@ 10048c44     LIBCMT:undname.obj
 0002:00001c64       ??_C@_0CH@OOJPLCPH@?$GAeh?5vector?5vbase?5constructor?5ite@ 10048c64     LIBCMT:undname.obj
 0002:00001c8c       ??_C@_0BL@LLKPOHJI@?$GAcopy?5constructor?5closure?8?$AA@ 10048c8c     LIBCMT:undname.obj
 0002:00001ca8       ??_C@_0BA@KBCDOMBN@?$GAudt?5returning?8?$AA@ 10048ca8     LIBCMT:undname.obj
 0002:00001cb8       ??_C@_03KLGMFNMG@?$GAEH?$AA@ 10048cb8     LIBCMT:undname.obj
 0002:00001cbc       ??_C@_05KHLCHHI@?$GARTTI?$AA@ 10048cbc     LIBCMT:undname.obj
 0002:00001cc4       ??_C@_0BA@KKLDJDLB@?$GAlocal?5vftable?8?$AA@ 10048cc4     LIBCMT:undname.obj
 0002:00001cd4       ??_C@_0CE@IIHCMGGL@?$GAlocal?5vftable?5constructor?5closu@ 10048cd4     LIBCMT:undname.obj
 0002:00001cf8       ??_C@_06FHBGPFGH@?5new?$FL?$FN?$AA@ 10048cf8     LIBCMT:undname.obj
 0002:00001d00       ??_C@_09LBNFPBCA@?5delete?$FL?$FN?$AA@ 10048d00     LIBCMT:undname.obj
 0002:00001d0c       ??_C@_0P@HJKNJFNN@?$GAomni?5callsig?8?$AA@ 10048d0c     LIBCMT:undname.obj
 0002:00001d1c       ??_C@_0BL@CNOONJFP@?$GAplacement?5delete?5closure?8?$AA@ 10048d1c     LIBCMT:undname.obj
 0002:00001d38       ??_C@_0BN@CKNJLHMB@?$GAplacement?5delete?$FL?$FN?5closure?8?$AA@ 10048d38     LIBCMT:undname.obj
 0002:00001d58       ??_C@_0CG@CFDHKGGD@?$GAmanaged?5vector?5constructor?5iter@ 10048d58     LIBCMT:undname.obj
 0002:00001d80       ??_C@_0CF@IMGKMJNO@?$GAmanaged?5vector?5destructor?5itera@ 10048d80     LIBCMT:undname.obj
 0002:00001da8       ??_C@_0CG@HLDDJMAG@?$GAeh?5vector?5copy?5constructor?5iter@ 10048da8     LIBCMT:undname.obj
 0002:00001dd0       ??_C@_0CM@FCBBDIGB@?$GAeh?5vector?5vbase?5copy?5constructo@ 10048dd0     LIBCMT:undname.obj
 0002:00001dfc       ??_C@_0BL@CLIPGLGB@?$GAdynamic?5initializer?5for?5?8?$AA@ 10048dfc     LIBCMT:undname.obj
 0002:00001e18       ??_C@_0CB@PDBIFEP@?$GAdynamic?5atexit?5destructor?5for?5?8@ 10048e18     LIBCMT:undname.obj
 0002:00001e3c       ??_C@_0CD@CGAJBKEJ@?$GAvector?5copy?5constructor?5iterato@ 10048e3c     LIBCMT:undname.obj
 0002:00001e60       ??_C@_0CJ@GJELGAMM@?$GAvector?5vbase?5copy?5constructor?5i@ 10048e60     LIBCMT:undname.obj
 0002:00001e8c       ??_C@_0CL@FGIJHLCE@?$GAmanaged?5vector?5copy?5constructor@ 10048e8c     LIBCMT:undname.obj
 0002:00001eb8       ??_C@_0BM@PMGGMLDN@?$GAlocal?5static?5thread?5guard?8?$AA@ 10048eb8     LIBCMT:undname.obj
 0002:00001ed4       ??_C@_0BC@DAFEJGAK@?5Type?5Descriptor?8?$AA@ 10048ed4     LIBCMT:undname.obj
 0002:00001ee8       ??_C@_0BM@LDKODKLH@?5Base?5Class?5Descriptor?5at?5?$CI?$AA@ 10048ee8     LIBCMT:undname.obj
 0002:00001f04       ??_C@_0BD@LGICGFMM@?5Base?5Class?5Array?8?$AA@ 10048f04     LIBCMT:undname.obj
 0002:00001f18       ??_C@_0BN@MECKDCOJ@?5Class?5Hierarchy?5Descriptor?8?$AA@ 10048f18     LIBCMT:undname.obj
 0002:00001f38       ??_C@_0BK@CFCOFLF@?5Complete?5Object?5Locator?8?$AA@ 10048f38     LIBCMT:undname.obj
 0002:00001f54       ??_C@_04HIBGFPH@NULL?$AA@  10048f54     LIBCMT:undname.obj
 0002:00001f60       ___newctype                10048f60     LIBCMT:ctype.obj
 0002:00002260       __wctype                   10049260     LIBCMT:ctype.obj
 0002:00002468       ___newclmap                10049468     LIBCMT:ctype.obj
 0002:000025e8       ___newcumap                100495e8     LIBCMT:ctype.obj
 0002:00002768       ??_C@_15PJPFLCCM@?$AAu?$AAk?$AA?$AA@ 10049768     LIBCMT:getqloc.obj
 0002:00002770       ___rg_language_count       10049770     LIBCMT:getqloc.obj
 0002:00002774       ___rg_country_count        10049774     LIBCMT:getqloc.obj
 0002:00002778       _LcidToLocaleNameTable     10049778     LIBCMT:winapinls.obj
 0002:00002e98       _LocaleNameToIndexTable    10049e98     LIBCMT:winapinls.obj
 0002:000035b8       ??_C@_15EMKDOKLE@?$AAa?$AAr?$AA?$AA@ 1004a5b8     LIBCMT:winapinls.obj
 0002:000035c0       ??_C@_15KNPADPLH@?$AAb?$AAg?$AA?$AA@ 1004a5c0     LIBCMT:winapinls.obj
 0002:000035c8       ??_C@_15EDMHLDMO@?$AAc?$AAa?$AA?$AA@ 1004a5c8     LIBCMT:winapinls.obj
 0002:000035d0       ??_C@_1O@BPEAJADD@?$AAz?$AAh?$AA?9?$AAC?$AAH?$AAS?$AA?$AA@ 1004a5d0     LIBCMT:winapinls.obj
 0002:000035e0       ??_C@_15LJNHCMNK@?$AAc?$AAs?$AA?$AA@ 1004a5e0     LIBCMT:winapinls.obj
 0002:000035e8       ??_C@_15FOMCIDHG@?$AAd?$AAa?$AA?$AA@ 1004a5e8     LIBCMT:winapinls.obj
 0002:000035f0       ??_C@_15NBKABECB@?$AAd?$AAe?$AA?$AA@ 1004a5f0     LIBCMT:winapinls.obj
 0002:000035f8       ??_C@_15GHPEIIAO@?$AAe?$AAl?$AA?$AA@ 1004a5f8     LIBCMT:winapinls.obj
 0002:00003600       ??_C@_15MNPNEAIF@?$AAe?$AAn?$AA?$AA@ 1004a600     LIBCMT:winapinls.obj
 0002:00003608       ??_C@_15GPIOMPMH@?$AAe?$AAs?$AA?$AA@ 1004a608     LIBCMT:winapinls.obj
 0002:00003610       ??_C@_15NGLOAKJC@?$AAf?$AAi?$AA?$AA@ 1004a610     LIBCMT:winapinls.obj
 0002:00003618       ??_C@_15FBKGNKAM@?$AAf?$AAr?$AA?$AA@ 1004a618     LIBCMT:winapinls.obj
 0002:00003620       ??_C@_15KGGCNEFK@?$AAh?$AAe?$AA?$AA@ 1004a620     LIBCMT:winapinls.obj
 0002:00003628       ??_C@_15PGHLIDMF@?$AAh?$AAu?$AA?$AA@ 1004a628     LIBCMT:winapinls.obj
 0002:00003630       ??_C@_15BIEMAPLM@?$AAi?$AAs?$AA?$AA@ 1004a630     LIBCMT:winapinls.obj
 0002:00003638       ??_C@_15IFJLDHAF@?$AAi?$AAt?$AA?$AA@ 1004a638     LIBCMT:winapinls.obj
 0002:00003640       ??_C@_15GEMIOCAG@?$AAj?$AAa?$AA?$AA@ 1004a640     LIBCMT:winapinls.obj
 0002:00003648       ??_C@_15EPELEGJA@?$AAk?$AAo?$AA?$AA@ 1004a648     LIBCMT:winapinls.obj
 0002:00003650       ??_C@_15NDDHIMN@?$AAn?$AAl?$AA?$AA@ 1004a650     LIBCMT:winapinls.obj
 0002:00003658       ??_C@_15BPIGNHCD@?$AAn?$AAo?$AA?$AA@ 1004a658     LIBCMT:winapinls.obj
 0002:00003660       ??_C@_15DEOPBLCG@?$AAp?$AAl?$AA?$AA@ 1004a660     LIBCMT:winapinls.obj
 0002:00003668       ??_C@_15KBECGEFG@?$AAp?$AAt?$AA?$AA@ 1004a668     LIBCMT:winapinls.obj
 0002:00003670       ??_C@_15GLJCBFMD@?$AAr?$AAo?$AA?$AA@ 1004a670     LIBCMT:winapinls.obj
 0002:00003678       ??_C@_15FEDGKCDI@?$AAr?$AAu?$AA?$AA@ 1004a678     LIBCMT:winapinls.obj
 0002:00003680       ??_C@_15GLKMLLHM@?$AAh?$AAr?$AA?$AA@ 1004a680     LIBCMT:winapinls.obj
 0002:00003688       ??_C@_15CPKMFBDB@?$AAs?$AAk?$AA?$AA@ 1004a688     LIBCMT:winapinls.obj
 0002:00003690       ??_C@_15BAAIOGMK@?$AAs?$AAq?$AA?$AA@ 1004a690     LIBCMT:winapinls.obj
 0002:00003698       ??_C@_15INNPNOHD@?$AAs?$AAv?$AA?$AA@ 1004a698     LIBCMT:winapinls.obj
 0002:000036a0       ??_C@_15CABMMOGH@?$AAt?$AAh?$AA?$AA@ 1004a6a0     LIBCMT:winapinls.obj
 0002:000036a8       ??_C@_15BPLIHJJM@?$AAt?$AAr?$AA?$AA@ 1004a6a8     LIBCMT:winapinls.obj
 0002:000036b0       ??_C@_15NEOEKKDJ@?$AAu?$AAr?$AA?$AA@ 1004a6b0     LIBCMT:winapinls.obj
 0002:000036b8       ??_C@_15NFICGAJK@?$AAi?$AAd?$AA?$AA@ 1004a6b8     LIBCMT:winapinls.obj
 0002:000036c0       ??_C@_15HPJPHDM@?$AAb?$AAe?$AA?$AA@ 1004a6c0     LIBCMT:winapinls.obj
 0002:000036c8       ??_C@_15LCHLGJII@?$AAs?$AAl?$AA?$AA@ 1004a6c8     LIBCMT:winapinls.obj
 0002:000036d0       ??_C@_15PCFJPHHO@?$AAe?$AAt?$AA?$AA@ 1004a6d0     LIBCMT:winapinls.obj
 0002:000036d8       ??_C@_15HPFPGODN@?$AAl?$AAv?$AA?$AA@ 1004a6d8     LIBCMT:winapinls.obj
 0002:000036e0       ??_C@_15NFFGKGLG@?$AAl?$AAt?$AA?$AA@ 1004a6e0     LIBCMT:winapinls.obj
 0002:000036e8       ??_C@_15BDAKCCHN@?$AAf?$AAa?$AA?$AA@ 1004a6e8     LIBCMT:winapinls.obj
 0002:000036f0       ??_C@_15NFGIAIAJ@?$AAv?$AAi?$AA?$AA@ 1004a6f0     LIBCMT:winapinls.obj
 0002:000036f8       ??_C@_15LMKNDMHN@?$AAh?$AAy?$AA?$AA@ 1004a6f8     LIBCMT:winapinls.obj
 0002:00003700       ??_C@_15IJBHMCFL@?$AAa?$AAz?$AA?$AA@ 1004a700     LIBCMT:winapinls.obj
 0002:00003708       ??_C@_15EKOFJABL@?$AAe?$AAu?$AA?$AA@ 1004a708     LIBCMT:winapinls.obj
 0002:00003710       ??_C@_15BGHADCNK@?$AAm?$AAk?$AA?$AA@ 1004a710     LIBCMT:winapinls.obj
 0002:00003718       ??_C@_15JDNICKHM@?$AAa?$AAf?$AA?$AA@ 1004a718     LIBCMT:winapinls.obj
 0002:00003720       ??_C@_15KPJEDBKD@?$AAk?$AAa?$AA?$AA@ 1004a720     LIBCMT:winapinls.obj
 0002:00003728       ??_C@_15PDNFFFEO@?$AAf?$AAo?$AA?$AA@ 1004a728     LIBCMT:winapinls.obj
 0002:00003730       ??_C@_15OMLEGLOC@?$AAh?$AAi?$AA?$AA@ 1004a730     LIBCMT:winapinls.obj
 0002:00003738       ??_C@_15IDNNENKK@?$AAm?$AAs?$AA?$AA@ 1004a738     LIBCMT:winapinls.obj
 0002:00003740       ??_C@_15MACJNBMH@?$AAk?$AAk?$AA?$AA@ 1004a740     LIBCMT:winapinls.obj
 0002:00003748       ??_C@_15DKDJEOND@?$AAk?$AAy?$AA?$AA@ 1004a748     LIBCMT:winapinls.obj
 0002:00003750       ??_C@_15DFGDLJBG@?$AAs?$AAw?$AA?$AA@ 1004a750     LIBCMT:winapinls.obj
 0002:00003758       ??_C@_15BBFAICNG@?$AAu?$AAz?$AA?$AA@ 1004a758     LIBCMT:winapinls.obj
 0002:00003760       ??_C@_15DKNDCGEA@?$AAt?$AAt?$AA?$AA@ 1004a760     LIBCMT:winapinls.obj
 0002:00003768       ??_C@_15MGIFMDPL@?$AAp?$AAa?$AA?$AA@ 1004a768     LIBCMT:winapinls.obj
 0002:00003770       ??_C@_15HCNDBBA@?$AAg?$AAu?$AA?$AA@ 1004a770     LIBCMT:winapinls.obj
 0002:00003778       ??_C@_15FNBEIBON@?$AAt?$AAa?$AA?$AA@ 1004a778     LIBCMT:winapinls.obj
 0002:00003780       ??_C@_15NCHGBGLK@?$AAt?$AAe?$AA?$AA@ 1004a780     LIBCMT:winapinls.obj
 0002:00003788       ??_C@_15PHPHCBPF@?$AAk?$AAn?$AA?$AA@ 1004a788     LIBCMT:winapinls.obj
 0002:00003790       ??_C@_15DLGBCKMP@?$AAm?$AAr?$AA?$AA@ 1004a790     LIBCMT:winapinls.obj
 0002:00003798       ??_C@_15EABBLBFF@?$AAs?$AAa?$AA?$AA@ 1004a798     LIBCMT:winapinls.obj
 0002:000037a0       ??_C@_15CBKOMCOI@?$AAm?$AAn?$AA?$AA@ 1004a7a0     LIBCMT:winapinls.obj
 0002:000037a8       ??_C@_15CKDMCJAF@?$AAg?$AAl?$AA?$AA@ 1004a7a8     LIBCMT:winapinls.obj
 0002:000037b0       ??_C@_17CNJFBPG@?$AAk?$AAo?$AAk?$AA?$AA@ 1004a7b0     LIBCMT:winapinls.obj
 0002:000037b8       ??_C@_17FFBJICPL@?$AAs?$AAy?$AAr?$AA?$AA@ 1004a7b8     LIBCMT:winapinls.obj
 0002:000037c0       ??_C@_17KPNDCPAF@?$AAd?$AAi?$AAv?$AA?$AA@ 1004a7c0     LIBCMT:winapinls.obj
 0002:000037c8       ??_C@_1M@OKAHONE@?$AAa?$AAr?$AA?9?$AAS?$AAA?$AA?$AA@ 1004a7c8     LIBCMT:winapinls.obj
 0002:000037d4       ??_C@_1M@FFFIGIGK@?$AAb?$AAg?$AA?9?$AAB?$AAG?$AA?$AA@ 1004a7d4     LIBCMT:winapinls.obj
 0002:000037e0       ??_C@_1M@BJNKEDC@?$AAc?$AAa?$AA?9?$AAE?$AAS?$AA?$AA@ 1004a7e0     LIBCMT:winapinls.obj
 0002:000037ec       ??_C@_1M@IJJHFJHA@?$AAc?$AAs?$AA?9?$AAC?$AAZ?$AA?$AA@ 1004a7ec     LIBCMT:winapinls.obj
 0002:000037f8       ??_C@_1M@CLPEOBGI@?$AAd?$AAa?$AA?9?$AAD?$AAK?$AA?$AA@ 1004a7f8     LIBCMT:winapinls.obj
 0002:00003804       ??_C@_1M@MCMADGCB@?$AAd?$AAe?$AA?9?$AAD?$AAE?$AA?$AA@ 1004a804     LIBCMT:winapinls.obj
 0002:00003810       ??_C@_1M@OOCKEMAM@?$AAe?$AAl?$AA?9?$AAG?$AAR?$AA?$AA@ 1004a810     LIBCMT:winapinls.obj
 0002:0000381c       ??_C@_1M@DDNJFGID@?$AAf?$AAi?$AA?9?$AAF?$AAI?$AA?$AA@ 1004a81c     LIBCMT:winapinls.obj
 0002:00003828       ??_C@_1M@GLIPPMAC@?$AAf?$AAr?$AA?9?$AAF?$AAR?$AA?$AA@ 1004a828     LIBCMT:winapinls.obj
 0002:00003834       ??_C@_1M@GFMCHPE@?$AAh?$AAe?$AA?9?$AAI?$AAL?$AA?$AA@ 1004a834     LIBCMT:winapinls.obj
 0002:00003840       ??_C@_1M@MHLPGNKM@?$AAh?$AAu?$AA?9?$AAH?$AAU?$AA?$AA@ 1004a840     LIBCMT:winapinls.obj
 0002:0000384c       ??_C@_1M@LPDDNNPN@?$AAi?$AAs?$AA?9?$AAI?$AAS?$AA?$AA@ 1004a84c     LIBCMT:winapinls.obj
 0002:00003858       ??_C@_1M@MADIPODN@?$AAi?$AAt?$AA?9?$AAI?$AAT?$AA?$AA@ 1004a858     LIBCMT:winapinls.obj
 0002:00003864       ??_C@_1M@IHBJJGG@?$AAn?$AAl?$AA?9?$AAN?$AAL?$AA?$AA@ 1004a864     LIBCMT:winapinls.obj
 0002:00003870       ??_C@_1M@EANAGDL@?$AAn?$AAb?$AA?9?$AAN?$AAO?$AA?$AA@ 1004a870     LIBCMT:winapinls.obj
 0002:0000387c       ??_C@_1M@NEIEMEGP@?$AAp?$AAl?$AA?9?$AAP?$AAL?$AA?$AA@ 1004a87c     LIBCMT:winapinls.obj
 0002:00003888       ??_C@_1M@BOCFIGEP@?$AAp?$AAt?$AA?9?$AAB?$AAR?$AA?$AA@ 1004a888     LIBCMT:winapinls.obj
 0002:00003894       ??_C@_1M@IMPFOPBG@?$AAr?$AAo?$AA?9?$AAR?$AAO?$AA?$AA@ 1004a894     LIBCMT:winapinls.obj
 0002:000038a0       ??_C@_1M@IDNNEJMM@?$AAr?$AAu?$AA?9?$AAR?$AAU?$AA?$AA@ 1004a8a0     LIBCMT:winapinls.obj
 0002:000038ac       ??_C@_1M@LILEEOGM@?$AAh?$AAr?$AA?9?$AAH?$AAR?$AA?$AA@ 1004a8ac     LIBCMT:winapinls.obj
 0002:000038b8       ??_C@_1M@FKIFEHPB@?$AAs?$AAk?$AA?9?$AAS?$AAK?$AA?$AA@ 1004a8b8     LIBCMT:winapinls.obj
 0002:000038c4       ??_C@_1M@LJMAMNPJ@?$AAs?$AAq?$AA?9?$AAA?$AAL?$AA?$AA@ 1004a8c4     LIBCMT:winapinls.obj
 0002:000038d0       ??_C@_1M@GIAKDKJK@?$AAs?$AAv?$AA?9?$AAS?$AAE?$AA?$AA@ 1004a8d0     LIBCMT:winapinls.obj
 0002:000038dc       ??_C@_1M@MKJKIKCL@?$AAt?$AAh?$AA?9?$AAT?$AAH?$AA?$AA@ 1004a8dc     LIBCMT:winapinls.obj
 0002:000038e8       ??_C@_1M@MFLCCMPB@?$AAt?$AAr?$AA?9?$AAT?$AAR?$AA?$AA@ 1004a8e8     LIBCMT:winapinls.obj
 0002:000038f4       ??_C@_1M@OIJHDKJN@?$AAu?$AAr?$AA?9?$AAP?$AAK?$AA?$AA@ 1004a8f4     LIBCMT:winapinls.obj
 0002:00003900       ??_C@_1M@LHIPCIEK@?$AAi?$AAd?$AA?9?$AAI?$AAD?$AA?$AA@ 1004a900     LIBCMT:winapinls.obj
 0002:0000390c       ??_C@_1M@MFMOBGI@?$AAu?$AAk?$AA?9?$AAU?$AAA?$AA?$AA@ 1004a90c     LIBCMT:winapinls.obj
 0002:00003918       ??_C@_1M@OBGLJIPL@?$AAb?$AAe?$AA?9?$AAB?$AAY?$AA?$AA@ 1004a918     LIBCMT:winapinls.obj
 0002:00003924       ??_C@_1M@BCFAJEAD@?$AAs?$AAl?$AA?9?$AAS?$AAI?$AA?$AA@ 1004a924     LIBCMT:winapinls.obj
 0002:00003930       ??_C@_1M@FKFFEDDN@?$AAe?$AAt?$AA?9?$AAE?$AAE?$AA?$AA@ 1004a930     LIBCMT:winapinls.obj
 0002:0000393c       ??_C@_1M@KGKKAACI@?$AAl?$AAv?$AA?9?$AAL?$AAV?$AA?$AA@ 1004a93c     LIBCMT:winapinls.obj
 0002:00003948       ??_C@_1M@IFGBIJO@?$AAl?$AAt?$AA?9?$AAL?$AAT?$AA?$AA@ 1004a948     LIBCMT:winapinls.obj
 0002:00003954       ??_C@_1M@FGEAHEDM@?$AAf?$AAa?$AA?9?$AAI?$AAR?$AA?$AA@ 1004a954     LIBCMT:winapinls.obj
 0002:00003960       ??_C@_1M@KBMAIBFN@?$AAv?$AAi?$AA?9?$AAV?$AAN?$AA?$AA@ 1004a960     LIBCMT:winapinls.obj
 0002:0000396c       ??_C@_1M@GPCBKDJK@?$AAh?$AAy?$AA?9?$AAA?$AAM?$AA?$AA@ 1004a96c     LIBCMT:winapinls.obj
 0002:00003978       ??_C@_1BG@BECMDDJB@?$AAa?$AAz?$AA?9?$AAA?$AAZ?$AA?9?$AAL?$AAa?$AAt?$AAn?$AA?$AA@ 1004a978     LIBCMT:winapinls.obj
 0002:00003990       ??_C@_1M@MAOFCAEA@?$AAe?$AAu?$AA?9?$AAE?$AAS?$AA?$AA@ 1004a990     LIBCMT:winapinls.obj
 0002:0000399c       ??_C@_1M@IGHABKPI@?$AAm?$AAk?$AA?9?$AAM?$AAK?$AA?$AA@ 1004a99c     LIBCMT:winapinls.obj
 0002:000039a8       ??_C@_1M@IAIGNEJG@?$AAt?$AAn?$AA?9?$AAZ?$AAA?$AA?$AA@ 1004a9a8     LIBCMT:winapinls.obj
 0002:000039b4       ??_C@_1M@IIJCOJFA@?$AAx?$AAh?$AA?9?$AAZ?$AAA?$AA?$AA@ 1004a9b4     LIBCMT:winapinls.obj
 0002:000039c0       ??_C@_1M@LGPJHNJH@?$AAz?$AAu?$AA?9?$AAZ?$AAA?$AA?$AA@ 1004a9c0     LIBCMT:winapinls.obj
 0002:000039cc       ??_C@_1M@HOKAOIO@?$AAa?$AAf?$AA?9?$AAZ?$AAA?$AA?$AA@ 1004a9cc     LIBCMT:winapinls.obj
 0002:000039d8       ??_C@_1M@DPCLHLIE@?$AAk?$AAa?$AA?9?$AAG?$AAE?$AA?$AA@ 1004a9d8     LIBCMT:winapinls.obj
 0002:000039e4       ??_C@_1M@BLKMHJBI@?$AAf?$AAo?$AA?9?$AAF?$AAO?$AA?$AA@ 1004a9e4     LIBCMT:winapinls.obj
 0002:000039f0       ??_C@_1M@LGGJAPPB@?$AAh?$AAi?$AA?9?$AAI?$AAN?$AA?$AA@ 1004a9f0     LIBCMT:winapinls.obj
 0002:000039fc       ??_C@_1M@FIKPIHFE@?$AAm?$AAt?$AA?9?$AAM?$AAT?$AA?$AA@ 1004a9fc     LIBCMT:winapinls.obj
 0002:00003a08       ??_C@_1M@HEGGPBFA@?$AAs?$AAe?$AA?9?$AAN?$AAO?$AA?$AA@ 1004aa08     LIBCMT:winapinls.obj
 0002:00003a14       ??_C@_1M@EIBJEEPA@?$AAm?$AAs?$AA?9?$AAM?$AAY?$AA?$AA@ 1004aa14     LIBCMT:winapinls.obj
 0002:00003a20       ??_C@_1M@FHLBGMPP@?$AAk?$AAk?$AA?9?$AAK?$AAZ?$AA?$AA@ 1004aa20     LIBCMT:winapinls.obj
 0002:00003a2c       ??_C@_1M@NGJJLCGI@?$AAk?$AAy?$AA?9?$AAK?$AAG?$AA?$AA@ 1004aa2c     LIBCMT:winapinls.obj
 0002:00003a38       ??_C@_1M@GIENNBFC@?$AAs?$AAw?$AA?9?$AAK?$AAE?$AA?$AA@ 1004aa38     LIBCMT:winapinls.obj
 0002:00003a44       ??_C@_1BG@NDGMJIMJ@?$AAu?$AAz?$AA?9?$AAU?$AAZ?$AA?9?$AAL?$AAa?$AAt?$AAn?$AA?$AA@ 1004aa44     LIBCMT:winapinls.obj
 0002:00003a5c       ??_C@_1M@IDCCIHBC@?$AAt?$AAt?$AA?9?$AAR?$AAU?$AA?$AA@ 1004aa5c     LIBCMT:winapinls.obj
 0002:00003a68       ??_C@_1M@LOICPMOJ@?$AAb?$AAn?$AA?9?$AAI?$AAN?$AA?$AA@ 1004aa68     LIBCMT:winapinls.obj
 0002:00003a74       ??_C@_1M@KPKKNEAH@?$AAp?$AAa?$AA?9?$AAI?$AAN?$AA?$AA@ 1004aa74     LIBCMT:winapinls.obj
 0002:00003a80       ??_C@_1M@PJGPPBOG@?$AAg?$AAu?$AA?9?$AAI?$AAN?$AA?$AA@ 1004aa80     LIBCMT:winapinls.obj
 0002:00003a8c       ??_C@_1M@KMKMOPHI@?$AAt?$AAa?$AA?9?$AAI?$AAN?$AA?$AA@ 1004aa8c     LIBCMT:winapinls.obj
 0002:00003a98       ??_C@_1M@KFEHEPAC@?$AAt?$AAe?$AA?9?$AAI?$AAN?$AA?$AA@ 1004aa98     LIBCMT:winapinls.obj
 0002:00003aa4       ??_C@_1M@CDCLMGHI@?$AAk?$AAn?$AA?9?$AAI?$AAN?$AA?$AA@ 1004aaa4     LIBCMT:winapinls.obj
 0002:00003ab0       ??_C@_1M@MIODLDKF@?$AAm?$AAl?$AA?9?$AAI?$AAN?$AA?$AA@ 1004aab0     LIBCMT:winapinls.obj
 0002:00003abc       ??_C@_1M@PBIEACPO@?$AAm?$AAr?$AA?9?$AAI?$AAN?$AA?$AA@ 1004aabc     LIBCMT:winapinls.obj
 0002:00003ac8       ??_C@_1M@NIDEAGPH@?$AAs?$AAa?$AA?9?$AAI?$AAN?$AA?$AA@ 1004aac8     LIBCMT:winapinls.obj
 0002:00003ad4       ??_C@_1M@FHIHCBIO@?$AAm?$AAn?$AA?9?$AAM?$AAN?$AA?$AA@ 1004aad4     LIBCMT:winapinls.obj
 0002:00003ae0       ??_C@_1M@JAIJPENP@?$AAc?$AAy?$AA?9?$AAG?$AAB?$AA?$AA@ 1004aae0     LIBCMT:winapinls.obj
 0002:00003aec       ??_C@_1M@PHGFBEPN@?$AAg?$AAl?$AA?9?$AAE?$AAS?$AA?$AA@ 1004aaec     LIBCMT:winapinls.obj
 0002:00003af8       ??_C@_1O@KPIPDNCP@?$AAk?$AAo?$AAk?$AA?9?$AAI?$AAN?$AA?$AA@ 1004aaf8     LIBCMT:winapinls.obj
 0002:00003b08       ??_C@_1O@KNHJLDJA@?$AAs?$AAy?$AAr?$AA?9?$AAS?$AAY?$AA?$AA@ 1004ab08     LIBCMT:winapinls.obj
 0002:00003b18       ??_C@_1O@MKEKBLAH@?$AAd?$AAi?$AAv?$AA?9?$AAM?$AAV?$AA?$AA@ 1004ab18     LIBCMT:winapinls.obj
 0002:00003b28       ??_C@_1O@OHDCKDDF@?$AAq?$AAu?$AAz?$AA?9?$AAB?$AAO?$AA?$AA@ 1004ab28     LIBCMT:winapinls.obj
 0002:00003b38       ??_C@_1M@LEPJNLFD@?$AAn?$AAs?$AA?9?$AAZ?$AAA?$AA?$AA@ 1004ab38     LIBCMT:winapinls.obj
 0002:00003b44       ??_C@_1M@OMLEIIJB@?$AAm?$AAi?$AA?9?$AAN?$AAZ?$AA?$AA@ 1004ab44     LIBCMT:winapinls.obj
 0002:00003b50       ??_C@_1M@PMPEAILG@?$AAa?$AAr?$AA?9?$AAI?$AAQ?$AA?$AA@ 1004ab50     LIBCMT:winapinls.obj
 0002:00003b5c       ??_C@_1M@CNKPNOEE@?$AAd?$AAe?$AA?9?$AAC?$AAH?$AA?$AA@ 1004ab5c     LIBCMT:winapinls.obj
 0002:00003b68       ??_C@_1M@LKMGMLKO@?$AAe?$AAn?$AA?9?$AAG?$AAB?$AA?$AA@ 1004ab68     LIBCMT:winapinls.obj
 0002:00003b74       ??_C@_1M@PGKJFFGL@?$AAe?$AAs?$AA?9?$AAM?$AAX?$AA?$AA@ 1004ab74     LIBCMT:winapinls.obj
 0002:00003b80       ??_C@_1M@DNNANBDC@?$AAf?$AAr?$AA?9?$AAB?$AAE?$AA?$AA@ 1004ab80     LIBCMT:winapinls.obj
 0002:00003b8c       ??_C@_1M@HLGMDFHM@?$AAi?$AAt?$AA?9?$AAC?$AAH?$AA?$AA@ 1004ab8c     LIBCMT:winapinls.obj
 0002:00003b98       ??_C@_1M@CLLBGJH@?$AAn?$AAl?$AA?9?$AAB?$AAE?$AA?$AA@ 1004ab98     LIBCMT:winapinls.obj
 0002:00003ba4       ??_C@_1M@BODBOGLF@?$AAn?$AAn?$AA?9?$AAN?$AAO?$AA?$AA@ 1004aba4     LIBCMT:winapinls.obj
 0002:00003bb0       ??_C@_1M@HFFAHKAD@?$AAp?$AAt?$AA?9?$AAP?$AAT?$AA?$AA@ 1004abb0     LIBCMT:winapinls.obj
 0002:00003bbc       ??_C@_1BG@LNOAKHIE@?$AAs?$AAr?$AA?9?$AAS?$AAP?$AA?9?$AAL?$AAa?$AAt?$AAn?$AA?$AA@ 1004abbc     LIBCMT:winapinls.obj
 0002:00003bd4       ??_C@_1M@HBMHBGAK@?$AAs?$AAv?$AA?9?$AAF?$AAI?$AA?$AA@ 1004abd4     LIBCMT:winapinls.obj
 0002:00003be0       ??_C@_1BG@DGCJGJBE@?$AAa?$AAz?$AA?9?$AAA?$AAZ?$AA?9?$AAC?$AAy?$AAr?$AAl?$AA?$AA@ 1004abe0     LIBCMT:winapinls.obj
 0002:00003bf8       ??_C@_1M@KEJDAAHB@?$AAs?$AAe?$AA?9?$AAS?$AAE?$AA?$AA@ 1004abf8     LIBCMT:winapinls.obj
 0002:00003c04       ??_C@_1M@HEIBJJAD@?$AAm?$AAs?$AA?9?$AAB?$AAN?$AA?$AA@ 1004ac04     LIBCMT:winapinls.obj
 0002:00003c10       ??_C@_1BG@PBGJMCEM@?$AAu?$AAz?$AA?9?$AAU?$AAZ?$AA?9?$AAC?$AAy?$AAr?$AAl?$AA?$AA@ 1004ac10     LIBCMT:winapinls.obj
 0002:00003c28       ??_C@_1O@LAOBCMDF@?$AAq?$AAu?$AAz?$AA?9?$AAE?$AAC?$AA?$AA@ 1004ac28     LIBCMT:winapinls.obj
 0002:00003c38       ??_C@_1M@POEEMAIO@?$AAa?$AAr?$AA?9?$AAE?$AAG?$AA?$AA@ 1004ac38     LIBCMT:winapinls.obj
 0002:00003c44       ??_C@_1M@EFAKDEDL@?$AAz?$AAh?$AA?9?$AAH?$AAK?$AA?$AA@ 1004ac44     LIBCMT:winapinls.obj
 0002:00003c50       ??_C@_1M@HKKIJHGI@?$AAd?$AAe?$AA?9?$AAA?$AAT?$AA?$AA@ 1004ac50     LIBCMT:winapinls.obj
 0002:00003c5c       ??_C@_1M@KBFBEHJF@?$AAe?$AAn?$AA?9?$AAA?$AAU?$AA?$AA@ 1004ac5c     LIBCMT:winapinls.obj
 0002:00003c68       ??_C@_1M@MNPLFAAH@?$AAe?$AAs?$AA?9?$AAE?$AAS?$AA?$AA@ 1004ac68     LIBCMT:winapinls.obj
 0002:00003c74       ??_C@_1M@HJOOJFMA@?$AAf?$AAr?$AA?9?$AAC?$AAA?$AA?$AA@ 1004ac74     LIBCMT:winapinls.obj
 0002:00003c80       ??_C@_1BG@JPOFPNAB@?$AAs?$AAr?$AA?9?$AAS?$AAP?$AA?9?$AAC?$AAy?$AAr?$AAl?$AA?$AA@ 1004ac80     LIBCMT:winapinls.obj
 0002:00003c98       ??_C@_1M@LNFOCMOB@?$AAs?$AAe?$AA?9?$AAF?$AAI?$AA?$AA@ 1004ac98     LIBCMT:winapinls.obj
 0002:00003ca4       ??_C@_1O@MGJBOAMB@?$AAq?$AAu?$AAz?$AA?9?$AAP?$AAE?$AA?$AA@ 1004aca4     LIBCMT:winapinls.obj
 0002:00003cb4       ??_C@_1M@GJINLBOK@?$AAa?$AAr?$AA?9?$AAL?$AAY?$AA?$AA@ 1004acb4     LIBCMT:winapinls.obj
 0002:00003cc0       ??_C@_1M@GGMNHJNL@?$AAz?$AAh?$AA?9?$AAS?$AAG?$AA?$AA@ 1004acc0     LIBCMT:winapinls.obj
 0002:00003ccc       ??_C@_1M@HOIKODND@?$AAd?$AAe?$AA?9?$AAL?$AAU?$AA?$AA@ 1004accc     LIBCMT:winapinls.obj
 0002:00003cd8       ??_C@_1M@DDOCCGFG@?$AAe?$AAn?$AA?9?$AAC?$AAA?$AA?$AA@ 1004acd8     LIBCMT:winapinls.obj
 0002:00003ce4       ??_C@_1M@BNOEMJLF@?$AAe?$AAs?$AA?9?$AAG?$AAT?$AA?$AA@ 1004ace4     LIBCMT:winapinls.obj
 0002:00003cf0       ??_C@_1M@EOGNKEK@?$AAf?$AAr?$AA?9?$AAC?$AAH?$AA?$AA@ 1004acf0     LIBCMT:winapinls.obj
 0002:00003cfc       ??_C@_1M@FLIDJFHL@?$AAh?$AAr?$AA?9?$AAB?$AAA?$AA?$AA@ 1004acfc     LIBCMT:winapinls.obj
 0002:00003d08       ??_C@_1O@FMCELNAJ@?$AAs?$AAm?$AAj?$AA?9?$AAN?$AAO?$AA?$AA@ 1004ad08     LIBCMT:winapinls.obj
 0002:00003d18       ??_C@_1M@JHGLJMGJ@?$AAa?$AAr?$AA?9?$AAD?$AAZ?$AA?$AA@ 1004ad18     LIBCMT:winapinls.obj
 0002:00003d24       ??_C@_1M@JKKFDCNP@?$AAz?$AAh?$AA?9?$AAM?$AAO?$AA?$AA@ 1004ad24     LIBCMT:winapinls.obj
 0002:00003d30       ??_C@_1M@GEEFALPE@?$AAd?$AAe?$AA?9?$AAL?$AAI?$AA?$AA@ 1004ad30     LIBCMT:winapinls.obj
 0002:00003d3c       ??_C@_1M@IGEOFBG@?$AAe?$AAn?$AA?9?$AAN?$AAZ?$AA?$AA@ 1004ad3c     LIBCMT:winapinls.obj
 0002:00003d48       ??_C@_1M@KDBONEHP@?$AAe?$AAs?$AA?9?$AAC?$AAR?$AA?$AA@ 1004ad48     LIBCMT:winapinls.obj
 0002:00003d54       ??_C@_1M@FHMDOHNN@?$AAf?$AAr?$AA?9?$AAL?$AAU?$AA?$AA@ 1004ad54     LIBCMT:winapinls.obj
 0002:00003d60       ??_C@_1BG@NFKKMAFG@?$AAb?$AAs?$AA?9?$AAB?$AAA?$AA?9?$AAL?$AAa?$AAt?$AAn?$AA?$AA@ 1004ad60     LIBCMT:winapinls.obj
 0002:00003d78       ??_C@_1O@IMNBEMCI@?$AAs?$AAm?$AAj?$AA?9?$AAS?$AAE?$AA?$AA@ 1004ad78     LIBCMT:winapinls.obj
 0002:00003d88       ??_C@_1M@DHHMBNDP@?$AAa?$AAr?$AA?9?$AAM?$AAA?$AA?$AA@ 1004ad88     LIBCMT:winapinls.obj
 0002:00003d94       ??_C@_1M@BNBLJCGH@?$AAe?$AAn?$AA?9?$AAI?$AAE?$AA?$AA@ 1004ad94     LIBCMT:winapinls.obj
 0002:00003da0       ??_C@_1M@GEPAFMDL@?$AAe?$AAs?$AA?9?$AAP?$AAA?$AA?$AA@ 1004ada0     LIBCMT:winapinls.obj
 0002:00003dac       ??_C@_1M@OJONDMDL@?$AAf?$AAr?$AA?9?$AAM?$AAC?$AA?$AA@ 1004adac     LIBCMT:winapinls.obj
 0002:00003db8       ??_C@_1BG@OBCNFJB@?$AAs?$AAr?$AA?9?$AAB?$AAA?$AA?9?$AAL?$AAa?$AAt?$AAn?$AA?$AA@ 1004adb8     LIBCMT:winapinls.obj
 0002:00003dd0       ??_C@_1O@KEMEEGPO@?$AAs?$AAm?$AAa?$AA?9?$AAN?$AAO?$AA?$AA@ 1004add0     LIBCMT:winapinls.obj
 0002:00003de0       ??_C@_1M@ELMGFODK@?$AAa?$AAr?$AA?9?$AAT?$AAN?$AA?$AA@ 1004ade0     LIBCMT:winapinls.obj
 0002:00003dec       ??_C@_1M@BHDLHFAF@?$AAe?$AAn?$AA?9?$AAZ?$AAA?$AA?$AA@ 1004adec     LIBCMT:winapinls.obj
 0002:00003df8       ??_C@_1M@BMGIGLIF@?$AAe?$AAs?$AA?9?$AAD?$AAO?$AA?$AA@ 1004adf8     LIBCMT:winapinls.obj
 0002:00003e04       ??_C@_1BG@CMBHIPBE@?$AAs?$AAr?$AA?9?$AAB?$AAA?$AA?9?$AAC?$AAy?$AAr?$AAl?$AA?$AA@ 1004ae04     LIBCMT:winapinls.obj
 0002:00003e1c       ??_C@_1O@HEDBLHNP@?$AAs?$AAm?$AAa?$AA?9?$AAS?$AAE?$AA?$AA@ 1004ae1c     LIBCMT:winapinls.obj
 0002:00003e2c       ??_C@_1M@DAGCADIM@?$AAa?$AAr?$AA?9?$AAO?$AAM?$AA?$AA@ 1004ae2c     LIBCMT:winapinls.obj
 0002:00003e38       ??_C@_1M@FODLMICG@?$AAe?$AAn?$AA?9?$AAJ?$AAM?$AA?$AA@ 1004ae38     LIBCMT:winapinls.obj
 0002:00003e44       ??_C@_1M@DNMLCIHB@?$AAe?$AAs?$AA?9?$AAV?$AAE?$AA?$AA@ 1004ae44     LIBCMT:winapinls.obj
 0002:00003e50       ??_C@_1O@EOKHMKJK@?$AAs?$AAm?$AAs?$AA?9?$AAF?$AAI?$AA?$AA@ 1004ae50     LIBCMT:winapinls.obj
 0002:00003e60       ??_C@_1M@CAFJMKOF@?$AAa?$AAr?$AA?9?$AAY?$AAE?$AA?$AA@ 1004ae60     LIBCMT:winapinls.obj
 0002:00003e6c       ??_C@_1M@CBFHIJLI@?$AAe?$AAn?$AA?9?$AAC?$AAB?$AA?$AA@ 1004ae6c     LIBCMT:winapinls.obj
 0002:00003e78       ??_C@_1M@BGNFLDN@?$AAe?$AAs?$AA?9?$AAC?$AAO?$AA?$AA@ 1004ae78     LIBCMT:winapinls.obj
 0002:00003e84       ??_C@_1O@JMPHMAMC@?$AAs?$AAm?$AAn?$AA?9?$AAF?$AAI?$AA?$AA@ 1004ae84     LIBCMT:winapinls.obj
 0002:00003e94       ??_C@_1M@JLANABKE@?$AAa?$AAr?$AA?9?$AAS?$AAY?$AA?$AA@ 1004ae94     LIBCMT:winapinls.obj
 0002:00003ea0       ??_C@_1M@HPKGCFGN@?$AAe?$AAn?$AA?9?$AAB?$AAZ?$AA?$AA@ 1004aea0     LIBCMT:winapinls.obj
 0002:00003eac       ??_C@_1M@OLJCMLGM@?$AAe?$AAs?$AA?9?$AAP?$AAE?$AA?$AA@ 1004aeac     LIBCMT:winapinls.obj
 0002:00003eb8       ??_C@_1M@MKKGFKLE@?$AAa?$AAr?$AA?9?$AAJ?$AAO?$AA?$AA@ 1004aeb8     LIBCMT:winapinls.obj
 0002:00003ec4       ??_C@_1M@EKPGLDNI@?$AAe?$AAn?$AA?9?$AAT?$AAT?$AA?$AA@ 1004aec4     LIBCMT:winapinls.obj
 0002:00003ed0       ??_C@_1M@OONGHFHE@?$AAe?$AAs?$AA?9?$AAA?$AAR?$AA?$AA@ 1004aed0     LIBCMT:winapinls.obj
 0002:00003edc       ??_C@_1M@OOJFGBHE@?$AAa?$AAr?$AA?9?$AAL?$AAB?$AA?$AA@ 1004aedc     LIBCMT:winapinls.obj
 0002:00003ee8       ??_C@_1M@GCEJHNEG@?$AAe?$AAn?$AA?9?$AAZ?$AAW?$AA?$AA@ 1004aee8     LIBCMT:winapinls.obj
 0002:00003ef4       ??_C@_1M@JNOCAHJI@?$AAe?$AAs?$AA?9?$AAE?$AAC?$AA?$AA@ 1004aef4     LIBCMT:winapinls.obj
 0002:00003f00       ??_C@_1M@JEFHPGGB@?$AAa?$AAr?$AA?9?$AAK?$AAW?$AA?$AA@ 1004af00     LIBCMT:winapinls.obj
 0002:00003f0c       ??_C@_1M@MLKIBJOJ@?$AAe?$AAn?$AA?9?$AAP?$AAH?$AA?$AA@ 1004af0c     LIBCMT:winapinls.obj
 0002:00003f18       ??_C@_1M@BDNIPEND@?$AAe?$AAs?$AA?9?$AAC?$AAL?$AA?$AA@ 1004af18     LIBCMT:winapinls.obj
 0002:00003f24       ??_C@_1M@MPNMEKBD@?$AAa?$AAr?$AA?9?$AAA?$AAE?$AA?$AA@ 1004af24     LIBCMT:winapinls.obj
 0002:00003f30       ??_C@_1M@KBJALCPI@?$AAe?$AAs?$AA?9?$AAU?$AAY?$AA?$AA@ 1004af30     LIBCMT:winapinls.obj
 0002:00003f3c       ??_C@_1M@LLCCOAGA@?$AAa?$AAr?$AA?9?$AAB?$AAH?$AA?$AA@ 1004af3c     LIBCMT:winapinls.obj
 0002:00003f48       ??_C@_1M@PBFNCDEL@?$AAe?$AAs?$AA?9?$AAP?$AAY?$AA?$AA@ 1004af48     LIBCMT:winapinls.obj
 0002:00003f54       ??_C@_1M@EDGINPNP@?$AAa?$AAr?$AA?9?$AAQ?$AAA?$AA?$AA@ 1004af54     LIBCMT:winapinls.obj
 0002:00003f60       ??_C@_1M@MKDBIIJI@?$AAe?$AAs?$AA?9?$AAB?$AAO?$AA?$AA@ 1004af60     LIBCMT:winapinls.obj
 0002:00003f6c       ??_C@_1M@CPKKEBLD@?$AAe?$AAs?$AA?9?$AAS?$AAV?$AA?$AA@ 1004af6c     LIBCMT:winapinls.obj
 0002:00003f78       ??_C@_1M@NDBGMMJL@?$AAe?$AAs?$AA?9?$AAH?$AAN?$AA?$AA@ 1004af78     LIBCMT:winapinls.obj
 0002:00003f84       ??_C@_1M@JIJIBHDP@?$AAe?$AAs?$AA?9?$AAN?$AAI?$AA?$AA@ 1004af84     LIBCMT:winapinls.obj
 0002:00003f90       ??_C@_1M@CGFMKEEK@?$AAe?$AAs?$AA?9?$AAP?$AAR?$AA?$AA@ 1004af90     LIBCMT:winapinls.obj
 0002:00003f9c       ??_C@_1O@ICJHKIIK@?$AAz?$AAh?$AA?9?$AAC?$AAH?$AAT?$AA?$AA@ 1004af9c     LIBCMT:winapinls.obj
 0002:00003fac       ??_C@_15CLNEJCE@?$AAs?$AAr?$AA?$AA@ 1004afac     LIBCMT:winapinls.obj
 0002:00003fb4       ??_C@_1M@KAHEKEIG@?$AAa?$AAf?$AA?9?$AAz?$AAa?$AA?$AA@ 1004afb4     LIBCMT:winapinls.obj
 0002:00003fc0       ??_C@_1M@GIECOABL@?$AAa?$AAr?$AA?9?$AAa?$AAe?$AA?$AA@ 1004afc0     LIBCMT:winapinls.obj
 0002:00003fcc       ??_C@_1M@BMLMEKGI@?$AAa?$AAr?$AA?9?$AAb?$AAh?$AA?$AA@ 1004afcc     LIBCMT:winapinls.obj
 0002:00003fd8       ??_C@_1M@DAPFDGGB@?$AAa?$AAr?$AA?9?$AAd?$AAz?$AA?$AA@ 1004afd8     LIBCMT:winapinls.obj
 0002:00003fe4       ??_C@_1M@FJNKGKIG@?$AAa?$AAr?$AA?9?$AAe?$AAg?$AA?$AA@ 1004afe4     LIBCMT:winapinls.obj
 0002:00003ff0       ??_C@_1M@FLGKKCLO@?$AAa?$AAr?$AA?9?$AAi?$AAq?$AA?$AA@ 1004aff0     LIBCMT:winapinls.obj
 0002:00003ffc       ??_C@_1M@GNDIPALM@?$AAa?$AAr?$AA?9?$AAj?$AAo?$AA?$AA@ 1004affc     LIBCMT:winapinls.obj
 0002:00004008       ??_C@_1M@DDMJFMGJ@?$AAa?$AAr?$AA?9?$AAk?$AAw?$AA?$AA@ 1004b008     LIBCMT:winapinls.obj
 0002:00004014       ??_C@_1M@EJALMLHM@?$AAa?$AAr?$AA?9?$AAl?$AAb?$AA?$AA@ 1004b014     LIBCMT:winapinls.obj
 0002:00004020       ??_C@_1M@MOBDBLOC@?$AAa?$AAr?$AA?9?$AAl?$AAy?$AA?$AA@ 1004b020     LIBCMT:winapinls.obj
 0002:0000402c       ??_C@_1M@JAOCLHDH@?$AAa?$AAr?$AA?9?$AAm?$AAa?$AA?$AA@ 1004b02c     LIBCMT:winapinls.obj
 0002:00004038       ??_C@_1M@JHPMKJIE@?$AAa?$AAr?$AA?9?$AAo?$AAm?$AA?$AA@ 1004b038     LIBCMT:winapinls.obj
 0002:00004044       ??_C@_1M@OEPGHFNH@?$AAa?$AAr?$AA?9?$AAq?$AAa?$AA?$AA@ 1004b044     LIBCMT:winapinls.obj
 0002:00004050       ??_C@_1M@KJDONENM@?$AAa?$AAr?$AA?9?$AAs?$AAa?$AA?$AA@ 1004b050     LIBCMT:winapinls.obj
 0002:0000405c       ??_C@_1M@DMJDKLKM@?$AAa?$AAr?$AA?9?$AAs?$AAy?$AA?$AA@ 1004b05c     LIBCMT:winapinls.obj
 0002:00004068       ??_C@_1M@OMFIPEDC@?$AAa?$AAr?$AA?9?$AAt?$AAn?$AA?$AA@ 1004b068     LIBCMT:winapinls.obj
 0002:00004074       ??_C@_1M@IHMHGAON@?$AAa?$AAr?$AA?9?$AAy?$AAe?$AA?$AA@ 1004b074     LIBCMT:winapinls.obj
 0002:00004080       ??_C@_1BG@KDCPGJGB@?$AAa?$AAz?$AA?9?$AAa?$AAz?$AA?9?$AAc?$AAy?$AAr?$AAl?$AA?$AA@ 1004b080     LIBCMT:winapinls.obj
 0002:00004098       ??_C@_1BG@IBCKDDOE@?$AAa?$AAz?$AA?9?$AAa?$AAz?$AA?9?$AAl?$AAa?$AAt?$AAn?$AA?$AA@ 1004b098     LIBCMT:winapinls.obj
 0002:000040b0       ??_C@_1M@EGPFDCPD@?$AAb?$AAe?$AA?9?$AAb?$AAy?$AA?$AA@ 1004b0b0     LIBCMT:winapinls.obj
 0002:000040bc       ??_C@_1M@PCMGMCGC@?$AAb?$AAg?$AA?9?$AAb?$AAg?$AA?$AA@ 1004b0bc     LIBCMT:winapinls.obj
 0002:000040c8       ??_C@_1M@BJBMFGOB@?$AAb?$AAn?$AA?9?$AAi?$AAn?$AA?$AA@ 1004b0c8     LIBCMT:winapinls.obj
 0002:000040d4       ??_C@_1BG@EAKMMACD@?$AAb?$AAs?$AA?9?$AAb?$AAa?$AA?9?$AAl?$AAa?$AAt?$AAn?$AA?$AA@ 1004b0d4     LIBCMT:winapinls.obj
 0002:000040ec       ??_C@_1M@KGADAODK@?$AAc?$AAa?$AA?9?$AAe?$AAs?$AA?$AA@ 1004b0ec     LIBCMT:winapinls.obj
 0002:000040f8       ??_C@_1M@COAJPDHI@?$AAc?$AAs?$AA?9?$AAc?$AAz?$AA?$AA@ 1004b0f8     LIBCMT:winapinls.obj
 0002:00004104       ??_C@_1M@DHBHFONH@?$AAc?$AAy?$AA?9?$AAg?$AAb?$AA?$AA@ 1004b104     LIBCMT:winapinls.obj
 0002:00004110       ??_C@_1M@IMGKELGA@?$AAd?$AAa?$AA?9?$AAd?$AAk?$AA?$AA@ 1004b110     LIBCMT:winapinls.obj
 0002:0000411c       ??_C@_1M@NNDGDNGA@?$AAd?$AAe?$AA?9?$AAa?$AAt?$AA?$AA@ 1004b11c     LIBCMT:winapinls.obj
 0002:00004128       ??_C@_1M@IKDBHEEM@?$AAd?$AAe?$AA?9?$AAc?$AAh?$AA?$AA@ 1004b128     LIBCMT:winapinls.obj
 0002:00004134       ??_C@_1M@GFFOJMCJ@?$AAd?$AAe?$AA?9?$AAd?$AAe?$AA?$AA@ 1004b134     LIBCMT:winapinls.obj
 0002:00004140       ??_C@_1M@MDNLKBPM@?$AAd?$AAe?$AA?9?$AAl?$AAi?$AA?$AA@ 1004b140     LIBCMT:winapinls.obj
 0002:0000414c       ??_C@_1M@NJBEEJNL@?$AAd?$AAe?$AA?9?$AAl?$AAu?$AA?$AA@ 1004b14c     LIBCMT:winapinls.obj
 0002:00004158       ??_C@_1O@GNNELBAP@?$AAd?$AAi?$AAv?$AA?9?$AAm?$AAv?$AA?$AA@ 1004b158     LIBCMT:winapinls.obj
 0002:00004168       ??_C@_1M@EJLEOGAE@?$AAe?$AAl?$AA?9?$AAg?$AAr?$AA?$AA@ 1004b168     LIBCMT:winapinls.obj
 0002:00004174       ??_C@_1M@GMPONJN@?$AAe?$AAn?$AA?9?$AAa?$AAu?$AA?$AA@ 1004b174     LIBCMT:winapinls.obj
 0002:00004180       ??_C@_1M@NIDIIPGF@?$AAe?$AAn?$AA?9?$AAb?$AAz?$AA?$AA@ 1004b180     LIBCMT:winapinls.obj
 0002:0000418c       ??_C@_1M@JEHMIMFO@?$AAe?$AAn?$AA?9?$AAc?$AAa?$AA?$AA@ 1004b18c     LIBCMT:winapinls.obj
 0002:00004198       ??_C@_1M@IGMJCDLA@?$AAe?$AAn?$AA?9?$AAc?$AAb?$AA?$AA@ 1004b198     LIBCMT:winapinls.obj
 0002:000041a4       ??_C@_1M@BNFIGBKG@?$AAe?$AAn?$AA?9?$AAg?$AAb?$AA?$AA@ 1004b1a4     LIBCMT:winapinls.obj
 0002:000041b0       ??_C@_1M@LKIFDIGP@?$AAe?$AAn?$AA?9?$AAi?$AAe?$AA?$AA@ 1004b1b0     LIBCMT:winapinls.obj
 0002:000041bc       ??_C@_1M@PJKFGCCO@?$AAe?$AAn?$AA?9?$AAj?$AAm?$AA?$AA@ 1004b1bc     LIBCMT:winapinls.obj
 0002:000041c8       ??_C@_1M@KPPKEPBO@?$AAe?$AAn?$AA?9?$AAn?$AAz?$AA?$AA@ 1004b1c8     LIBCMT:winapinls.obj
 0002:000041d4       ??_C@_1M@GMDGLDOB@?$AAe?$AAn?$AA?9?$AAp?$AAh?$AA?$AA@ 1004b1d4     LIBCMT:winapinls.obj
 0002:000041e0       ??_C@_1M@ONGIBJNA@?$AAe?$AAn?$AA?9?$AAt?$AAt?$AA?$AA@ 1004b1e0     LIBCMT:winapinls.obj
 0002:000041ec       ??_C@_1M@LLODPCMM@?$AAe?$AAn?$AA?9?$AAu?$AAs?$AA?$AA@ 1004b1ec     LIBCMT:winapinls.obj
 0002:000041f8       ??_C@_1M@LAKFNPAN@?$AAe?$AAn?$AA?9?$AAz?$AAa?$AA?$AA@ 1004b1f8     LIBCMT:winapinls.obj
 0002:00004204       ??_C@_1M@MFNHNHEO@?$AAe?$AAn?$AA?9?$AAz?$AAw?$AA?$AA@ 1004b204     LIBCMT:winapinls.obj
 0002:00004210       ??_C@_1M@EJEINPHM@?$AAe?$AAs?$AA?9?$AAa?$AAr?$AA?$AA@ 1004b210     LIBCMT:winapinls.obj
 0002:0000421c       ??_C@_1M@GNKPCCJA@?$AAe?$AAs?$AA?9?$AAb?$AAo?$AA?$AA@ 1004b21c     LIBCMT:winapinls.obj
 0002:00004228       ??_C@_1M@LEEGFONL@?$AAe?$AAs?$AA?9?$AAc?$AAl?$AA?$AA@ 1004b228     LIBCMT:winapinls.obj
 0002:00004234       ??_C@_1M@KGPDPBDF@?$AAe?$AAs?$AA?9?$AAc?$AAo?$AA?$AA@ 1004b234     LIBCMT:winapinls.obj
 0002:00004240       ??_C@_1M@EIAHOHH@?$AAe?$AAs?$AA?9?$AAc?$AAr?$AA?$AA@ 1004b240     LIBCMT:winapinls.obj
 0002:0000424c       ??_C@_1M@LLPGMBIN@?$AAe?$AAs?$AA?9?$AAd?$AAo?$AA?$AA@ 1004b24c     LIBCMT:winapinls.obj
 0002:00004258       ??_C@_1M@DKHMKNJA@?$AAe?$AAs?$AA?9?$AAe?$AAc?$AA?$AA@ 1004b258     LIBCMT:winapinls.obj
 0002:00004264       ??_C@_1M@GKGFPKAP@?$AAe?$AAs?$AA?9?$AAe?$AAs?$AA?$AA@ 1004b264     LIBCMT:winapinls.obj
 0002:00004270       ??_C@_1M@LKHKGDLN@?$AAe?$AAs?$AA?9?$AAg?$AAt?$AA?$AA@ 1004b270     LIBCMT:winapinls.obj
 0002:0000427c       ??_C@_1M@HEIIGGJD@?$AAe?$AAs?$AA?9?$AAh?$AAn?$AA?$AA@ 1004b27c     LIBCMT:winapinls.obj
 0002:00004288       ??_C@_1M@FBDHPPGD@?$AAe?$AAs?$AA?9?$AAm?$AAx?$AA?$AA@ 1004b288     LIBCMT:winapinls.obj
 0002:00004294       ??_C@_1M@DPAGLNDH@?$AAe?$AAs?$AA?9?$AAn?$AAi?$AA?$AA@ 1004b294     LIBCMT:winapinls.obj
 0002:000042a0       ??_C@_1M@MDGOPGDD@?$AAe?$AAs?$AA?9?$AAp?$AAa?$AA?$AA@ 1004b2a0     LIBCMT:winapinls.obj
 0002:000042ac       ??_C@_1M@EMAMGBGE@?$AAe?$AAs?$AA?9?$AAp?$AAe?$AA?$AA@ 1004b2ac     LIBCMT:winapinls.obj
 0002:000042b8       ??_C@_1M@IBMCAOEC@?$AAe?$AAs?$AA?9?$AAp?$AAr?$AA?$AA@ 1004b2b8     LIBCMT:winapinls.obj
 0002:000042c4       ??_C@_1M@FGMDIJED@?$AAe?$AAs?$AA?9?$AAp?$AAy?$AA?$AA@ 1004b2c4     LIBCMT:winapinls.obj
 0002:000042d0       ??_C@_1M@IIDEOLLL@?$AAe?$AAs?$AA?9?$AAs?$AAv?$AA?$AA@ 1004b2d0     LIBCMT:winapinls.obj
 0002:000042dc       ??_C@_1M@GAOBIPA@?$AAe?$AAs?$AA?9?$AAu?$AAy?$AA?$AA@ 1004b2dc     LIBCMT:winapinls.obj
 0002:000042e8       ??_C@_1M@JKFFICHJ@?$AAe?$AAs?$AA?9?$AAv?$AAe?$AA?$AA@ 1004b2e8     LIBCMT:winapinls.obj
 0002:000042f4       ??_C@_1M@PNMLOJDF@?$AAe?$AAt?$AA?9?$AAe?$AAe?$AA?$AA@ 1004b2f4     LIBCMT:winapinls.obj
 0002:00004300       ??_C@_1M@GHHLIKEI@?$AAe?$AAu?$AA?9?$AAe?$AAs?$AA?$AA@ 1004b300     LIBCMT:winapinls.obj
 0002:0000430c       ??_C@_1M@PBNONODE@?$AAf?$AAa?$AA?9?$AAi?$AAr?$AA?$AA@ 1004b30c     LIBCMT:winapinls.obj
 0002:00004318       ??_C@_1M@JEEHPMIL@?$AAf?$AAi?$AA?9?$AAf?$AAi?$AA?$AA@ 1004b318     LIBCMT:winapinls.obj
 0002:00004324       ??_C@_1M@LMDCNDBA@?$AAf?$AAo?$AA?9?$AAf?$AAo?$AA?$AA@ 1004b324     LIBCMT:winapinls.obj
 0002:00004330       ??_C@_1M@JKEOHLDK@?$AAf?$AAr?$AA?9?$AAb?$AAe?$AA?$AA@ 1004b330     LIBCMT:winapinls.obj
 0002:0000433c       ??_C@_1M@NOHADPMI@?$AAf?$AAr?$AA?9?$AAc?$AAa?$AA?$AA@ 1004b33c     LIBCMT:winapinls.obj
 0002:00004348       ??_C@_1M@KDHIHAEC@?$AAf?$AAr?$AA?9?$AAc?$AAh?$AA?$AA@ 1004b348     LIBCMT:winapinls.obj
 0002:00004354       ??_C@_1M@MMBBFGAK@?$AAf?$AAr?$AA?9?$AAf?$AAr?$AA?$AA@ 1004b354     LIBCMT:winapinls.obj
 0002:00004360       ??_C@_1M@PAFNENNF@?$AAf?$AAr?$AA?9?$AAl?$AAu?$AA?$AA@ 1004b360     LIBCMT:winapinls.obj
 0002:0000436c       ??_C@_1M@EOHDJGDD@?$AAf?$AAr?$AA?9?$AAm?$AAc?$AA?$AA@ 1004b36c     LIBCMT:winapinls.obj
 0002:00004378       ??_C@_1M@FAPLLOPF@?$AAg?$AAl?$AA?9?$AAe?$AAs?$AA?$AA@ 1004b378     LIBCMT:winapinls.obj
 0002:00004384       ??_C@_1M@FOPBFLOO@?$AAg?$AAu?$AA?9?$AAi?$AAn?$AA?$AA@ 1004b384     LIBCMT:winapinls.obj
 0002:00004390       ??_C@_1M@KBMCINPM@?$AAh?$AAe?$AA?9?$AAi?$AAl?$AA?$AA@ 1004b390     LIBCMT:winapinls.obj
 0002:0000439c       ??_C@_1M@BBPHKFPJ@?$AAh?$AAi?$AA?9?$AAi?$AAn?$AA?$AA@ 1004b39c     LIBCMT:winapinls.obj
 0002:000043a8       ??_C@_1M@PMBNDPHD@?$AAh?$AAr?$AA?9?$AAb?$AAa?$AA?$AA@ 1004b3a8     LIBCMT:winapinls.obj
 0002:000043b4       ??_C@_1M@BPCKOEGE@?$AAh?$AAr?$AA?9?$AAh?$AAr?$AA?$AA@ 1004b3b4     LIBCMT:winapinls.obj
 0002:000043c0       ??_C@_1M@GACBMHKE@?$AAh?$AAu?$AA?9?$AAh?$AAu?$AA?$AA@ 1004b3c0     LIBCMT:winapinls.obj
 0002:000043cc       ??_C@_1M@MILPAJJC@?$AAh?$AAy?$AA?9?$AAa?$AAm?$AA?$AA@ 1004b3cc     LIBCMT:winapinls.obj
 0002:000043d8       ??_C@_1M@BABBICEC@?$AAi?$AAd?$AA?9?$AAi?$AAd?$AA?$AA@ 1004b3d8     LIBCMT:winapinls.obj
 0002:000043e4       ??_C@_1M@BIKNHHPF@?$AAi?$AAs?$AA?9?$AAi?$AAs?$AA?$AA@ 1004b3e4     LIBCMT:winapinls.obj
 0002:000043f0       ??_C@_1M@NMPCJPHE@?$AAi?$AAt?$AA?9?$AAc?$AAh?$AA?$AA@ 1004b3f0     LIBCMT:winapinls.obj
 0002:000043fc       ??_C@_1M@GHKGFEDF@?$AAi?$AAt?$AA?9?$AAi?$AAt?$AA?$AA@ 1004b3fc     LIBCMT:winapinls.obj
 0002:00004408       ??_C@_1M@NIEJCJJA@?$AAj?$AAa?$AA?9?$AAj?$AAp?$AA?$AA@ 1004b408     LIBCMT:winapinls.obj
 0002:00004414       ??_C@_1M@JILFNBIM@?$AAk?$AAa?$AA?9?$AAg?$AAe?$AA?$AA@ 1004b414     LIBCMT:winapinls.obj
 0002:00004420       ??_C@_1M@PACPMGPH@?$AAk?$AAk?$AA?9?$AAk?$AAz?$AA?$AA@ 1004b420     LIBCMT:winapinls.obj
 0002:0000442c       ??_C@_1M@IELFGMHA@?$AAk?$AAn?$AA?9?$AAi?$AAn?$AA?$AA@ 1004b42c     LIBCMT:winapinls.obj
 0002:00004438       ??_C@_1O@IBBJHCH@?$AAk?$AAo?$AAk?$AA?9?$AAi?$AAn?$AA?$AA@ 1004b438     LIBCMT:winapinls.obj
 0002:00004448       ??_C@_1M@DMHAEOGC@?$AAk?$AAo?$AA?9?$AAk?$AAr?$AA?$AA@ 1004b448     LIBCMT:winapinls.obj
 0002:00004454       ??_C@_1M@HBAHBIGA@?$AAk?$AAy?$AA?9?$AAk?$AAg?$AA?$AA@ 1004b454     LIBCMT:winapinls.obj
 0002:00004460       ??_C@_1M@KPMILCJG@?$AAl?$AAt?$AA?9?$AAl?$AAt?$AA?$AA@ 1004b460     LIBCMT:winapinls.obj
 0002:0000446c       ??_C@_1M@BDEKKCA@?$AAl?$AAv?$AA?9?$AAl?$AAv?$AA?$AA@ 1004b46c     LIBCMT:winapinls.obj
 0002:00004478       ??_C@_1M@ELCKCCJJ@?$AAm?$AAi?$AA?9?$AAn?$AAz?$AA?$AA@ 1004b478     LIBCMT:winapinls.obj
 0002:00004484       ??_C@_1M@CBOOLAPA@?$AAm?$AAk?$AA?9?$AAm?$AAk?$AA?$AA@ 1004b484     LIBCMT:winapinls.obj
 0002:00004490       ??_C@_1M@GPHNBJKN@?$AAm?$AAl?$AA?9?$AAi?$AAn?$AA?$AA@ 1004b490     LIBCMT:winapinls.obj
 0002:0000449c       ??_C@_1M@PABJILIG@?$AAm?$AAn?$AA?9?$AAm?$AAn?$AA?$AA@ 1004b49c     LIBCMT:winapinls.obj
 0002:000044a8       ??_C@_1M@FGBKKIPG@?$AAm?$AAr?$AA?9?$AAi?$AAn?$AA?$AA@ 1004b4a8     LIBCMT:winapinls.obj
 0002:000044b4       ??_C@_1M@NDBPDDAL@?$AAm?$AAs?$AA?9?$AAb?$AAn?$AA?$AA@ 1004b4b4     LIBCMT:winapinls.obj
 0002:000044c0       ??_C@_1M@OPIHOOPI@?$AAm?$AAs?$AA?9?$AAm?$AAy?$AA?$AA@ 1004b4c0     LIBCMT:winapinls.obj
 0002:000044cc       ??_C@_1M@PPDBCNFM@?$AAm?$AAt?$AA?9?$AAm?$AAt?$AA?$AA@ 1004b4cc     LIBCMT:winapinls.obj
 0002:000044d8       ??_C@_1M@KDJDKMDD@?$AAn?$AAb?$AA?9?$AAn?$AAo?$AA?$AA@ 1004b4d8     LIBCMT:winapinls.obj
 0002:000044e4       ??_C@_1M@KFCFLMJP@?$AAn?$AAl?$AA?9?$AAb?$AAe?$AA?$AA@ 1004b4e4     LIBCMT:winapinls.obj
 0002:000044f0       ??_C@_1M@KPOPDDGO@?$AAn?$AAl?$AA?9?$AAn?$AAl?$AA?$AA@ 1004b4f0     LIBCMT:winapinls.obj
 0002:000044fc       ??_C@_1M@LJKPEMLN@?$AAn?$AAn?$AA?9?$AAn?$AAo?$AA?$AA@ 1004b4fc     LIBCMT:winapinls.obj
 0002:00004508       ??_C@_1M@BDGHHBFL@?$AAn?$AAs?$AA?9?$AAz?$AAa?$AA?$AA@ 1004b508     LIBCMT:winapinls.obj
 0002:00004514       ??_C@_1M@IDEHOAP@?$AAp?$AAa?$AA?9?$AAi?$AAn?$AA?$AA@ 1004b514     LIBCMT:winapinls.obj
 0002:00004520       ??_C@_1M@HDBKGOGH@?$AAp?$AAl?$AA?9?$AAp?$AAl?$AA?$AA@ 1004b520     LIBCMT:winapinls.obj
 0002:0000452c       ??_C@_1M@LJLLCMEH@?$AAp?$AAt?$AA?9?$AAb?$AAr?$AA?$AA@ 1004b52c     LIBCMT:winapinls.obj
 0002:00004538       ??_C@_1M@NCMONAAL@?$AAp?$AAt?$AA?9?$AAp?$AAt?$AA?$AA@ 1004b538     LIBCMT:winapinls.obj
 0002:00004544       ??_C@_1O@EAKMAJDN@?$AAq?$AAu?$AAz?$AA?9?$AAb?$AAo?$AA?$AA@ 1004b544     LIBCMT:winapinls.obj
 0002:00004554       ??_C@_1O@BHHPIGDN@?$AAq?$AAu?$AAz?$AA?9?$AAe?$AAc?$AA?$AA@ 1004b554     LIBCMT:winapinls.obj
 0002:00004564       ??_C@_1O@GBAPEKMJ@?$AAq?$AAu?$AAz?$AA?9?$AAp?$AAe?$AA?$AA@ 1004b564     LIBCMT:winapinls.obj
 0002:00004574       ??_C@_1M@CLGLEFBO@?$AAr?$AAo?$AA?9?$AAr?$AAo?$AA?$AA@ 1004b574     LIBCMT:winapinls.obj
 0002:00004580       ??_C@_1M@CEEDODME@?$AAr?$AAu?$AA?9?$AAr?$AAu?$AA?$AA@ 1004b580     LIBCMT:winapinls.obj
 0002:0000458c       ??_C@_1M@HPKKKMPP@?$AAs?$AAa?$AA?9?$AAi?$AAn?$AA?$AA@ 1004b58c     LIBCMT:winapinls.obj
 0002:00004598       ??_C@_1M@BKMAIGOJ@?$AAs?$AAe?$AA?9?$AAf?$AAi?$AA?$AA@ 1004b598     LIBCMT:winapinls.obj
 0002:000045a4       ??_C@_1M@NDPIFLFI@?$AAs?$AAe?$AA?9?$AAn?$AAo?$AA?$AA@ 1004b5a4     LIBCMT:winapinls.obj
 0002:000045b0       ??_C@_1M@DANKKHJ@?$AAs?$AAe?$AA?9?$AAs?$AAe?$AA?$AA@ 1004b5b0     LIBCMT:winapinls.obj
 0002:000045bc       ??_C@_1M@PNBLONPJ@?$AAs?$AAk?$AA?9?$AAs?$AAk?$AA?$AA@ 1004b5bc     LIBCMT:winapinls.obj
 0002:000045c8       ??_C@_1M@LFMODOAL@?$AAs?$AAl?$AA?9?$AAs?$AAi?$AA?$AA@ 1004b5c8     LIBCMT:winapinls.obj
 0002:000045d4       ??_C@_1O@DFKOMPG@?$AAs?$AAm?$AAa?$AA?9?$AAn?$AAo?$AA?$AA@ 1004b5d4     LIBCMT:winapinls.obj
 0002:000045e4       ??_C@_1O@NDKPBNNH@?$AAs?$AAm?$AAa?$AA?9?$AAs?$AAe?$AA?$AA@ 1004b5e4     LIBCMT:winapinls.obj
 0002:000045f4       ??_C@_1O@PLLKBHAB@?$AAs?$AAm?$AAj?$AA?9?$AAn?$AAo?$AA?$AA@ 1004b5f4     LIBCMT:winapinls.obj
 0002:00004604       ??_C@_1O@CLEPOGCA@?$AAs?$AAm?$AAj?$AA?9?$AAs?$AAe?$AA?$AA@ 1004b604     LIBCMT:winapinls.obj
 0002:00004614       ??_C@_1O@DLGJGKMK@?$AAs?$AAm?$AAn?$AA?9?$AAf?$AAi?$AA?$AA@ 1004b614     LIBCMT:winapinls.obj
 0002:00004624       ??_C@_1O@OJDJGAJC@?$AAs?$AAm?$AAs?$AA?9?$AAf?$AAi?$AA?$AA@ 1004b624     LIBCMT:winapinls.obj
 0002:00004634       ??_C@_1M@BOFOGHPB@?$AAs?$AAq?$AA?9?$AAa?$AAl?$AA?$AA@ 1004b634     LIBCMT:winapinls.obj
 0002:00004640       ??_C@_1BG@LJBBIPGB@?$AAs?$AAr?$AA?9?$AAb?$AAa?$AA?9?$AAc?$AAy?$AAr?$AAl?$AA?$AA@ 1004b640     LIBCMT:winapinls.obj
 0002:00004658       ??_C@_1BG@JLBENFOE@?$AAs?$AAr?$AA?9?$AAb?$AAa?$AA?9?$AAl?$AAa?$AAt?$AAn?$AA?$AA@ 1004b658     LIBCMT:winapinls.obj
 0002:00004670       ??_C@_1BG@KODPNHE@?$AAs?$AAr?$AA?9?$AAs?$AAp?$AA?9?$AAc?$AAy?$AAr?$AAl?$AA?$AA@ 1004b670     LIBCMT:winapinls.obj
 0002:00004688       ??_C@_1BG@CIOGKHPB@?$AAs?$AAr?$AA?9?$AAs?$AAp?$AA?9?$AAl?$AAa?$AAt?$AAn?$AA?$AA@ 1004b688     LIBCMT:winapinls.obj
 0002:000046a0       ??_C@_1M@NGFJLMAC@?$AAs?$AAv?$AA?9?$AAf?$AAi?$AA?$AA@ 1004b6a0     LIBCMT:winapinls.obj
 0002:000046ac       ??_C@_1M@MPJEJAJC@?$AAs?$AAv?$AA?9?$AAs?$AAe?$AA?$AA@ 1004b6ac     LIBCMT:winapinls.obj
 0002:000046b8       ??_C@_1M@MPNDHLFK@?$AAs?$AAw?$AA?9?$AAk?$AAe?$AA?$AA@ 1004b6b8     LIBCMT:winapinls.obj
 0002:000046c4       ??_C@_1O@KOHBJJI@?$AAs?$AAy?$AAr?$AA?9?$AAs?$AAy?$AA?$AA@ 1004b6c4     LIBCMT:winapinls.obj
 0002:000046d4       ??_C@_1M@LDCEFHA@?$AAt?$AAa?$AA?9?$AAi?$AAn?$AA?$AA@ 1004b6d4     LIBCMT:winapinls.obj
 0002:000046e0       ??_C@_1M@CNJOFAK@?$AAt?$AAe?$AA?9?$AAi?$AAn?$AA?$AA@ 1004b6e0     LIBCMT:winapinls.obj
 0002:000046ec       ??_C@_1M@GNAECACD@?$AAt?$AAh?$AA?9?$AAt?$AAh?$AA?$AA@ 1004b6ec     LIBCMT:winapinls.obj
 0002:000046f8       ??_C@_1M@CHBIHOJO@?$AAt?$AAn?$AA?9?$AAz?$AAa?$AA?$AA@ 1004b6f8     LIBCMT:winapinls.obj
 0002:00004704       ??_C@_1M@GCCMIGPJ@?$AAt?$AAr?$AA?9?$AAt?$AAr?$AA?$AA@ 1004b704     LIBCMT:winapinls.obj
 0002:00004710       ??_C@_1M@CELMCNBK@?$AAt?$AAt?$AA?9?$AAr?$AAu?$AA?$AA@ 1004b710     LIBCMT:winapinls.obj
 0002:0000471c       ??_C@_1M@KLMCELGA@?$AAu?$AAk?$AA?9?$AAu?$AAa?$AA?$AA@ 1004b71c     LIBCMT:winapinls.obj
 0002:00004728       ??_C@_1M@EPAJJAJF@?$AAu?$AAr?$AA?9?$AAp?$AAk?$AA?$AA@ 1004b728     LIBCMT:winapinls.obj
 0002:00004734       ??_C@_1BG@GEGPMCDJ@?$AAu?$AAz?$AA?9?$AAu?$AAz?$AA?9?$AAc?$AAy?$AAr?$AAl?$AA?$AA@ 1004b734     LIBCMT:winapinls.obj
 0002:0000474c       ??_C@_1BG@EGGKJILM@?$AAu?$AAz?$AA?9?$AAu?$AAz?$AA?9?$AAl?$AAa?$AAt?$AAn?$AA?$AA@ 1004b74c     LIBCMT:winapinls.obj
 0002:00004764       ??_C@_1M@GFOCLFF@?$AAv?$AAi?$AA?9?$AAv?$AAn?$AA?$AA@ 1004b764     LIBCMT:winapinls.obj
 0002:00004770       ??_C@_1M@CPAMEDFI@?$AAx?$AAh?$AA?9?$AAz?$AAa?$AA?$AA@ 1004b770     LIBCMT:winapinls.obj
 0002:0000477c       ??_C@_1O@EBKIFIGN@?$AAz?$AAh?$AA?9?$AAc?$AAh?$AAs?$AA?$AA@ 1004b77c     LIBCMT:winapinls.obj
 0002:0000478c       ??_C@_1O@NMHPGANE@?$AAz?$AAh?$AA?9?$AAc?$AAh?$AAt?$AA?$AA@ 1004b78c     LIBCMT:winapinls.obj
 0002:0000479c       ??_C@_1M@LPINJOMC@?$AAz?$AAh?$AA?9?$AAc?$AAn?$AA?$AA@ 1004b79c     LIBCMT:winapinls.obj
 0002:000047a8       ??_C@_1M@OCJEJODD@?$AAz?$AAh?$AA?9?$AAh?$AAk?$AA?$AA@ 1004b7a8     LIBCMT:winapinls.obj
 0002:000047b4       ??_C@_1M@DNDLJINH@?$AAz?$AAh?$AA?9?$AAm?$AAo?$AA?$AA@ 1004b7b4     LIBCMT:winapinls.obj
 0002:000047c0       ??_C@_1M@MBFDNDND@?$AAz?$AAh?$AA?9?$AAs?$AAg?$AA?$AA@ 1004b7c0     LIBCMT:winapinls.obj
 0002:000047cc       ??_C@_1M@IMEPLEPE@?$AAz?$AAh?$AA?9?$AAt?$AAw?$AA?$AA@ 1004b7cc     LIBCMT:winapinls.obj
 0002:000047d8       ??_C@_1M@BBGHNHJP@?$AAz?$AAu?$AA?9?$AAz?$AAa?$AA?$AA@ 1004b7d8     LIBCMT:winapinls.obj
 0002:000047e4       __FPinit                   1004b7e4     LIBCMT:fpinit.obj
 0002:000047e8       ??_C@_1BG@GOEBHBDC@?$AAU?$AAS?$AAE?$AAR?$AA3?$AA2?$AA?4?$AAD?$AAL?$AAL?$AA?$AA@ 1004b7e8     LIBCMT:crtmboxw.obj
 0002:00004800       ??_C@_0M@DLDCCGNP@MessageBoxW?$AA@ 1004b800     LIBCMT:crtmboxw.obj
 0002:0000480c       ??_C@_0BA@HNOPNCHB@GetActiveWindow?$AA@ 1004b80c     LIBCMT:crtmboxw.obj
 0002:0000481c       ??_C@_0BD@HHGDFDBJ@GetLastActivePopup?$AA@ 1004b81c     LIBCMT:crtmboxw.obj
 0002:00004830       ??_C@_0BK@DEKFELLI@GetUserObjectInformationW?$AA@ 1004b830     LIBCMT:crtmboxw.obj
 0002:0000484c       ??_C@_0BI@DFKBFLJE@GetProcessWindowStation?$AA@ 1004b84c     LIBCMT:crtmboxw.obj
 0002:00004864       ??_C@_05KLBDPFGC@e?$CL000?$AA@ 1004b864     LIBCMT:cvt.obj
 0002:0000486c       ??_C@_1BA@BALFACEM@?$AAC?$AAO?$AAN?$AAO?$AAU?$AAT?$AA$?$AA?$AA@ 1004b86c     LIBCMT:initcon.obj
 0002:0000487c       ??_C@_06PGGFOGJG@1?$CDSNAN?$AA@ 1004b87c     LIBCMT:x10fout.obj
 0002:00004884       ??_C@_05PHHOCPM@1?$CDIND?$AA@ 1004b884     LIBCMT:x10fout.obj
 0002:0000488c       ??_C@_05DNEBIAHO@1?$CDINF?$AA@ 1004b88c     LIBCMT:x10fout.obj
 0002:00004894       ??_C@_06IMKFLFPG@1?$CDQNAN?$AA@ 1004b894     LIBCMT:x10fout.obj
 0002:0000489c       ??_C@_0BF@PJJIPJIB@?4?2crypto?2ec?2ec_key?4c?$AA@ 1004b89c     libeay32120:ec_key.obj
 0002:000048b8       _BN_version                1004b8b8     libeay32120:bn_lib.obj
 0002:000049e8       ??_C@_0BF@OGBNCIDG@?4?2crypto?2bn?2bn_lib?4c?$AA@ 1004b9e8     libeay32120:bn_lib.obj
 0002:00004a14       ??_C@_01GBGANLPD@0?$AA@    1004ba14     libeay32120:bn_print.obj
 0002:00004a40       ??_C@_0BF@KGHFPEKG@?4?2crypto?2ec?2ec_lib?4c?$AA@ 1004ba40     libeay32120:ec_lib.obj
 0002:00004a9c       ??_C@_01KDCPPGHE@r?$AA@    1004ba9c     libeay32120:ecs_asn1.obj
 0002:00004aa0       ??_C@_01LKDEMHDF@s?$AA@    1004baa0     libeay32120:ecs_asn1.obj
 0002:00004aa4       ??_C@_09FLJPBFIA@ECDSA_SIG?$AA@ 1004baa4     libeay32120:ecs_asn1.obj
 0002:00004ab0       ??_C@_0BF@NFDFGKJD@?4?2crypto?2bn?2bn_div?4c?$AA@ 1004bab0     libeay32120:bn_div.obj
 0002:00004bc8       _SHA256_version            1004bbc8     libeay32120:sha256.obj
 0002:00004bf4       ??_C@_0BF@LAJPHOCL@?4?2crypto?2bn?2bn_ctx?4c?$AA@ 1004bbf4     libeay32120:bn_ctx.obj
 0002:00004c0c       ??_C@_09OGFJIAEE@?$DM?$DMERROR?$DO?$DO?$AA@ 1004bc0c     libeay32120:cryptlib.obj
 0002:00004c18       ??_C@_03JIDPIAJI@err?$AA@  1004bc18     libeay32120:cryptlib.obj
 0002:00004c1c       ??_C@_07OALPHBKG@ex_data?$AA@ 1004bc1c     libeay32120:cryptlib.obj
 0002:00004c24       ??_C@_04BNGFMDFF@x509?$AA@ 1004bc24     libeay32120:cryptlib.obj
 0002:00004c2c       ??_C@_09DJEHILFA@x509_info?$AA@ 1004bc2c     libeay32120:cryptlib.obj
 0002:00004c38       ??_C@_09HNLHIFBP@x509_pkey?$AA@ 1004bc38     libeay32120:cryptlib.obj
 0002:00004c44       ??_C@_08BJFLLMNA@x509_crl?$AA@ 1004bc44     libeay32120:cryptlib.obj
 0002:00004c50       ??_C@_08BHPLFFMD@x509_req?$AA@ 1004bc50     libeay32120:cryptlib.obj
 0002:00004c5c       ??_C@_03EAKOMMFI@dsa?$AA@  1004bc5c     libeay32120:cryptlib.obj
 0002:00004c60       ??_C@_03DFNMMEBL@rsa?$AA@  1004bc60     libeay32120:cryptlib.obj
 0002:00004c64       ??_C@_08NBJJIGBN@evp_pkey?$AA@ 1004bc64     libeay32120:cryptlib.obj
 0002:00004c70       ??_C@_0L@JCDDFIOK@x509_store?$AA@ 1004bc70     libeay32120:cryptlib.obj
 0002:00004c7c       ??_C@_07DNHKIAPH@ssl_ctx?$AA@ 1004bc7c     libeay32120:cryptlib.obj
 0002:00004c84       ??_C@_08INIFBEOB@ssl_cert?$AA@ 1004bc84     libeay32120:cryptlib.obj
 0002:00004c90       ??_C@_0M@OAEAFGMD@ssl_session?$AA@ 1004bc90     libeay32120:cryptlib.obj
 0002:00004c9c       ??_C@_0O@LOCLBOHA@ssl_sess_cert?$AA@ 1004bc9c     libeay32120:cryptlib.obj
 0002:00004cac       ??_C@_03DIMONNDD@ssl?$AA@  1004bcac     libeay32120:cryptlib.obj
 0002:00004cb0       ??_C@_0L@NKBFNPDB@ssl_method?$AA@ 1004bcb0     libeay32120:cryptlib.obj
 0002:00004cbc       ??_C@_04HKINGDKC@rand?$AA@ 1004bcbc     libeay32120:cryptlib.obj
 0002:00004cc4       ??_C@_05NFNCBLNG@rand2?$AA@ 1004bcc4     libeay32120:cryptlib.obj
 0002:00004ccc       ??_C@_0N@CLEMOJNL@debug_malloc?$AA@ 1004bccc     libeay32120:cryptlib.obj
 0002:00004cdc       ??_C@_03OHAMFFNA@BIO?$AA@  1004bcdc     libeay32120:cryptlib.obj
 0002:00004ce0       ??_C@_0O@BFBCKHPD@gethostbyname?$AA@ 1004bce0     libeay32120:cryptlib.obj
 0002:00004cf0       ??_C@_0O@NKLJGHIL@getservbyname?$AA@ 1004bcf0     libeay32120:cryptlib.obj
 0002:00004d00       ??_C@_07OMHHFDME@readdir?$AA@ 1004bd00     libeay32120:cryptlib.obj
 0002:00004d08       ??_C@_0N@BGAJKBNF@RSA_blinding?$AA@ 1004bd08     libeay32120:cryptlib.obj
 0002:00004d18       ??_C@_02OCEEKELO@dh?$AA@   1004bd18     libeay32120:cryptlib.obj
 0002:00004d1c       ??_C@_0O@PMFKBDME@debug_malloc2?$AA@ 1004bd1c     libeay32120:cryptlib.obj
 0002:00004d2c       ??_C@_03NOCNOBNG@dso?$AA@  1004bd2c     libeay32120:cryptlib.obj
 0002:00004d30       ??_C@_07HGGNMPAJ@dynlock?$AA@ 1004bd30     libeay32120:cryptlib.obj
 0002:00004d38       ??_C@_06LOBMEHPF@engine?$AA@ 1004bd38     libeay32120:cryptlib.obj
 0002:00004d40       ??_C@_02OGLLFMLI@ui?$AA@   1004bd40     libeay32120:cryptlib.obj
 0002:00004d44       ??_C@_06BDIEFCAE@hwcrhk?$AA@ 1004bd44     libeay32120:cryptlib.obj
 0002:00004d4c       ??_C@_05FGIDCBJD@ecdsa?$AA@ 1004bd4c     libeay32120:cryptlib.obj
 0002:00004d54       ??_C@_02HCBHEC@ec?$AA@     1004bd54     libeay32120:cryptlib.obj
 0002:00004d58       ??_C@_04KDGGCKGB@ecdh?$AA@ 1004bd58     libeay32120:cryptlib.obj
 0002:00004d60       ??_C@_02LAJDHPIK@bn?$AA@   1004bd60     libeay32120:cryptlib.obj
 0002:00004d64       ??_C@_0M@FNJFEIGB@ec_pre_comp?$AA@ 1004bd64     libeay32120:cryptlib.obj
 0002:00004d70       ??_C@_0BE@MCNNLDKP@?4?2crypto?2cryptlib?4c?$AA@ 1004bd70     libeay32120:cryptlib.obj
 0002:00004d84       ??_C@_0BA@LPBALOME@pointer?5?$CB?$DN?5NULL?$AA@ 1004bd84     libeay32120:cryptlib.obj
 0002:00004d94       ??_C@_0DG@JJAMFCAP@?$CFs?$CI?$CFd?$CJ?3?5OpenSSL?5internal?5error?0?5@ 1004bd94     libeay32120:cryptlib.obj
 0002:00004dcc       ??_C@_0BG@BDCFJOOA@?4?2crypto?2bn?2bn_rand?4c?$AA@ 1004bdcc     libeay32120:bn_rand.obj
 0002:00004de4       ??_C@_0CL@EBHGFHPN@03FFFFFFFFFFFFFFFFFFFF48AAB689C2@ 1004bde4     libeay32120:ec_curve.obj
 0002:00004e10       ??_C@_0CH@GKKFHOF@SECG?5curve?5over?5a?5163?5bit?5binary@ 1004be10     libeay32120:ec_curve.obj
 0002:00005d98       ??_C@_0CL@HEOEMBKD@020A601907B8C953CA1481EB10512F78@ 1004cd98     libeay32120:ec_curve.obj
 0002:00005dc4       ??_C@_0CL@LINOKKFB@03F0EBA16286A2D57EA0991168D49946@ 1004cdc4     libeay32120:ec_curve.obj
 0002:00005df0       ??_C@_0CL@BNIJOFII@00D51FBC6C71A0094FA2CDD545B11C5C@ 1004cdf0     libeay32120:ec_curve.obj
 0002:00005e1c       ??_C@_0CL@BCAGACCK@040000000000000000000292FE77E70C@ 1004ce1c     libeay32120:ec_curve.obj
 0002:00005e48       ??_C@_0CM@HCIKDLO@NIST?1SECG?5curve?5over?5a?5163?5bit?5b@ 1004ce48     libeay32120:ec_curve.obj
 0002:00005e74       ??_C@_0DD@MILNLGCC@02000000000000000000000000000000@ 1004ce74     libeay32120:ec_curve.obj
 0002:00005ea8       ??_C@_0DD@DGCHJJBJ@0017858FEB7A98975169E171F77B4087@ 1004cea8     libeay32120:ec_curve.obj
 0002:00005edc       ??_C@_0DD@IIFNMAMG@00FDFB49BFE6C3A89FACADAA7A1E5BBC@ 1004cedc     libeay32120:ec_curve.obj
 0002:00005f10       ??_C@_0DD@JPAKFEII@01F481BC5F0FF84A74AD6CDF6FDEF4BF@ 1004cf10     libeay32120:ec_curve.obj
 0002:00005f44       ??_C@_0DD@JJHONLME@0025E399F2903712CCF3EA9E3A1AD17F@ 1004cf44     libeay32120:ec_curve.obj
 0002:00005f78       ??_C@_0DD@JCCJKEBL@01000000000000000000000000C7F34A@ 1004cf78     libeay32120:ec_curve.obj
 0002:00005fac       ??_C@_0CH@HKDFCHME@SECG?5curve?5over?5a?5193?5bit?5binary@ 1004cfac     libeay32120:ec_curve.obj
 0002:00005fd4       ??_C@_0DD@NBPCBFCI@0163F35A5137C2CE3EA6ED8667190B0B@ 1004cfd4     libeay32120:ec_curve.obj
 0002:00006008       ??_C@_0DD@KHLNNION@00C9BB9E8927D4D64C377E2AB2856A5B@ 1004d008     libeay32120:ec_curve.obj
 0002:0000603c       ??_C@_0DD@GGAJGHND@00D9B67D192E0367C803F39E1A7E82CA@ 1004d03c     libeay32120:ec_curve.obj
 0002:00006070       ??_C@_0DD@DBKONANO@01CE94335607C304AC29E7DEFBD9CA01@ 1004d070     libeay32120:ec_curve.obj
 0002:000060a4       ??_C@_0DD@LCNHKLC@010000000000000000000000015AAB56@ 1004d0a4     libeay32120:ec_curve.obj
 0002:000060d8       ??_C@_0DN@CMFGEJKA@02000000000000000000000000000000@ 1004d0d8     libeay32120:ec_curve.obj
 0002:00006118       ??_C@_0DN@PMLLGPLO@017232BA853A7E731AF129F22FF41495@ 1004d118     libeay32120:ec_curve.obj
 0002:00006158       ??_C@_0DN@JNNCCFCL@01DB537DECE819B7F70F555A67C427A8@ 1004d158     libeay32120:ec_curve.obj
 0002:00006198       ??_C@_0DN@ICANBKHC@00800000000000000000000000000006@ 1004d198     libeay32120:ec_curve.obj
 0002:000061d8       ??_C@_0DB@PNCPLOPN@NIST?1SECG?1WTLS?5curve?5over?5a?5233?5@ 1004d1d8     libeay32120:ec_curve.obj
 0002:0000620c       ??_C@_0DN@CMGNLJKG@00000000000000000000000000000000@ 1004d20c     libeay32120:ec_curve.obj
 0002:0000624c       ??_C@_0DN@HFMDPMGE@0066647EDE6C332C7F8C0923BB58213B@ 1004d24c     libeay32120:ec_curve.obj
 0002:0000628c       ??_C@_0DN@FGKPOKON@00FAC9DFCBAC8313BB2139F1BB755FEF@ 1004d28c     libeay32120:ec_curve.obj
 0002:000062cc       ??_C@_0DN@NGABPGAG@01006A08A41903350678E58528BEBF8A@ 1004d2cc     libeay32120:ec_curve.obj
 0002:0000630c       ??_C@_0DN@NCBBCNPJ@01000000000000000000000000000013@ 1004d30c     libeay32120:ec_curve.obj
 0002:0000634c       ??_C@_0DN@GCFJJCNK@80000000000000000000400000000000@ 1004d34c     libeay32120:ec_curve.obj
 0002:0000638c       ??_C@_0DN@DICPLOOG@29A0B6A887A983E9730988A68727A8B2@ 1004d38c     libeay32120:ec_curve.obj
 0002:000063cc       ??_C@_0DN@CFKJLDEH@76310804F12E549BDB011C103089E735@ 1004d3cc     libeay32120:ec_curve.obj
 0002:0000640c       ??_C@_0DN@GMJEOECE@2000000000000000000000000000005A@ 1004d40c     libeay32120:ec_curve.obj
 0002:0000644c       ??_C@_0CH@CLCLBOGN@SECG?5curve?5over?5a?5239?5bit?5binary@ 1004d44c     libeay32120:ec_curve.obj
 0002:00006478       ??_C@_0EJ@JBJAGLBF@08000000000000000000000000000000@ 1004d478     libeay32120:ec_curve.obj
 0002:000064c8       ??_C@_0EJ@PKMPDCLH@0503213F78CA44883F1A3B8162F188E5@ 1004d4c8     libeay32120:ec_curve.obj
 0002:00006518       ??_C@_0EJ@NHJKIFIC@01CCDA380F1C9E318D90F95D07E5426F@ 1004d518     libeay32120:ec_curve.obj
 0002:00006568       ??_C@_0EJ@BABGJLPC@01FFFFFFFFFFFFFFFFFFFFFFFFFFFFFF@ 1004d568     libeay32120:ec_curve.obj
 0002:000065b4       ??_C@_0CM@GFMOGKDK@NIST?1SECG?5curve?5over?5a?5283?5bit?5b@ 1004d5b4     libeay32120:ec_curve.obj
 0002:000065e0       ??_C@_0EJ@IJMOMPKF@00000000000000000000000000000000@ 1004d5e0     libeay32120:ec_curve.obj
 0002:00006630       ??_C@_0EJ@BMCMHGKL@027B680AC8B8596DA5A4AF8A19A0303F@ 1004d630     libeay32120:ec_curve.obj
 0002:00006680       ??_C@_0EJ@BHGHAALC@05F939258DB7DD90E1934F8C70B0DFEC@ 1004d680     libeay32120:ec_curve.obj
 0002:000066d0       ??_C@_0EJ@JNLPOLB@03676854FE24141CB98FE6D4B20D02B4@ 1004d6d0     libeay32120:ec_curve.obj
 0002:00006720       ??_C@_0EJ@DNDJJNNM@03FFFFFFFFFFFFFFFFFFFFFFFFFFFFFF@ 1004d720     libeay32120:ec_curve.obj
 0002:00006770       ??_C@_0GJ@KMBGFIOM@02000000000000000000000000000000@ 1004d770     libeay32120:ec_curve.obj
 0002:000067e0       ??_C@_0GJ@JHNGHILE@0060F05F658F49C1AD3AB1890F718421@ 1004d7e0     libeay32120:ec_curve.obj
 0002:00006850       ??_C@_0GJ@LELALKNN@01E369050B7C4E42ACBA1DACBF04299C@ 1004d850     libeay32120:ec_curve.obj
 0002:000068c0       ??_C@_0GJ@NAANHFDL@007FFFFFFFFFFFFFFFFFFFFFFFFFFFFF@ 1004d8c0     libeay32120:ec_curve.obj
 0002:0000692c       ??_C@_0CM@HDDNKCDK@NIST?1SECG?5curve?5over?5a?5409?5bit?5b@ 1004d92c     libeay32120:ec_curve.obj
 0002:00006958       ??_C@_0GJ@LFNCJKBA@00000000000000000000000000000000@ 1004d958     libeay32120:ec_curve.obj
 0002:000069c8       ??_C@_0GJ@NBAHPFHH@0021A5C2C8EE9FEB5C4B9A753B7B476B@ 1004d9c8     libeay32120:ec_curve.obj
 0002:00006a38       ??_C@_0GJ@CLLEPAGO@015D4860D088DDB3496B0C6064756260@ 1004da38     libeay32120:ec_curve.obj
 0002:00006aa8       ??_C@_0GJ@DJJIPKHI@0061B1CFAB6BE5F32BBFA78324ED106A@ 1004daa8     libeay32120:ec_curve.obj
 0002:00006b18       ??_C@_0GJ@MAKMEDBJ@01000000000000000000000000000000@ 1004db18     libeay32120:ec_curve.obj
 0002:00006b88       ??_C@_0JA@IMPAOLHO@80000000000000000000000000000000@ 1004db88     libeay32120:ec_curve.obj
 0002:00006c18       ??_C@_0JB@IGIOHLOD@026EB7A859923FBC82189631F8103FE4@ 1004dc18     libeay32120:ec_curve.obj
 0002:00006cb0       ??_C@_0JB@CLBKOHGL@0349DC807F4FBF374F4AEADE3BCA9531@ 1004dcb0     libeay32120:ec_curve.obj
 0002:00006d48       ??_C@_0JB@PPPHEALL@02000000000000000000000000000000@ 1004dd48     libeay32120:ec_curve.obj
 0002:00006ddc       ??_C@_0CM@EACJKLC@NIST?1SECG?5curve?5over?5a?5571?5bit?5b@ 1004dddc     libeay32120:ec_curve.obj
 0002:00006e08       ??_C@_0JB@IHMKNFOJ@00000000000000000000000000000000@ 1004de08     libeay32120:ec_curve.obj
 0002:00006ea0       ??_C@_0JB@OOBDGNJO@02F40E7E2221F295DE297117B7F3D62F@ 1004dea0     libeay32120:ec_curve.obj
 0002:00006f38       ??_C@_0JB@CJJMMHGF@0303001D34B856296C16C0D40D3CD775@ 1004df38     libeay32120:ec_curve.obj
 0002:00006fd0       ??_C@_0JB@BGGOGNH@037BF27342DA639B6DCCFFFEB73D69D7@ 1004dfd0     libeay32120:ec_curve.obj
 0002:00007068       ??_C@_0JB@DDELOMEN@03FFFFFFFFFFFFFFFFFFFFFFFFFFFFFF@ 1004e068     libeay32120:ec_curve.obj
 0002:000070fc       ??_C@_0CL@FPAJFMMJ@08000000000000000000000000000000@ 1004e0fc     libeay32120:ec_curve.obj
 0002:00007128       ??_C@_0CL@GEJALGC@072546B5435234A422E0789675F432C8@ 1004e128     libeay32120:ec_curve.obj
 0002:00007154       ??_C@_0CL@EAGEDKEL@00C9517D06D5240D3CFF38C74B20B6CD@ 1004e154     libeay32120:ec_curve.obj
 0002:00007180       ??_C@_0CL@MBBIDOKC@07AF69989546103D79329FCC3D74880F@ 1004e180     libeay32120:ec_curve.obj
 0002:000071ac       ??_C@_0CL@GBCKMBAM@01EC23211B5966ADEA1D3F87F7EA5848@ 1004e1ac     libeay32120:ec_curve.obj
 0002:000071d8       ??_C@_0CL@HJCDFDPL@0400000000000000000001E60FC8821C@ 1004e1d8     libeay32120:ec_curve.obj
 0002:00007204       ??_C@_0CI@CFPHBJDI@X9?462?5curve?5over?5a?5163?5bit?5binar@ 1004e204     libeay32120:ec_curve.obj
 0002:0000722c       ??_C@_0CL@OJNJAHFG@0108B39E77C4B108BED981ED0E890E11@ 1004e22c     libeay32120:ec_curve.obj
 0002:00007258       ??_C@_0CL@JCNMLCJL@0667ACEB38AF4E488C407433FFAE4F1C@ 1004e258     libeay32120:ec_curve.obj
 0002:00007284       ??_C@_0CL@MLCIOOND@0024266E4EB5106D0A964D92C4860E26@ 1004e284     libeay32120:ec_curve.obj
 0002:000072b0       ??_C@_0CL@CDOIDAED@079F684DDF6684C5CD258B3890021B23@ 1004e2b0     libeay32120:ec_curve.obj
 0002:000072dc       ??_C@_0CL@GJDOGOEM@03FFFFFFFFFFFFFFFFFFFDF64DE1151A@ 1004e2dc     libeay32120:ec_curve.obj
 0002:00007308       ??_C@_0CL@JAKOALPH@07A526C63D3E25A256A007699F5447E3@ 1004e308     libeay32120:ec_curve.obj
 0002:00007334       ??_C@_0CL@COEBEADG@03F7061798EB99E238FD6F1BF95B48FE@ 1004e334     libeay32120:ec_curve.obj
 0002:00007360       ??_C@_0CL@LAOLGOPN@02F9F87B7C574D0BDECF8A22E6524775@ 1004e360     libeay32120:ec_curve.obj
 0002:0000738c       ??_C@_0CL@EFBHGKBG@05B935590C155E17EA48EB3FF3718B89@ 1004e38c     libeay32120:ec_curve.obj
 0002:000073b8       ??_C@_0CL@NLBELIBP@03FFFFFFFFFFFFFFFFFFFE1AEE140F11@ 1004e3b8     libeay32120:ec_curve.obj
 0002:000073e4       ??_C@_0CP@EBFHIJKG@01000000000000000000000000000000@ 1004e3e4     libeay32120:ec_curve.obj
 0002:00007414       ??_C@_0CN@BCCBAODH@E4E6DB2995065C407D9D39B8D0967B96@ 1004e414     libeay32120:ec_curve.obj
 0002:00007444       ??_C@_0CN@GKKDGFDN@5DDA470ABE6414DE8EC133AE28E9BBD7@ 1004e444     libeay32120:ec_curve.obj
 0002:00007474       ??_C@_0CN@FBMJJMML@8D16C2866798B600F9F08BB4A8E860F3@ 1004e474     libeay32120:ec_curve.obj
 0002:000074a4       ??_C@_0CN@JJFEFABG@6FA4539C2DADDDD6BAB5167D61B436E1@ 1004e4a4     libeay32120:ec_curve.obj
 0002:000074d4       ??_C@_0CN@IBIDHDPA@00010092537397ECA4F6145799D62B0A@ 1004e4d4     libeay32120:ec_curve.obj
 0002:00007504       ??_C@_0CI@HOBKKPME@X9?462?5curve?5over?5a?5176?5bit?5binar@ 1004e504     libeay32120:ec_curve.obj
 0002:0000752c       ??_C@_0DB@BGNOOMFI@80000000000000000000000000000000@ 1004e52c     libeay32120:ec_curve.obj
 0002:00007560       ??_C@_0DB@KNLAMFAA@2866537B676752636A68F56554E12640@ 1004e560     libeay32120:ec_curve.obj
 0002:00007594       ??_C@_0DB@KMDDCGHO@2E45EF571F00786F67B0081B9495A3D9@ 1004e594     libeay32120:ec_curve.obj
 0002:000075c8       ??_C@_0DB@JENBDMHB@36B3DAF8A23206F9C4F299D7B21A9C36@ 1004e5c8     libeay32120:ec_curve.obj
 0002:000075fc       ??_C@_0DB@BEDCCOBA@765BE73433B3F95E332932E70EA245CA@ 1004e5fc     libeay32120:ec_curve.obj
 0002:00007630       ??_C@_0DB@LFDKFEFP@40000000000000000000000004A20E90@ 1004e630     libeay32120:ec_curve.obj
 0002:00007664       ??_C@_0CI@CNNMGPOI@X9?462?5curve?5over?5a?5191?5bit?5binar@ 1004e664     libeay32120:ec_curve.obj
 0002:0000768c       ??_C@_0DB@PGMMDBBH@401028774D7777C7B7666D1366EA4320@ 1004e68c     libeay32120:ec_curve.obj
 0002:000076c0       ??_C@_0DB@FDLCHFID@0620048D28BCBD03B6249C99182B7C8C@ 1004e6c0     libeay32120:ec_curve.obj
 0002:000076f4       ??_C@_0DB@PGPFEPAE@3809B2B7CC1B28CC5A87926AAD83FD28@ 1004e6f4     libeay32120:ec_curve.obj
 0002:00007728       ??_C@_0DB@KIOIALAB@17434386626D14F3DBF01760D9213A3E@ 1004e728     libeay32120:ec_curve.obj
 0002:0000775c       ??_C@_0DB@BPCOOPCP@20000000000000000000000050508CB8@ 1004e75c     libeay32120:ec_curve.obj
 0002:00007790       ??_C@_0DB@PEBNBANE@6C01074756099122221056911C77D77E@ 1004e790     libeay32120:ec_curve.obj
 0002:000077c4       ??_C@_0DB@MGLFBKJD@71FE1AF926CF847989EFEF8DB459F663@ 1004e7c4     libeay32120:ec_curve.obj
 0002:000077f8       ??_C@_0DB@LPENCHHM@375D4CE24FDE434489DE8746E7178601@ 1004e7f8     libeay32120:ec_curve.obj
 0002:0000782c       ??_C@_0DB@HMLDPOOM@545A39176196575D985999366E6AD34C@ 1004e82c     libeay32120:ec_curve.obj
 0002:00007860       ??_C@_0DB@GHFEOOGH@155555555555555555555555610C0B19@ 1004e860     libeay32120:ec_curve.obj
 0002:00007894       ??_C@_0DH@CBHDNHIE@01000000000000000000000000000000@ 1004e894     libeay32120:ec_curve.obj
 0002:000078cc       ??_C@_0DF@CGFHJKFP@00000000000000000000000000000000@ 1004e8cc     libeay32120:ec_curve.obj
 0002:00007904       ??_C@_0DF@BMDPEOLM@C8619ED45A62E6212E1160349E2BFA84@ 1004e904     libeay32120:ec_curve.obj
 0002:0000793c       ??_C@_0DF@OHLOFJLJ@89FDFBE4ABE193DF9559ECF07AC0CE78@ 1004e93c     libeay32120:ec_curve.obj
 0002:00007974       ??_C@_0DF@OFJNGFCB@0F55B51A06E78E9AC38A035FF520D8B0@ 1004e974     libeay32120:ec_curve.obj
 0002:000079ac       ??_C@_0DF@JNMENPCE@000101BAF95C9723C57B6C21DA2EFF2D@ 1004e9ac     libeay32120:ec_curve.obj
 0002:000079e4       ??_C@_0CI@HADNJNCC@X9?462?5curve?5over?5a?5208?5bit?5binar@ 1004e9e4     libeay32120:ec_curve.obj
 0002:00007a0c       ??_C@_0DN@LFGLADBM@80000000000000000000000000000000@ 1004ea0c     libeay32120:ec_curve.obj
 0002:00007a4c       ??_C@_0DN@FBNNLDIH@32010857077C5431123A46B808906756@ 1004ea4c     libeay32120:ec_curve.obj
 0002:00007a8c       ??_C@_0DN@OBOFKIAC@790408F2EEDAF392B012EDEFB3392F30@ 1004ea8c     libeay32120:ec_curve.obj
 0002:00007acc       ??_C@_0DN@EEEKBALN@57927098FA932E7C0A96D3FD5B706EF7@ 1004eacc     libeay32120:ec_curve.obj
 0002:00007b0c       ??_C@_0DN@ICMAIJNI@61D8EE5077C33FECF6F1A16B268DE469@ 1004eb0c     libeay32120:ec_curve.obj
 0002:00007b4c       ??_C@_0DN@MFFKAKCP@2000000000000000000000000000000F@ 1004eb4c     libeay32120:ec_curve.obj
 0002:00007b8c       ??_C@_0CI@IHGFALA@X9?462?5curve?5over?5a?5239?5bit?5binar@ 1004eb8c     libeay32120:ec_curve.obj
 0002:00007bb4       ??_C@_0DN@EMPBAOJB@4230017757A767FAE42398569B746325@ 1004ebb4     libeay32120:ec_curve.obj
 0002:00007bf4       ??_C@_0DN@FFKCHHPE@5037EA654196CFF0CD82B2C14A2FCF2E@ 1004ebf4     libeay32120:ec_curve.obj
 0002:00007c34       ??_C@_0DN@CLFDOGHD@28F9D04E900069C8DC47A08534FE76D2@ 1004ec34     libeay32120:ec_curve.obj
 0002:00007c74       ??_C@_0DN@EJEGOAGE@5667334C45AFF3B5A03BAD9DD75E2C71@ 1004ec74     libeay32120:ec_curve.obj
 0002:00007cb4       ??_C@_0DN@MLEHOGIL@1555555555555555555555555555553C@ 1004ecb4     libeay32120:ec_curve.obj
 0002:00007cf4       ??_C@_0DN@IIJDANOM@01238774666A67766D6676F778E676B6@ 1004ecf4     libeay32120:ec_curve.obj
 0002:00007d34       ??_C@_0DN@CBKIHOGD@6A941977BA9F6A435199ACFC51067ED5@ 1004ed34     libeay32120:ec_curve.obj
 0002:00007d74       ??_C@_0DN@ELAKFJKE@70F6E9D04D289C4E89913CE3530BFDE9@ 1004ed74     libeay32120:ec_curve.obj
 0002:00007db4       ??_C@_0DN@OIKGBJNJ@2E5A0EAF6E5E1305B9004DCE5C0ED7FE@ 1004edb4     libeay32120:ec_curve.obj
 0002:00007df4       ??_C@_0DN@LDDNPNLK@0CCCCCCCCCCCCCCCCCCCCCCCCCCCCCAC@ 1004edf4     libeay32120:ec_curve.obj
 0002:00007e38       ??_C@_0EH@JPILHPAD@01000000000000000000000000000000@ 1004ee38     libeay32120:ec_curve.obj
 0002:00007e80       ??_C@_0EF@GLJGCFDO@91A091F03B5FBA4AB2CCF49C4EDD220F@ 1004ee80     libeay32120:ec_curve.obj
 0002:00007ec8       ??_C@_0EF@HCANBPG@7167EFC92BB2E3CE7C8AAAFF34E12A9C@ 1004eec8     libeay32120:ec_curve.obj
 0002:00007f10       ??_C@_0EF@NOFNKADI@6108BABB2CEEBCF787058A056CBE0CFE@ 1004ef10     libeay32120:ec_curve.obj
 0002:00007f58       ??_C@_0EF@IFEDEGFA@10C7695716851EEF6BA7F6872E6142FB@ 1004ef58     libeay32120:ec_curve.obj
 0002:00007fa0       ??_C@_0EF@MHPJFHFL@000100FAF51354E0E39E4892DF6E319C@ 1004efa0     libeay32120:ec_curve.obj
 0002:00007fe8       ??_C@_0CI@OMGMCAMF@X9?462?5curve?5over?5a?5272?5bit?5binar@ 1004efe8     libeay32120:ec_curve.obj
 0002:00008010       ??_C@_0EP@OHCANPEF@01000000000000000000000000000000@ 1004f010     libeay32120:ec_curve.obj
 0002:00008060       ??_C@_0EN@PLBEBKBJ@FD0D693149A118F651E6DCE680208537@ 1004f060     libeay32120:ec_curve.obj
 0002:000080b0       ??_C@_0EN@NCONMPAC@BDDB97E555A50A908E43B01C798EA5DA@ 1004f0b0     libeay32120:ec_curve.obj
 0002:00008100       ??_C@_0EN@KHFAELMB@197B07845E9BE2D96ADB0F5F3C7F2CFF@ 1004f100     libeay32120:ec_curve.obj
 0002:00008150       ??_C@_0EN@JAOFAPN@E19FBEB76E0DA171517ECF401B50289B@ 1004f150     libeay32120:ec_curve.obj
 0002:000081a0       ??_C@_0EN@KBDOAOHK@000101D556572AABAC800101D556572A@ 1004f1a0     libeay32120:ec_curve.obj
 0002:000081f0       ??_C@_0CI@PCOAONL@X9?462?5curve?5over?5a?5304?5bit?5binar@ 1004f1f0     libeay32120:ec_curve.obj
 0002:00008218       ??_C@_0FL@FEDIHDAI@80000000000000000000000000000000@ 1004f218     libeay32120:ec_curve.obj
 0002:00008278       ??_C@_0FL@CFINLAGB@5667676A654B20754F356EA92017D946@ 1004f278     libeay32120:ec_curve.obj
 0002:000082d8       ??_C@_0FL@MCMIJOOI@2472E2D0197C49363F1FE7F5B6DB075D@ 1004f2d8     libeay32120:ec_curve.obj
 0002:00008338       ??_C@_0FL@DKBNLODN@3C258EF3047767E7EDE0F1FDAA79DAEE@ 1004f338     libeay32120:ec_curve.obj
 0002:00008398       ??_C@_0FL@HHFPICMF@53D7E08529547048121E9C95F3791DD8@ 1004f398     libeay32120:ec_curve.obj
 0002:000083f8       ??_C@_0FL@MNDAGIGO@01AF286BCA1AF286BCA1AF286BCA1AF2@ 1004f3f8     libeay32120:ec_curve.obj
 0002:00008454       ??_C@_0CI@BDIPEOPL@X9?462?5curve?5over?5a?5359?5bit?5binar@ 1004f454     libeay32120:ec_curve.obj
 0002:00008480       ??_C@_0FP@FBINFPND@01000000000000000000000000000000@ 1004f480     libeay32120:ec_curve.obj
 0002:000084e0       ??_C@_0FN@BHEECEPM@E0D2EE25095206F5E2A4F9ED229F1F25@ 1004f4e0     libeay32120:ec_curve.obj
 0002:00008540       ??_C@_0FN@CPHIHHFM@FC1217D4320A90452C760A58EDCD30C8@ 1004f540     libeay32120:ec_curve.obj
 0002:000085a0       ??_C@_0FN@BMGNOIGF@1085E2755381DCCCE3C1557AFA10C2F0@ 1004f5a0     libeay32120:ec_curve.obj
 0002:00008600       ??_C@_0FN@JHIPHACA@7B3EB1BDDCBA62D5D8B2059B525797FC@ 1004f600     libeay32120:ec_curve.obj
 0002:00008660       ??_C@_0FN@KHOMBJGO@00010090512DA9AF72B08349D98A5DD4@ 1004f660     libeay32120:ec_curve.obj
 0002:000086c0       ??_C@_0CI@GLMEIDGJ@X9?462?5curve?5over?5a?5368?5bit?5binar@ 1004f6c0     libeay32120:ec_curve.obj
 0002:000086e8       ??_C@_0GN@LMHEGKJI@80000000000000000000000000000000@ 1004f6e8     libeay32120:ec_curve.obj
 0002:00008758       ??_C@_0GN@LFOJJAJK@1A827EF00DD6FC0E234CAF046C6A5D8A@ 1004f758     libeay32120:ec_curve.obj
 0002:000087c8       ??_C@_0GN@GMJFKCKE@10D9B4A3D9047D8B154359ABFB1B7F54@ 1004f7c8     libeay32120:ec_curve.obj
 0002:00008838       ??_C@_0GN@HDLJDPHE@120FC05D3C67A99DE161D2F4092622FE@ 1004f838     libeay32120:ec_curve.obj
 0002:000088a8       ??_C@_0GN@FKGAJPAI@20D0AF8903A96F8D5FA2C255745D3C45@ 1004f8a8     libeay32120:ec_curve.obj
 0002:00008918       ??_C@_0GL@HOIFBJKE@03403403403403403403403403403403@ 1004f918     libeay32120:ec_curve.obj
 0002:00008984       ??_C@_0CI@PHOKEIPD@X9?462?5curve?5over?5a?5431?5bit?5binar@ 1004f984     libeay32120:ec_curve.obj
 0002:000089ac       ??_C@_0BP@JBIOPCCD@01667979A40BA497E5D5C270780617?$AA@ 1004f9ac     libeay32120:ec_curve.obj
 0002:000089cc       ??_C@_0BP@MHKFDAFB@00F44B4AF1ECC2630E08785CEBCC15?$AA@ 1004f9cc     libeay32120:ec_curve.obj
 0002:000089ec       ??_C@_0BP@LLNCDEDF@00FFFFFFFFFFFFFFFDBF91AF6DEA73?$AA@ 1004f9ec     libeay32120:ec_curve.obj
 0002:00008a0c       ??_C@_0CH@PAECJHG@WTLS?5curve?5over?5a?5113?5bit?5binary@ 1004fa0c     libeay32120:ec_curve.obj
 0002:00008a34       ??_C@_0CJ@DHALBGJP@08000000000000000000000040000000@ 1004fa34     libeay32120:ec_curve.obj
 0002:00008a60       ??_C@_06MOEPFPNG@07338f?$AA@ 1004fa60     libeay32120:ec_curve.obj
 0002:00008a68       ??_C@_02HGFBNMNN@7b?$AA@   1004fa68     libeay32120:ec_curve.obj
 0002:00008a6c       ??_C@_03MLCCHGKF@1c8?$AA@  1004fa6c     libeay32120:ec_curve.obj
 0002:00008a70       ??_C@_0CI@FGEFJMAC@2AAAAAAAAAAAAAAAAAAC7F3C7881BD08@ 1004fa70     libeay32120:ec_curve.obj
 0002:00008a98       ??_C@_0HB@LGGCBEEP@?6?7IPSec?1IKE?1Oakley?5curve?5?$CD3?5over@ 1004fa98     libeay32120:ec_curve.obj
 0002:00008b0c       ??_C@_0DB@BCOHJGIE@02000000000000000000000000000020@ 1004fb0c     libeay32120:ec_curve.obj
 0002:00008b40       ??_C@_04OJPMBKJE@1ee9?$AA@ 1004fb40     libeay32120:ec_curve.obj
 0002:00008b48       ??_C@_02DCIIBFLB@18?$AA@   1004fb48     libeay32120:ec_curve.obj
 0002:00008b4c       ??_C@_02CFEEGNNO@0d?$AA@   1004fb4c     libeay32120:ec_curve.obj
 0002:00008b50       ??_C@_0CP@NHOLPDNA@FFFFFFFFFFFFFFFFFFFFFFEDF97C44DB@ 1004fb50     libeay32120:ec_curve.obj
 0002:00008b80       ??_C@_0HB@IIAMGFOE@?6?7IPSec?1IKE?1Oakley?5curve?5?$CD4?5over@ 1004fb80     libeay32120:ec_curve.obj
 0002:00008bf4       ??_C@_0DB@DIPMNOFO@FFFFFFFFFFFFFFFFFFFFFFFFFFFFFFFE@ 1004fbf4     libeay32120:ec_curve.obj
 0002:00008c28       ??_C@_0DB@EFILCKBL@FFFFFFFFFFFFFFFFFFFFFFFFFFFFFFFE@ 1004fc28     libeay32120:ec_curve.obj
 0002:00008c5c       ??_C@_0DB@PLBGALEH@64210519E59C80E70FA7E9AB72243049@ 1004fc5c     libeay32120:ec_curve.obj
 0002:00008c90       ??_C@_0DB@LHIGDGHO@188DA80EB03090F67CBF20EB43A18800@ 1004fc90     libeay32120:ec_curve.obj
 0002:00008cc4       ??_C@_0DB@BFJADMLB@07192b95ffc8da78631011ed6b24cdd5@ 1004fcc4     libeay32120:ec_curve.obj
 0002:00008cf8       ??_C@_0DB@EHFHEEFE@FFFFFFFFFFFFFFFFFFFFFFFF99DEF836@ 1004fcf8     libeay32120:ec_curve.obj
 0002:00008d2c       ??_C@_0DB@HJIMEGJL@NIST?1X9?462?1SECG?5curve?5over?5a?5192@ 1004fd2c     libeay32120:ec_curve.obj
 0002:00008d60       ??_C@_0DJ@KBMBLOHP@FFFFFFFFFFFFFFFFFFFFFFFFFFFFFFFF@ 1004fd60     libeay32120:ec_curve.obj
 0002:00008d9c       ??_C@_0DJ@GECEELCG@FFFFFFFFFFFFFFFFFFFFFFFFFFFFFFFE@ 1004fd9c     libeay32120:ec_curve.obj
 0002:00008dd8       ??_C@_0DJ@KCHEMFFJ@B4050A850C04B3ABF54132565044B0B7@ 1004fdd8     libeay32120:ec_curve.obj
 0002:00008e14       ??_C@_0DJ@NPHLCOHI@B70E0CBD6BB4BF7F321390B94A03C1D3@ 1004fe14     libeay32120:ec_curve.obj
 0002:00008e50       ??_C@_0DJ@KNLKNOLF@bd376388b5f723fb4c22dfe6cd4375a0@ 1004fe50     libeay32120:ec_curve.obj
 0002:00008e8c       ??_C@_0DJ@BHCANMNE@FFFFFFFFFFFFFFFFFFFFFFFFFFFF16A2@ 1004fe8c     libeay32120:ec_curve.obj
 0002:00008ec8       ??_C@_0CL@NHPHHEEB@NIST?1SECG?5curve?5over?5a?5224?5bit?5p@ 1004fec8     libeay32120:ec_curve.obj
 0002:00008ef8       ??_C@_0GB@NAMHBOGD@FFFFFFFFFFFFFFFFFFFFFFFFFFFFFFFF@ 1004fef8     libeay32120:ec_curve.obj
 0002:00008f60       ??_C@_0GB@KNLAOKCG@FFFFFFFFFFFFFFFFFFFFFFFFFFFFFFFF@ 1004ff60     libeay32120:ec_curve.obj
 0002:00008fc8       ??_C@_0GB@GBMGBGKN@B3312FA7E23EE7E4988E056BE3F82D19@ 1004ffc8     libeay32120:ec_curve.obj
 0002:00009030       ??_C@_0GB@GJBBIIPB@AA87CA22BE8B05378EB1C71EF320AD74@ 10050030     libeay32120:ec_curve.obj
 0002:00009098       ??_C@_0GB@JOFNDMIE@3617de4a96262c6f5d9e98bf9292dc29@ 10050098     libeay32120:ec_curve.obj
 0002:00009100       ??_C@_0GB@IJGNFOHD@FFFFFFFFFFFFFFFFFFFFFFFFFFFFFFFF@ 10050100     libeay32120:ec_curve.obj
 0002:00009164       ??_C@_0CL@MPIFFEHD@NIST?1SECG?5curve?5over?5a?5384?5bit?5p@ 10050164     libeay32120:ec_curve.obj
 0002:00009190       ??_C@_0IE@LJFIBPGL@1FFFFFFFFFFFFFFFFFFFFFFFFFFFFFFF@ 10050190     libeay32120:ec_curve.obj
 0002:00009218       ??_C@_0IE@MECPOLCO@1FFFFFFFFFFFFFFFFFFFFFFFFFFFFFFF@ 10050218     libeay32120:ec_curve.obj
 0002:000092a0       ??_C@_0IE@GOJLJCKA@051953EB9618E1C9A1F929A21A0B6854@ 100502a0     libeay32120:ec_curve.obj
 0002:00009328       ??_C@_0ID@OOGMNGNF@C6858E06B70404E9CD9E3ECB662395B4@ 10050328     libeay32120:ec_curve.obj
 0002:000093b0       ??_C@_0IF@IFBOMNNL@011839296a789a3bc0045c8a5fb42c7d@ 100503b0     libeay32120:ec_curve.obj
 0002:00009438       ??_C@_0IE@DDIDDIA@1FFFFFFFFFFFFFFFFFFFFFFFFFFFFFFF@ 10050438     libeay32120:ec_curve.obj
 0002:000094bc       ??_C@_0CL@NCEJLDDF@NIST?1SECG?5curve?5over?5a?5521?5bit?5p@ 100504bc     libeay32120:ec_curve.obj
 0002:000094e8       ??_C@_0DB@JMJNBCM@CC22D6DFB95C6B25E49C0D6364A4E598@ 100504e8     libeay32120:ec_curve.obj
 0002:0000951c       ??_C@_0DB@JAAMMCPO@EEA2BAE7E1497842F2DE7769CFE9C989@ 1005051c     libeay32120:ec_curve.obj
 0002:00009550       ??_C@_0DB@OFGGDEB@6574d11d69b6ec7a672bb82a083df2f2@ 10050550     libeay32120:ec_curve.obj
 0002:00009584       ??_C@_0DB@PCBKJKFJ@FFFFFFFFFFFFFFFFFFFFFFFE5FB1A724@ 10050584     libeay32120:ec_curve.obj
 0002:000095b8       ??_C@_0CH@BHJCBJE@X9?462?5curve?5over?5a?5192?5bit?5prime@ 100505b8     libeay32120:ec_curve.obj
 0002:000095e0       ??_C@_0DB@DCDDKDI@22123DC2395A05CAA7423DAECCC94760@ 100505e0     libeay32120:ec_curve.obj
 0002:00009614       ??_C@_0DB@EMKNMOBM@7D29778100C65A1DA1783716588DCE2B@ 10050614     libeay32120:ec_curve.obj
 0002:00009648       ??_C@_0DB@IFCEMDKF@38a90f22637337334b49dcb66a6dc8f9@ 10050648     libeay32120:ec_curve.obj
 0002:0000967c       ??_C@_0DB@EAEHFCJI@FFFFFFFFFFFFFFFFFFFFFFFF7A62D031@ 1005067c     libeay32120:ec_curve.obj
 0002:000096b0       ??_C@_0DN@EKNECOPI@7FFFFFFFFFFFFFFFFFFFFFFF7FFFFFFF@ 100506b0     libeay32120:ec_curve.obj
 0002:000096f0       ??_C@_0DN@DHKDNKLN@7FFFFFFFFFFFFFFFFFFFFFFF7FFFFFFF@ 100506f0     libeay32120:ec_curve.obj
 0002:00009730       ??_C@_0DN@FNBIJBPA@6B016C3BDCF18941D0D654921475CA71@ 10050730     libeay32120:ec_curve.obj
 0002:00009770       ??_C@_0DN@OHEBNAGB@0FFA963CDCA8816CCC33B8642BEDF905@ 10050770     libeay32120:ec_curve.obj
 0002:000097b0       ??_C@_0DN@OJKAHBB@7debe8e4e90a5dae6e4054ca530ba046@ 100507b0     libeay32120:ec_curve.obj
 0002:000097f0       ??_C@_0DN@OJHJIMAL@7FFFFFFFFFFFFFFFFFFFFFFF7FFFFF9E@ 100507f0     libeay32120:ec_curve.obj
 0002:00009830       ??_C@_0CH@COBCAEEE@X9?462?5curve?5over?5a?5239?5bit?5prime@ 10050830     libeay32120:ec_curve.obj
 0002:00009858       ??_C@_0DN@LEAKOGCI@617FAB6832576CBBFED50D99F0249C3F@ 10050858     libeay32120:ec_curve.obj
 0002:00009898       ??_C@_0DN@LJAFBLJN@38AF09D98727705120C921BB5E9E2629@ 10050898     libeay32120:ec_curve.obj
 0002:000098d8       ??_C@_0DN@CBMBEOIB@5b0125e4dbea0ec7206da0fc01d9b081@ 100508d8     libeay32120:ec_curve.obj
 0002:00009918       ??_C@_0DN@KMAAMHLF@7FFFFFFFFFFFFFFFFFFFFFFF800000CF@ 10050918     libeay32120:ec_curve.obj
 0002:00009958       ??_C@_0DN@LKNPDOHD@255705FA2A306654B1F4CB03D6A750A3@ 10050958     libeay32120:ec_curve.obj
 0002:00009998       ??_C@_0DN@PODFINOL@6768AE8E18BB92CFCF005C949AA2C6D9@ 10050998     libeay32120:ec_curve.obj
 0002:000099d8       ??_C@_0DN@OLOGAMGN@1607e6898f390c06bc1d552bad226f3b@ 100509d8     libeay32120:ec_curve.obj
 0002:00009a18       ??_C@_0DN@IPJCFAPE@7FFFFFFFFFFFFFFFFFFFFFFF7FFFFF97@ 10050a18     libeay32120:ec_curve.obj
 0002:00009a58       ??_C@_0EB@NKKCFGLN@FFFFFFFF000000010000000000000000@ 10050a58     libeay32120:ec_curve.obj
 0002:00009aa0       ??_C@_0EB@KHNFKCPI@FFFFFFFF000000010000000000000000@ 10050aa0     libeay32120:ec_curve.obj
 0002:00009ae8       ??_C@_0EB@CGMLNBOM@5AC635D8AA3A93E7B3EBBD55769886BC@ 10050ae8     libeay32120:ec_curve.obj
 0002:00009b30       ??_C@_0EB@OLPMACDN@6B17D1F2E12C4247F8BCE6E563A440F2@ 10050b30     libeay32120:ec_curve.obj
 0002:00009b78       ??_C@_0EB@HOMILGKF@4fe342e2fe1a7f9b8ee7eb4a7c0f9e16@ 10050b78     libeay32120:ec_curve.obj
 0002:00009bc0       ??_C@_0EB@MIJLAMHG@FFFFFFFF00000000FFFFFFFFFFFFFFFF@ 10050bc0     libeay32120:ec_curve.obj
 0002:00009c04       ??_C@_0CM@IACJENLF@X9?462?1SECG?5curve?5over?5a?5256?5bit?5@ 10050c04     libeay32120:ec_curve.obj
 0002:00009c30       ??_C@_0BN@OPGIIHFL@DB7C2ABF62E35E668076BEAD208B?$AA@ 10050c30     libeay32120:ec_curve.obj
 0002:00009c50       ??_C@_0BN@DKLIBGCH@DB7C2ABF62E35E668076BEAD2088?$AA@ 10050c50     libeay32120:ec_curve.obj
 0002:00009c70       ??_C@_0BN@FBKBJNAD@659EF8BA043916EEDE8911702B22?$AA@ 10050c70     libeay32120:ec_curve.obj
 0002:00009c90       ??_C@_0BN@NKFNPOOI@09487239995A5EE76B55F9C2F098?$AA@ 10050c90     libeay32120:ec_curve.obj
 0002:00009cb0       ??_C@_0BN@DILIPKGG@a89ce5af8724c0a23e0e0ff77500?$AA@ 10050cb0     libeay32120:ec_curve.obj
 0002:00009cd0       ??_C@_0BN@JIPMFBKH@DB7C2ABF62E35E7628DFAC6561C5?$AA@ 10050cd0     libeay32120:ec_curve.obj
 0002:00009cf0       ??_C@_0CL@JMAEHKDJ@SECG?1WTLS?5curve?5over?5a?5112?5bit?5p@ 10050cf0     libeay32120:ec_curve.obj
 0002:00009d1c       ??_C@_0BN@IJKPAIIP@6127C24C05F38A0AAAF65C0EF02C?$AA@ 10050d1c     libeay32120:ec_curve.obj
 0002:00009d3c       ??_C@_0BN@MGKDLOHA@51DEF1815DB5ED74FCC34C85D709?$AA@ 10050d3c     libeay32120:ec_curve.obj
 0002:00009d5c       ??_C@_0BN@DODNCDHM@4BA30AB5E892B4E1649DD0928643?$AA@ 10050d5c     libeay32120:ec_curve.obj
 0002:00009d7c       ??_C@_0BN@EGMMPFGK@adcd46f5882e3747def36e956e97?$AA@ 10050d7c     libeay32120:ec_curve.obj
 0002:00009d9c       ??_C@_0BN@LFOGMMAM@36DF0AAFD8B8D7597CA10520D04B?$AA@ 10050d9c     libeay32120:ec_curve.obj
 0002:00009dbc       ??_C@_0CG@IMPBFOOG@SECG?5curve?5over?5a?5112?5bit?5prime?5@ 10050dbc     libeay32120:ec_curve.obj
 0002:00009de4       ??_C@_0CB@GGHOEBAN@FFFFFFFDFFFFFFFFFFFFFFFFFFFFFFFF@ 10050de4     libeay32120:ec_curve.obj
 0002:00009e08       ??_C@_0CB@BLAJLFEI@FFFFFFFDFFFFFFFFFFFFFFFFFFFFFFFC@ 10050e08     libeay32120:ec_curve.obj
 0002:00009e2c       ??_C@_0CB@IGKEJLG@E87579C11079F43DD824993C2CEE5ED3@ 10050e2c     libeay32120:ec_curve.obj
 0002:00009e50       ??_C@_0CB@JLJJCNEF@161FF7528B899B2D0C28607CA52C5B86@ 10050e50     libeay32120:ec_curve.obj
 0002:00009e74       ??_C@_0CB@JFJDIAHA@cf5ac8395bafeb13c02da292dded7a83@ 10050e74     libeay32120:ec_curve.obj
 0002:00009e98       ??_C@_0CB@HIDHDGFG@FFFFFFFE0000000075A30D1B9038A115@ 10050e98     libeay32120:ec_curve.obj
 0002:00009ebc       ??_C@_0CG@DNCCBNMA@SECG?5curve?5over?5a?5128?5bit?5prime?5@ 10050ebc     libeay32120:ec_curve.obj
 0002:00009ee4       ??_C@_0CB@MCNCHMKC@D6031998D1B3BBFEBF59CC9BBFF9AEE1@ 10050ee4     libeay32120:ec_curve.obj
 0002:00009f08       ??_C@_0CB@NLFHILLM@5EEEFCA380D02919DC2C6558BB6D8A5D@ 10050f08     libeay32120:ec_curve.obj
 0002:00009f2c       ??_C@_0CB@IMEOLIDL@7B6AA5D85E572983E6FB32A7CDEBC140@ 10050f2c     libeay32120:ec_curve.obj
 0002:00009f50       ??_C@_0CB@BCFJIPBP@27b6916a894d3aee7106fe805fc34b44@ 10050f50     libeay32120:ec_curve.obj
 0002:00009f74       ??_C@_0CB@JAEMBEGB@3FFFFFFF7FFFFFFFBE0024720613B5A3@ 10050f74     libeay32120:ec_curve.obj
 0002:00009f98       ??_C@_0CJ@HJMNJEPF@FFFFFFFFFFFFFFFFFFFFFFFFFFFFFFFE@ 10050f98     libeay32120:ec_curve.obj
 0002:00009fc4       ??_C@_01COCBENDE@7?$AA@    10050fc4     libeay32120:ec_curve.obj
 0002:00009fc8       ??_C@_0CJ@KLDELOPN@3B4C382CE37AA192A4019E763036F4F5@ 10050fc8     libeay32120:ec_curve.obj
 0002:00009ff4       ??_C@_0CJ@FNGEGBI@938cf935318fdced6bc28286531733c3@ 10050ff4     libeay32120:ec_curve.obj
 0002:0000a020       ??_C@_0CL@BDAFGJP@0100000000000000000001B8FA16DFAB@ 10051020     libeay32120:ec_curve.obj
 0002:0000a04c       ??_C@_0CG@MDBLLOCO@SECG?5curve?5over?5a?5160?5bit?5prime?5@ 1005104c     libeay32120:ec_curve.obj
 0002:0000a074       ??_C@_0CJ@PHKHFLJG@FFFFFFFFFFFFFFFFFFFFFFFFFFFFFFFF@ 10051074     libeay32120:ec_curve.obj
 0002:0000a0a0       ??_C@_0CJ@IKNAKPND@FFFFFFFFFFFFFFFFFFFFFFFFFFFFFFFF@ 100510a0     libeay32120:ec_curve.obj
 0002:0000a0cc       ??_C@_0CJ@CGMIEEHD@1C97BEFC54BD7A8B65ACF89F81D4D4AD@ 100510cc     libeay32120:ec_curve.obj
 0002:0000a0f8       ??_C@_0CJ@MIDIAOCP@4A96B5688EF573284664698968C38BB9@ 100510f8     libeay32120:ec_curve.obj
 0002:0000a124       ??_C@_0CJ@IFNODPPM@23a628553168947d59dcc91204235137@ 10051124     libeay32120:ec_curve.obj
 0002:0000a150       ??_C@_0CL@EDKAMPLM@0100000000000000000001F4C8F927AE@ 10051150     libeay32120:ec_curve.obj
 0002:0000a17c       ??_C@_0CJ@FCOAMHDG@FFFFFFFFFFFFFFFFFFFFFFFFFFFFFFFE@ 1005117c     libeay32120:ec_curve.obj
 0002:0000a1a8       ??_C@_0CJ@HICFNNJG@B4E134D3FB59EB8BAB57274904664D5A@ 100511a8     libeay32120:ec_curve.obj
 0002:0000a1d4       ??_C@_0CJ@MNNAHMPB@52DCB034293A117E1F4FF11B30F7199D@ 100511d4     libeay32120:ec_curve.obj
 0002:0000a200       ??_C@_0CJ@FLCBFAOB@feaffef2e331f296e071fa0df9982cfe@ 10051200     libeay32120:ec_curve.obj
 0002:0000a22c       ??_C@_0CL@KKNCFHBD@0100000000000000000000351EE786A8@ 1005122c     libeay32120:ec_curve.obj
 0002:0000a258       ??_C@_0CL@NDOOJKPB@SECG?1WTLS?5curve?5over?5a?5160?5bit?5p@ 10051258     libeay32120:ec_curve.obj
 0002:0000a284       ??_C@_0DB@IEGIPAN@FFFFFFFFFFFFFFFFFFFFFFFFFFFFFFFF@ 10051284     libeay32120:ec_curve.obj
 0002:0000a2b8       ??_C@_01EKENIIDA@3?$AA@    100512b8     libeay32120:ec_curve.obj
 0002:0000a2bc       ??_C@_0DB@MNEBEDDM@DB4FF10EC057E9AE26B07D0280B7F434@ 100512bc     libeay32120:ec_curve.obj
 0002:0000a2f0       ??_C@_0DB@CMKOFGHJ@9b2f2f6d9c5628a7844163d015be8634@ 100512f0     libeay32120:ec_curve.obj
 0002:0000a324       ??_C@_0DB@OCOPPFHC@FFFFFFFFFFFFFFFFFFFFFFFE26F2FC17@ 10051324     libeay32120:ec_curve.obj
 0002:0000a358       ??_C@_0CG@IFFAEDGD@SECG?5curve?5over?5a?5192?5bit?5prime?5@ 10051358     libeay32120:ec_curve.obj
 0002:0000a380       ??_C@_0DJ@OIEDBGO@FFFFFFFFFFFFFFFFFFFFFFFFFFFFFFFF@ 10051380     libeay32120:ec_curve.obj
 0002:0000a3bc       ??_C@_01BMBHCPLG@5?$AA@    100513bc     libeay32120:ec_curve.obj
 0002:0000a3c0       ??_C@_0DJ@LDDJKHDH@A1455B334DF099DF30FC28A169A467E9@ 100513c0     libeay32120:ec_curve.obj
 0002:0000a3fc       ??_C@_0DJ@GDNLEEBB@7e089fed7fba344282cafbd6f7e319f7@ 100513fc     libeay32120:ec_curve.obj
 0002:0000a438       ??_C@_0DL@GKKGGOEP@010000000000000000000000000001DC@ 10051438     libeay32120:ec_curve.obj
 0002:0000a474       ??_C@_0CG@IOHCCJAA@SECG?5curve?5over?5a?5224?5bit?5prime?5@ 10051474     libeay32120:ec_curve.obj
 0002:0000a4a0       ??_C@_0EB@IHGCLEDH@FFFFFFFFFFFFFFFFFFFFFFFFFFFFFFFF@ 100514a0     libeay32120:ec_curve.obj
 0002:0000a4e8       ??_C@_0EB@CBGMKGCA@79BE667EF9DCBBAC55A06295CE870B07@ 100514e8     libeay32120:ec_curve.obj
 0002:0000a530       ??_C@_0EB@HDDLKPFM@483ada7726a3c4655da4fbfc0e1108a8@ 10051530     libeay32120:ec_curve.obj
 0002:0000a578       ??_C@_0EB@DCCHFIKD@FFFFFFFFFFFFFFFFFFFFFFFFFFFFFFFE@ 10051578     libeay32120:ec_curve.obj
 0002:0000a5bc       ??_C@_0CG@MBJIMJMI@SECG?5curve?5over?5a?5256?5bit?5prime?5@ 100515bc     libeay32120:ec_curve.obj
 0002:0000a5e4       ??_C@_0BN@HPHHPBAK@FFFFFFFFFFFFFFFFFFFFFFFFFDE7?$AA@ 100515e4     libeay32120:ec_curve.obj
 0002:0000a604       ??_C@_01HIHLOKLC@1?$AA@    10051604     libeay32120:ec_curve.obj
 0002:0000a608       ??_C@_01FDFGLJHB@2?$AA@    10051608     libeay32120:ec_curve.obj
 0002:0000a60c       ??_C@_0BP@EKNBFCAM@0100000000000001ECEA551AD837E9?$AA@ 1005160c     libeay32120:ec_curve.obj
 0002:0000a62c       ??_C@_0CG@NOPNGNKB@WTLS?5curve?5over?5a?5112?5bit?5prime?5@ 1005162c     libeay32120:ec_curve.obj
 0002:0000a654       ??_C@_0CJ@BGGLPJAH@FFFFFFFFFFFFFFFFFFFFFFFFFFFFFFFF@ 10051654     libeay32120:ec_curve.obj
 0002:0000a680       ??_C@_0CL@MBOJCOAH@0100000000000000000001CDC98AE0E2@ 10051680     libeay32120:ec_curve.obj
 0002:0000a6ac       ??_C@_0CG@JBBHINGJ@WTLS?5curve?5over?5a?5160?5bit?5prime?5@ 100516ac     libeay32120:ec_curve.obj
 0002:0000a6d4       ??_C@_0CG@MLNHEHNL@WTLS?5curvs?5over?5a?5224?5bit?5prime?5@ 100516d4     libeay32120:ec_curve.obj
 0002:0000a6fc       ??_C@_0BP@OFOPCIHP@020000000000000000000000000201?$AA@ 100516fc     libeay32120:ec_curve.obj
 0002:0000a71c       ??_C@_0BP@NFPAPFFB@003088250CA6E7C7FE649CE85820F7?$AA@ 1005171c     libeay32120:ec_curve.obj
 0002:0000a73c       ??_C@_0BP@BLIPCLGH@00E8BEE4D3E2260744188BE0E9C723?$AA@ 1005173c     libeay32120:ec_curve.obj
 0002:0000a75c       ??_C@_0BP@EGACAFFM@009D73616F35F4AB1407D73562C10F?$AA@ 1005175c     libeay32120:ec_curve.obj
 0002:0000a77c       ??_C@_0BP@FBCJDMN@00A52830277958EE84D1315ED31886?$AA@ 1005177c     libeay32120:ec_curve.obj
 0002:0000a79c       ??_C@_0BP@EAAKHCEK@0100000000000000D9CCEC8A39E56F?$AA@ 1005179c     libeay32120:ec_curve.obj
 0002:0000a7bc       ??_C@_0CH@OHOOPBHG@SECG?5curve?5over?5a?5113?5bit?5binary@ 100517bc     libeay32120:ec_curve.obj
 0002:0000a7e4       ??_C@_0BP@EJCIAAKB@00689918DBEC7E5A0DD6DFC0AA55C7?$AA@ 100517e4     libeay32120:ec_curve.obj
 0002:0000a804       ??_C@_0BP@OBAKANML@0095E9A9EC9B297BD4BF36E059184F?$AA@ 10051804     libeay32120:ec_curve.obj
 0002:0000a824       ??_C@_0BP@HAKEOPIF@01A57A6A7B26CA5EF52FCDB8164797?$AA@ 10051824     libeay32120:ec_curve.obj
 0002:0000a844       ??_C@_0BP@EFNNGCLF@00B3ADC94ED1FE674C06E695BABA1D?$AA@ 10051844     libeay32120:ec_curve.obj
 0002:0000a864       ??_C@_0BP@DKIELOEN@010000000000000108789B2496AF93?$AA@ 10051864     libeay32120:ec_curve.obj
 0002:0000a884       ??_C@_0CD@GKFCOPNA@08000000000000000000000000000001@ 10051884     libeay32120:ec_curve.obj
 0002:0000a8a8       ??_C@_0CD@FHMNMMDO@07A11B09A76B562144418FF3FF8C2570@ 100518a8     libeay32120:ec_curve.obj
 0002:0000a8cc       ??_C@_0CD@KFBHBKHN@0217C05610884B63B9C6C7291678F9D3@ 100518cc     libeay32120:ec_curve.obj
 0002:0000a8f0       ??_C@_0CD@HABOPCAK@0081BAF91FDF9833C40F9C1813436383@ 100518f0     libeay32120:ec_curve.obj
 0002:0000a914       ??_C@_0CD@OGBJFOMP@078C6E7EA38C001F73C8134B1B4EF9E1@ 10051914     libeay32120:ec_curve.obj
 0002:0000a938       ??_C@_0CD@GPHHKHND@0400000000000000023123953A9464B5@ 10051938     libeay32120:ec_curve.obj
 0002:0000a95c       ??_C@_0CM@EPOILLGK@SECG?1WTLS?5curve?5over?5a?5131?5bit?5b@ 1005195c     libeay32120:ec_curve.obj
 0002:0000a988       ??_C@_0CD@MILHCOEH@03E5A88919D7CAFCBF415F07C2176573@ 10051988     libeay32120:ec_curve.obj
 0002:0000a9ac       ??_C@_0CD@NOGAMHBC@04B8266A46C55657AC734CE38F018F21@ 100519ac     libeay32120:ec_curve.obj
 0002:0000a9d0       ??_C@_0CD@JGAEEFKC@0356DCD8F2F95031AD652D23951BB366@ 100519d0     libeay32120:ec_curve.obj
 0002:0000a9f4       ??_C@_0CD@KHBODDIJ@0648F06D867940A5366D9E265DE9EB24@ 100519f4     libeay32120:ec_curve.obj
 0002:0000aa18       ??_C@_0CD@CLJJMJIL@0400000000000000016954A233049BA9@ 10051a18     libeay32120:ec_curve.obj
 0002:0000aa3c       ??_C@_0CH@FJJEIBAL@SECG?5curve?5over?5a?5131?5bit?5binary@ 10051a3c     libeay32120:ec_curve.obj
 0002:0000aa64       ??_C@_0CL@CPIBMACL@08000000000000000000000000000000@ 10051a64     libeay32120:ec_curve.obj
 0002:0000aa90       ??_C@_0CL@NIAKCKHM@02FE13C0537BBC11ACAA07D793DE4E6D@ 10051a90     libeay32120:ec_curve.obj
 0002:0000aabc       ??_C@_0CL@JCJOHIPK@0289070FB05D38FF58321F2E800536D5@ 10051abc     libeay32120:ec_curve.obj
 0002:0000aae8       ??_C@_0CL@OGGJHJDP@04000000000000000000020108A2E0CC@ 10051ae8     libeay32120:ec_curve.obj
 0002:0000ab14       ??_C@_0DB@KNLLOMAB@NIST?1SECG?1WTLS?5curve?5over?5a?5163?5@ 10051b14     libeay32120:ec_curve.obj
 0002:0000ab48       ??_C@_0CL@ELGPMELM@07B6882CAAEFA84F9554FF8428BD88E2@ 10051b48     libeay32120:ec_curve.obj
 0002:0000ab74       ??_C@_0CL@LDOPLLBK@0713612DCDDCB40AAB946BDA29CA91F7@ 10051b74     libeay32120:ec_curve.obj
 0002:0000aba0       ??_C@_0CL@KGICMFLE@0369979697AB43897789566789567F78@ 10051ba0     libeay32120:ec_curve.obj
 0002:0000abcc       ??_C@_0CL@CKJGENIK@00435EDB42EFAFB2989D51FEFCE3C809@ 10051bcc     libeay32120:ec_curve.obj
 0002:0000abf8       ??_C@_0BA@JLJAKIKL@unknown?5library?$AA@ 10051bf8     libeay32120:err.obj
 0002:0000ac08       ??_C@_0P@KJHLNCML@system?5library?$AA@ 10051c08     libeay32120:err.obj
 0002:0000ac18       ??_C@_0BA@BALAMMCD@bignum?5routines?$AA@ 10051c18     libeay32120:err.obj
 0002:0000ac28       ??_C@_0N@FLFIDGHD@rsa?5routines?$AA@ 10051c28     libeay32120:err.obj
 0002:0000ac38       ??_C@_0BI@BELEOFAM@Diffie?9Hellman?5routines?$AA@ 10051c38     libeay32120:err.obj
 0002:0000ac50       ??_C@_0BK@KCBHLAIJ@digital?5envelope?5routines?$AA@ 10051c50     libeay32120:err.obj
 0002:0000ac6c       ??_C@_0BH@GHBGFOKA@memory?5buffer?5routines?$AA@ 10051c6c     libeay32120:err.obj
 0002:0000ac84       ??_C@_0BL@GAJLDLEG@object?5identifier?5routines?$AA@ 10051c84     libeay32120:err.obj
 0002:0000aca0       ??_C@_0N@PPOIEGDJ@PEM?5routines?$AA@ 10051ca0     libeay32120:err.obj
 0002:0000acb0       ??_C@_0N@EPLKEPHE@dsa?5routines?$AA@ 10051cb0     libeay32120:err.obj
 0002:0000acc0       ??_C@_0BK@MLDIFNOG@x509?5certificate?5routines?$AA@ 10051cc0     libeay32120:err.obj
 0002:0000acdc       ??_C@_0BH@OKMDKJBH@asn1?5encoding?5routines?$AA@ 10051cdc     libeay32120:err.obj
 0002:0000acf4       ??_C@_0BM@FNIFPKKP@configuration?5file?5routines?$AA@ 10051cf4     libeay32120:err.obj
 0002:0000ad10       ??_C@_0BK@GOIAPJCF@common?5libcrypto?5routines?$AA@ 10051d10     libeay32120:err.obj
 0002:0000ad2c       ??_C@_0BI@NNCFPCDI@elliptic?5curve?5routines?$AA@ 10051d2c     libeay32120:err.obj
 0002:0000ad44       ??_C@_0N@GAIJLNCL@SSL?5routines?$AA@ 10051d44     libeay32120:err.obj
 0002:0000ad54       ??_C@_0N@HGNFKBOI@BIO?5routines?$AA@ 10051d54     libeay32120:err.obj
 0002:0000ad64       ??_C@_0P@FBDCKDAN@PKCS7?5routines?$AA@ 10051d64     libeay32120:err.obj
 0002:0000ad74       ??_C@_0BB@LKDEPKLM@X509?5V3?5routines?$AA@ 10051d74     libeay32120:err.obj
 0002:0000ad88       ??_C@_0BA@KPFPMFD@PKCS12?5routines?$AA@ 10051d88     libeay32120:err.obj
 0002:0000ad98       ??_C@_0BI@GMPKPCPG@random?5number?5generator?$AA@ 10051d98     libeay32120:err.obj
 0002:0000adb0       ??_C@_0BF@BDHLAIEM@DSO?5support?5routines?$AA@ 10051db0     libeay32120:err.obj
 0002:0000adc8       ??_C@_0BA@MMHCJFKD@engine?5routines?$AA@ 10051dc8     libeay32120:err.obj
 0002:0000add8       ??_C@_0O@LJIADBLP@OCSP?5routines?$AA@ 10051dd8     libeay32120:err.obj
 0002:0000ade8       ??_C@_05FFKPLNPJ@fopen?$AA@ 10051de8     libeay32120:err.obj
 0002:0000adf0       ??_C@_07KAIBNCHO@connect?$AA@ 10051df0     libeay32120:err.obj
 0002:0000adf8       ??_C@_06HBELJPBO@socket?$AA@ 10051df8     libeay32120:err.obj
 0002:0000ae00       ??_C@_0M@PBPOCKDG@ioctlsocket?$AA@ 10051e00     libeay32120:err.obj
 0002:0000ae0c       ??_C@_04NPNJNMMP@bind?$AA@ 10051e0c     libeay32120:err.obj
 0002:0000ae14       ??_C@_06OODDLKLE@listen?$AA@ 10051e14     libeay32120:err.obj
 0002:0000ae1c       ??_C@_06MPKMECK@accept?$AA@ 10051e1c     libeay32120:err.obj
 0002:0000ae24       ??_C@_0L@LNCNEFCG@WSAstartup?$AA@ 10051e24     libeay32120:err.obj
 0002:0000ae30       ??_C@_07OPAOJOOA@opendir?$AA@ 10051e30     libeay32120:err.obj
 0002:0000ae38       ??_C@_05FHPOAJDB@fread?$AA@ 10051e38     libeay32120:err.obj
 0002:0000ae40       ??_C@_0L@NFMIFFDK@system?5lib?$AA@ 10051e40     libeay32120:err.obj
 0002:0000ae4c       ??_C@_06CEKJLBPI@BN?5lib?$AA@ 10051e4c     libeay32120:err.obj
 0002:0000ae54       ??_C@_07PLBLGAPL@RSA?5lib?$AA@ 10051e54     libeay32120:err.obj
 0002:0000ae5c       ??_C@_06JBCAGHNP@DH?5lib?$AA@ 10051e5c     libeay32120:err.obj
 0002:0000ae64       ??_C@_07BHNHKGFA@EVP?5lib?$AA@ 10051e64     libeay32120:err.obj
 0002:0000ae6c       ??_C@_07PJHFFEFC@BUF?5lib?$AA@ 10051e6c     libeay32120:err.obj
 0002:0000ae74       ??_C@_07LHMLCDLI@OBJ?5lib?$AA@ 10051e74     libeay32120:err.obj
 0002:0000ae7c       ??_C@_07MKPCAOAJ@PEM?5lib?$AA@ 10051e7c     libeay32120:err.obj
 0002:0000ae84       ??_C@_07EBMPFIFH@DSA?5lib?$AA@ 10051e84     libeay32120:err.obj
 0002:0000ae8c       ??_C@_08DGLLDICE@X509?5lib?$AA@ 10051e8c     libeay32120:err.obj
 0002:0000ae98       ??_C@_08HAFIEMCJ@ASN1?5lib?$AA@ 10051e98     libeay32120:err.obj
 0002:0000aea4       ??_C@_08GDJNHNLC@CONF?5lib?$AA@ 10051ea4     libeay32120:err.obj
 0002:0000aeb0       ??_C@_0L@GEIMIIEL@CRYPTO?5lib?$AA@ 10051eb0     libeay32120:err.obj
 0002:0000aebc       ??_C@_06FNJAJMKI@EC?5lib?$AA@ 10051ebc     libeay32120:err.obj
 0002:0000aec4       ??_C@_07ILCPHDLL@SSL?5lib?$AA@ 10051ec4     libeay32120:err.obj
 0002:0000aecc       ??_C@_07HOAEPDCA@BIO?5lib?$AA@ 10051ecc     libeay32120:err.obj
 0002:0000aed4       ??_C@_09PFAKBDBP@PKCS7?5lib?$AA@ 10051ed4     libeay32120:err.obj
 0002:0000aee0       ??_C@_0L@OHLIEDB@X509V3?5lib?$AA@ 10051ee0     libeay32120:err.obj
 0002:0000aeec       ??_C@_0L@FBHADCPC@PKCS12?5lib?$AA@ 10051eec     libeay32120:err.obj
 0002:0000aef8       ??_C@_08IAGEJILJ@RAND?5lib?$AA@ 10051ef8     libeay32120:err.obj
 0002:0000af04       ??_C@_07HLMFDJCH@DSO?5lib?$AA@ 10051f04     libeay32120:err.obj
 0002:0000af0c       ??_C@_0L@NEGIHAGL@ENGINE?5lib?$AA@ 10051f0c     libeay32120:err.obj
 0002:0000af18       ??_C@_08BIAIHGB@OCSP?5lib?$AA@ 10051f18     libeay32120:err.obj
 0002:0000af24       ??_C@_0BC@JPACPGKL@nested?5asn1?5error?$AA@ 10051f24     libeay32120:err.obj
 0002:0000af38       ??_C@_0BH@LJENPHMF@bad?5asn1?5object?5header?$AA@ 10051f38     libeay32120:err.obj
 0002:0000af50       ??_C@_0BJ@KHBMOGBI@bad?5get?5asn1?5object?5call?$AA@ 10051f50     libeay32120:err.obj
 0002:0000af6c       ??_C@_0BL@PKJJDDDF@expecting?5an?5asn1?5sequence?$AA@ 10051f6c     libeay32120:err.obj
 0002:0000af88       ??_C@_0BF@JKEELALH@asn1?5length?5mismatch?$AA@ 10051f88     libeay32120:err.obj
 0002:0000afa0       ??_C@_0BB@LLCBNOLO@missing?5asn1?5eos?$AA@ 10051fa0     libeay32120:err.obj
 0002:0000afb4       ??_C@_05FAMCFOJB@fatal?$AA@ 10051fb4     libeay32120:err.obj
 0002:0000afbc       ??_C@_0P@BOLAOBGL@malloc?5failure?$AA@ 10051fbc     libeay32120:err.obj
 0002:0000afcc       ??_C@_0CG@JFIACAPA@called?5a?5function?5you?5should?5not@ 10051fcc     libeay32120:err.obj
 0002:0000aff4       ??_C@_0BI@MMHLKOF@passed?5a?5null?5parameter?$AA@ 10051ff4     libeay32120:err.obj
 0002:0000b00c       ??_C@_0P@LPIEGNHB@internal?5error?$AA@ 1005200c     libeay32120:err.obj
 0002:0000b048       ??_C@_0BD@CKILGKAI@?4?2crypto?2err?2err?4c?$AA@ 10052048     libeay32120:err.obj
 0002:0000b05c       ??_C@_0BE@CGMKPIME@int_err_get?5?$CIerr?4c?$CJ?$AA@ 1005205c     libeay32120:err.obj
 0002:0000b070       ??_C@_0BH@KBGLDIDO@int_thread_get?5?$CIerr?4c?$CJ?$AA@ 10052070     libeay32120:err.obj
 0002:0000b088       _ECDSA_version             10052088     libeay32120:ecs_lib.obj
 0002:0000b0b4       ??_C@_0BJ@FFOJENDB@?4?2crypto?2ecdsa?2ecs_lib?4c?$AA@ 100520b4     libeay32120:ecs_lib.obj
 0002:0000b0d0       ??_C@_0N@JAGKAFD@FILE?5pointer?$AA@ 100520d0     libeay32120:bss_file.obj
 0002:0000b0e0       ??_C@_0BI@EHMCOOOG@?4?2crypto?2bio?2bss_file?4c?$AA@ 100520e0     libeay32120:bss_file.obj
 0002:0000b0f8       ??_C@_02HJPKOJGD@?8?$CJ?$AA@ 100520f8     libeay32120:bss_file.obj
 0002:0000b0fc       ??_C@_03IMMLKIF@?8?0?8?$AA@ 100520fc     libeay32120:bss_file.obj
 0002:0000b100       ??_C@_07JMDFGFFH@fopen?$CI?8?$AA@ 10052100     libeay32120:bss_file.obj
 0002:0000b108       ??_C@_02DPNLHKJD@a?$CL?$AA@ 10052108     libeay32120:bss_file.obj
 0002:0000b10c       ??_C@_02CBLLGHLK@r?$CL?$AA@ 1005210c     libeay32120:bss_file.obj
 0002:0000b110       ??_C@_01OJONOECF@b?$AA@    10052110     libeay32120:bss_file.obj
 0002:0000b114       ??_C@_01PFHFFBPC@t?$AA@    10052114     libeay32120:bss_file.obj
 0002:0000b118       __real@3ff0000000000000    10052118     libeay32120:b_print.obj
 0002:0000b120       ??_C@_0BG@MAGCMNCN@?4?2crypto?2ec?2ec_mult?4c?$AA@ 10052120     libeay32120:ec_mult.obj
 0002:0000b170       ??_C@_06CHOIGJDB@BIGNUM?$AA@ 10052170     libeay32120:x_bignum.obj
 0002:0000b178       ??_C@_0BJ@NBOPBEKM@?4?2crypto?2asn1?2tasn_new?4c?$AA@ 10052178     libeay32120:tasn_new.obj
 0002:0000b218       ??_C@_0BJ@KPAPPHAC@?4?2crypto?2asn1?2tasn_dec?4c?$AA@ 10052218     libeay32120:tasn_dec.obj
 0002:0000b234       ??_C@_07NHKPEHKF@?0?5Type?$DN?$AA@ 10052234     libeay32120:tasn_dec.obj
 0002:0000b23c       ??_C@_06GPKHKFJE@Field?$DN?$AA@ 1005223c     libeay32120:tasn_dec.obj
 0002:0000b244       ??_C@_05GCCLHHOK@Type?$DN?$AA@ 10052244     libeay32120:tasn_dec.obj
 0002:0000b24c       ??_C@_0BJ@BDIDBFLG@?4?2crypto?2asn1?2tasn_enc?4c?$AA@ 1005224c     libeay32120:tasn_enc.obj
 0002:0000b268       _ECDH_version              10052268     libeay32120:ech_lib.obj
 0002:0000b290       ??_C@_0BI@LFHHMGOE@?4?2crypto?2ecdh?2ech_lib?4c?$AA@ 10052290     libeay32120:ech_lib.obj
 0002:0000b340       ??_C@_0BH@LFGIMBNP@?4?2crypto?2ec?2ecp_mont?4c?$AA@ 10052340     libeay32120:ecp_mont.obj
 0002:0000b3f0       ??_C@_0BH@MKKJGLGM@?4?2crypto?2ec?2ecp_nist?4c?$AA@ 100523f0     libeay32120:ecp_nist.obj
 0002:0000b4a0       ??_C@_0BH@HFFIPKFF@?4?2crypto?2ec?2ec2_smpl?4c?$AA@ 100524a0     libeay32120:ec2_smpl.obj
 0002:0000b4b8       ??_C@_0FD@NBEHKJLP@c?3?2proj?2at223_072413?2aardvark_tw@ 100524b8     libeay32120:ec2_smpl.obj
 0002:0000b50c       ??_C@_0CJ@FFCFAMNP@Stack?5part?5of?5OpenSSL?50?49?47c?530?5@ 1005250c     libeay32120:stack.obj
 0002:0000b538       ??_C@_0BH@GBDCJGGB@?4?2crypto?2stack?2stack?4c?$AA@ 10052538     libeay32120:stack.obj
 0002:0000b550       ??_C@_0BJ@BNFJHNHM@?4?2crypto?2buffer?2buffer?4c?$AA@ 10052550     libeay32120:buffer.obj
 0002:0000b56c       ??_C@_0BF@IHHIKAIF@?4?2crypto?2bn?2bn_add?4c?$AA@ 1005256c     libeay32120:bn_add.obj
 0002:0000b584       ??_C@_0BD@KJPFNPNE@?4?2crypto?2mem_dbg?4c?$AA@ 10052584     libeay32120:mem_dbg.obj
 0002:0000b598       ??_C@_0CJ@NDHNCMIM@lhash?5part?5of?5OpenSSL?50?49?47c?530?5@ 10052598     libeay32120:lhash.obj
 0002:0000b5c4       ??_C@_0BH@ENNIJDED@?4?2crypto?2lhash?2lhash?4c?$AA@ 100525c4     libeay32120:lhash.obj
 0002:0000b5dc       ??_C@_0BD@BACHDDOD@?4?2crypto?2ex_data?4c?$AA@ 100525dc     libeay32120:ex_data.obj
 0002:0000b8ac       ??_C@_0O@NJFCFMGE@ASN1_SEQUENCE?$AA@ 100528ac     libeay32120:tasn_typ.obj
 0002:0000b8bc       ??_C@_0P@NDKOCAEJ@ASN1_PRINTABLE?$AA@ 100528bc     libeay32120:tasn_typ.obj
 0002:0000b8cc       ??_C@_0M@FANFDIEE@DISPLAYTEXT?$AA@ 100528cc     libeay32120:tasn_typ.obj
 0002:0000b8d8       ??_C@_0BA@CBHCBCAE@DIRECTORYSTRING?$AA@ 100528d8     libeay32120:tasn_typ.obj
 0002:0000b8e8       ??_C@_0N@HMAPMMGF@ASN1_BOOLEAN?$AA@ 100528e8     libeay32120:tasn_typ.obj
 0002:0000b8f8       ??_C@_0O@BIDLBGAP@ASN1_TBOOLEAN?$AA@ 100528f8     libeay32120:tasn_typ.obj
 0002:0000b908       ??_C@_0O@JKANHMPI@ASN1_FBOOLEAN?$AA@ 10052908     libeay32120:tasn_typ.obj
 0002:0000b918       ??_C@_0BH@HEBAELGA@ASN1_OCTET_STRING_NDEF?$AA@ 10052918     libeay32120:tasn_typ.obj
 0002:0000b930       ??_C@_0N@KIGEHGKE@ASN1_INTEGER?$AA@ 10052930     libeay32120:tasn_typ.obj
 0002:0000b940       ??_C@_0BA@CLGIIAJD@ASN1_ENUMERATED?$AA@ 10052940     libeay32120:tasn_typ.obj
 0002:0000b950       ??_C@_0BA@LJHGDIKH@ASN1_BIT_STRING?$AA@ 10052950     libeay32120:tasn_typ.obj
 0002:0000b960       ??_C@_0BC@PEBEKNCO@ASN1_OCTET_STRING?$AA@ 10052960     libeay32120:tasn_typ.obj
 0002:0000b974       ??_C@_09NHFFCPKK@ASN1_NULL?$AA@ 10052974     libeay32120:tasn_typ.obj
 0002:0000b980       ??_C@_0M@BJNOJGBL@ASN1_OBJECT?$AA@ 10052980     libeay32120:tasn_typ.obj
 0002:0000b98c       ??_C@_0BA@LEPDCAOC@ASN1_UTF8STRING?$AA@ 1005298c     libeay32120:tasn_typ.obj
 0002:0000b99c       ??_C@_0BF@CPDMNKCA@ASN1_PRINTABLESTRING?$AA@ 1005299c     libeay32120:tasn_typ.obj
 0002:0000b9b4       ??_C@_0P@GDIFPLAP@ASN1_T61STRING?$AA@ 100529b4     libeay32120:tasn_typ.obj
 0002:0000b9c4       ??_C@_0P@KBFNFBLB@ASN1_IA5STRING?$AA@ 100529c4     libeay32120:tasn_typ.obj
 0002:0000b9d4       ??_C@_0BD@EMMGLGMD@ASN1_GENERALSTRING?$AA@ 100529d4     libeay32120:tasn_typ.obj
 0002:0000b9e8       ??_C@_0N@OIMCLPEM@ASN1_UTCTIME?$AA@ 100529e8     libeay32120:tasn_typ.obj
 0002:0000b9f8       ??_C@_0BF@MPJFOIHC@ASN1_GENERALIZEDTIME?$AA@ 100529f8     libeay32120:tasn_typ.obj
 0002:0000ba10       ??_C@_0BD@HMMCNBGD@ASN1_VISIBLESTRING?$AA@ 10052a10     libeay32120:tasn_typ.obj
 0002:0000ba24       ??_C@_0BF@DMDDFBNJ@ASN1_UNIVERSALSTRING?$AA@ 10052a24     libeay32120:tasn_typ.obj
 0002:0000ba3c       ??_C@_0P@CHICPHIN@ASN1_BMPSTRING?$AA@ 10052a3c     libeay32120:tasn_typ.obj
 0002:0000ba4c       ??_C@_08FIDCPDIJ@ASN1_ANY?$AA@ 10052a4c     libeay32120:tasn_typ.obj
 0002:0000ba58       _ASN1_version              10052a58     libeay32120:asn1_lib.obj
 0002:0000ba84       ??_C@_0BJ@BDGDICBL@?4?2crypto?2asn1?2asn1_lib?4c?$AA@ 10052a84     libeay32120:asn1_lib.obj
 0002:0000baa0       ??_C@_0BF@DJKLHCAL@OpenSSL?5ECDSA?5method?$AA@ 10052aa0     libeay32120:ecs_ossl.obj
 0002:0000bab8       ??_C@_0BK@JICBNKGE@?4?2crypto?2ecdsa?2ecs_ossl?4c?$AA@ 10052ab8     libeay32120:ecs_ossl.obj
 0002:0000bad8       ??_C@_0BL@BEBELKO@?4?2crypto?2engine?2eng_init?4c?$AA@ 10052ad8     libeay32120:eng_init.obj
 0002:0000baf4       ??_C@_06HFDFFJHI@Domain?$AA@ 10052af4     libeay32120:obj_dat.obj
 0002:0000bafc       ??_C@_0BJ@BDDNHDDA@selected?9attribute?9types?$AA@ 10052afc     libeay32120:obj_dat.obj
 0002:0000bb18       ??_C@_0BJ@MAOJIBHF@Selected?5Attribute?5Types?$AA@ 10052b18     libeay32120:obj_dat.obj
 0002:0000bb34       ??_C@_09ECGCCLFI@clearance?$AA@ 10052b34     libeay32120:obj_dat.obj
 0002:0000bb40       ??_C@_07MHHBEDHA@RSA?9MD4?$AA@ 10052b40     libeay32120:obj_dat.obj
 0002:0000bb48       ??_C@_0BF@JDOFKNPK@md4WithRSAEncryption?$AA@ 10052b48     libeay32120:obj_dat.obj
 0002:0000bb60       ??_C@_0M@BKAIKGEL@ac?9proxying?$AA@ 10052b60     libeay32120:obj_dat.obj
 0002:0000bb6c       ??_C@_0BC@IEIBIKBA@subjectInfoAccess?$AA@ 10052b6c     libeay32120:obj_dat.obj
 0002:0000bb80       ??_C@_0BL@OMFIOBLF@Subject?5Information?5Access?$AA@ 10052b80     libeay32120:obj_dat.obj
 0002:0000bb9c       ??_C@_0BA@PEFFHNFH@id?9aca?9encAttrs?$AA@ 10052b9c     libeay32120:obj_dat.obj
 0002:0000bbac       ??_C@_04IAMNPBLO@role?$AA@ 10052bac     libeay32120:obj_dat.obj
 0002:0000bbb4       ??_C@_0BC@IJLMCBHD@policyConstraints?$AA@ 10052bb4     libeay32120:obj_dat.obj
 0002:0000bbc8       ??_C@_0BK@DNMBLGM@X509v3?5Policy?5Constraints?$AA@ 10052bc8     libeay32120:obj_dat.obj
 0002:0000bbe4       ??_C@_0BC@JINDJNPM@targetInformation?$AA@ 10052be4     libeay32120:obj_dat.obj
 0002:0000bbf8       ??_C@_0BE@IECCFFCH@X509v3?5AC?5Targeting?$AA@ 10052bf8     libeay32120:obj_dat.obj
 0002:0000bc0c       ??_C@_0L@ECGDAGCK@noRevAvail?$AA@ 10052c0c     libeay32120:obj_dat.obj
 0002:0000bc18       ??_C@_0BP@DEKFNCEH@X509v3?5No?5Revocation?5Available?$AA@ 10052c18     libeay32120:obj_dat.obj
 0002:0000bc38       ??_C@_0L@LBMOMFCJ@ansi?9X9?962?$AA@ 10052c38     libeay32120:obj_dat.obj
 0002:0000bc44       ??_C@_0L@HAOKGHPF@ANSI?5X9?462?$AA@ 10052c44     libeay32120:obj_dat.obj
 0002:0000bc50       ??_C@_0M@LGLKIODB@prime?9field?$AA@ 10052c50     libeay32120:obj_dat.obj
 0002:0000bc5c       ??_C@_0BJ@HECCMKCN@characteristic?9two?9field?$AA@ 10052c5c     libeay32120:obj_dat.obj
 0002:0000bc78       ??_C@_0P@NEOBKIMO@id?9ecPublicKey?$AA@ 10052c78     libeay32120:obj_dat.obj
 0002:0000bc88       ??_C@_0L@FFFCIFBH@prime192v1?$AA@ 10052c88     libeay32120:obj_dat.obj
 0002:0000bc94       ??_C@_0L@HOHPNGNE@prime192v2?$AA@ 10052c94     libeay32120:obj_dat.obj
 0002:0000bca0       ??_C@_0L@GHGEOHJF@prime192v3?$AA@ 10052ca0     libeay32120:obj_dat.obj
 0002:0000bcac       ??_C@_0L@EOHHGIBJ@prime239v1?$AA@ 10052cac     libeay32120:obj_dat.obj
 0002:0000bcb8       ??_C@_0L@GFFKDLNK@prime239v2?$AA@ 10052cb8     libeay32120:obj_dat.obj
 0002:0000bcc4       ??_C@_0L@HMEBAKJL@prime239v3?$AA@ 10052cc4     libeay32120:obj_dat.obj
 0002:0000bcd0       ??_C@_0L@JJFEINOP@prime256v1?$AA@ 10052cd0     libeay32120:obj_dat.obj
 0002:0000bcdc       ??_C@_0BA@DGJNDOPM@ecdsa?9with?9SHA1?$AA@ 10052cdc     libeay32120:obj_dat.obj
 0002:0000bcec       ??_C@_07BPKAKPJK@CSPName?$AA@ 10052cec     libeay32120:obj_dat.obj
 0002:0000bcf4       ??_C@_0BD@HDEEGCLB@Microsoft?5CSP?5Name?$AA@ 10052cf4     libeay32120:obj_dat.obj
 0002:0000bd08       ??_C@_0M@BCNEBAOB@AES?9128?9ECB?$AA@ 10052d08     libeay32120:obj_dat.obj
 0002:0000bd14       ??_C@_0M@MONPIKGC@aes?9128?9ecb?$AA@ 10052d14     libeay32120:obj_dat.obj
 0002:0000bd20       ??_C@_0M@CPGGBEEL@AES?9128?9CBC?$AA@ 10052d20     libeay32120:obj_dat.obj
 0002:0000bd2c       ??_C@_0M@PDGNIOMI@aes?9128?9cbc?$AA@ 10052d2c     libeay32120:obj_dat.obj
 0002:0000bd38       ??_C@_0M@HLKCDCGO@AES?9128?9OFB?$AA@ 10052d38     libeay32120:obj_dat.obj
 0002:0000bd44       ??_C@_0M@KHKJKION@aes?9128?9ofb?$AA@ 10052d44     libeay32120:obj_dat.obj
 0002:0000bd50       ??_C@_0M@DBHEINNG@AES?9128?9CFB?$AA@ 10052d50     libeay32120:obj_dat.obj
 0002:0000bd5c       ??_C@_0M@ONHPBHFF@aes?9128?9cfb?$AA@ 10052d5c     libeay32120:obj_dat.obj
 0002:0000bd68       ??_C@_0M@LBEIGHHN@AES?9192?9ECB?$AA@ 10052d68     libeay32120:obj_dat.obj
 0002:0000bd74       ??_C@_0M@GNEDPNPO@aes?9192?9ecb?$AA@ 10052d74     libeay32120:obj_dat.obj
 0002:0000bd80       ??_C@_0M@IMPKGDNH@AES?9192?9CBC?$AA@ 10052d80     libeay32120:obj_dat.obj
 0002:0000bd8c       ??_C@_0M@FAPBPJFE@aes?9192?9cbc?$AA@ 10052d8c     libeay32120:obj_dat.obj
 0002:0000bd98       ??_C@_0M@NIDOEFPC@AES?9192?9OFB?$AA@ 10052d98     libeay32120:obj_dat.obj
 0002:0000bda4       ??_C@_0M@EDFNPHB@aes?9192?9ofb?$AA@ 10052da4     libeay32120:obj_dat.obj
 0002:0000bdb0       ??_C@_0M@JCOIPKEK@AES?9192?9CFB?$AA@ 10052db0     libeay32120:obj_dat.obj
 0002:0000bdbc       ??_C@_0M@EOODGAMJ@aes?9192?9cfb?$AA@ 10052dbc     libeay32120:obj_dat.obj
 0002:0000bdc8       ??_C@_0M@GDPGEIPM@AES?9256?9ECB?$AA@ 10052dc8     libeay32120:obj_dat.obj
 0002:0000bdd4       ??_C@_0M@LPPNNCHP@aes?9256?9ecb?$AA@ 10052dd4     libeay32120:obj_dat.obj
 0002:0000bde0       ??_C@_0M@FOEEEMFG@AES?9256?9CBC?$AA@ 10052de0     libeay32120:obj_dat.obj
 0002:0000bdec       ??_C@_0M@ICEPNGNF@aes?9256?9cbc?$AA@ 10052dec     libeay32120:obj_dat.obj
 0002:0000bdf8       ??_C@_0M@KIAGKHD@AES?9256?9OFB?$AA@ 10052df8     libeay32120:obj_dat.obj
 0002:0000be04       ??_C@_0M@NGILPAPA@aes?9256?9ofb?$AA@ 10052e04     libeay32120:obj_dat.obj
 0002:0000be10       ??_C@_0M@EAFGNFML@AES?9256?9CFB?$AA@ 10052e10     libeay32120:obj_dat.obj
 0002:0000be1c       ??_C@_0M@JMFNEPEI@aes?9256?9cfb?$AA@ 10052e1c     libeay32120:obj_dat.obj
 0002:0000be28       ??_C@_0BE@FKEPLGJO@holdInstructionCode?$AA@ 10052e28     libeay32120:obj_dat.obj
 0002:0000be3c       ??_C@_0BG@LHBPDMAN@Hold?5Instruction?5Code?$AA@ 10052e3c     libeay32120:obj_dat.obj
 0002:0000be54       ??_C@_0BE@KPEIPHPJ@holdInstructionNone?$AA@ 10052e54     libeay32120:obj_dat.obj
 0002:0000be68       ??_C@_0BG@ECBIHNGK@Hold?5Instruction?5None?$AA@ 10052e68     libeay32120:obj_dat.obj
 0002:0000be80       ??_C@_0BK@ENEKHHMB@holdInstructionCallIssuer?$AA@ 10052e80     libeay32120:obj_dat.obj
 0002:0000be9c       ??_C@_0BN@IJKNPIFC@Hold?5Instruction?5Call?5Issuer?$AA@ 10052e9c     libeay32120:obj_dat.obj
 0002:0000bebc       ??_C@_0BG@BDAACIJE@holdInstructionReject?$AA@ 10052ebc     libeay32120:obj_dat.obj
 0002:0000bed4       ??_C@_0BI@EEABHGCD@Hold?5Instruction?5Reject?$AA@ 10052ed4     libeay32120:obj_dat.obj
 0002:0000beec       ??_C@_04PJOLNDGD@data?$AA@ 10052eec     libeay32120:obj_dat.obj
 0002:0000bef4       ??_C@_03OHCBHMED@pss?$AA@  10052ef4     libeay32120:obj_dat.obj
 0002:0000bef8       ??_C@_03BIDCBJP@ucl?$AA@   10052ef8     libeay32120:obj_dat.obj
 0002:0000befc       ??_C@_05KIBFDOPF@pilot?$AA@ 10052efc     libeay32120:obj_dat.obj
 0002:0000bf04       ??_C@_0BD@NEGIHOAI@pilotAttributeType?$AA@ 10052f04     libeay32120:obj_dat.obj
 0002:0000bf18       ??_C@_0BF@CDEFHHCF@pilotAttributeSyntax?$AA@ 10052f18     libeay32120:obj_dat.obj
 0002:0000bf30       ??_C@_0BB@MJFNAIDM@pilotObjectClass?$AA@ 10052f30     libeay32120:obj_dat.obj
 0002:0000bf44       ??_C@_0M@DLMEDAFC@pilotGroups?$AA@ 10052f44     libeay32120:obj_dat.obj
 0002:0000bf50       ??_C@_0BA@KPIIGILK@iA5StringSyntax?$AA@ 10052f50     libeay32120:obj_dat.obj
 0002:0000bf60       ??_C@_0BK@LELMGJGD@caseIgnoreIA5StringSyntax?$AA@ 10052f60     libeay32120:obj_dat.obj
 0002:0000bf7c       ??_C@_0M@MCCFCPKP@pilotObject?$AA@ 10052f7c     libeay32120:obj_dat.obj
 0002:0000bf88       ??_C@_0M@NCGDCEIP@pilotPerson?$AA@ 10052f88     libeay32120:obj_dat.obj
 0002:0000bf94       ??_C@_07PMDLEBNF@account?$AA@ 10052f94     libeay32120:obj_dat.obj
 0002:0000bf9c       ??_C@_08JEEDKNPB@document?$AA@ 10052f9c     libeay32120:obj_dat.obj
 0002:0000bfa8       ??_C@_04EKFCMFOP@room?$AA@ 10052fa8     libeay32120:obj_dat.obj
 0002:0000bfb0       ??_C@_0P@OAPEDDHP@documentSeries?$AA@ 10052fb0     libeay32120:obj_dat.obj
 0002:0000bfc0       ??_C@_0BA@KIAIOBLD@rFC822localPart?$AA@ 10052fc0     libeay32120:obj_dat.obj
 0002:0000bfd0       ??_C@_09BOCGGGMK@dNSDomain?$AA@ 10052fd0     libeay32120:obj_dat.obj
 0002:0000bfdc       ??_C@_0BE@OPAPHNCO@domainRelatedObject?$AA@ 10052fdc     libeay32120:obj_dat.obj
 0002:0000bff0       ??_C@_0BA@LKHIAMBK@friendlyCountry?$AA@ 10052ff0     libeay32120:obj_dat.obj
 0002:0000c000       ??_C@_0BF@CONLNHDI@simpleSecurityObject?$AA@ 10053000     libeay32120:obj_dat.obj
 0002:0000c018       ??_C@_0BC@PLDKCMI@pilotOrganization?$AA@ 10053018     libeay32120:obj_dat.obj
 0002:0000c02c       ??_C@_08MPJGPMC@pilotDSA?$AA@ 1005302c     libeay32120:obj_dat.obj
 0002:0000c038       ??_C@_0BE@DDFOMMI@qualityLabelledData?$AA@ 10053038     libeay32120:obj_dat.obj
 0002:0000c04c       ??_C@_03MJDGODDN@UID?$AA@  1005304c     libeay32120:obj_dat.obj
 0002:0000c050       ??_C@_06LPELCIKE@userId?$AA@ 10053050     libeay32120:obj_dat.obj
 0002:0000c058       ??_C@_0BF@HDIIKJDI@textEncodedORAddress?$AA@ 10053058     libeay32120:obj_dat.obj
 0002:0000c070       ??_C@_04FFKLPPHM@mail?$AA@ 10053070     libeay32120:obj_dat.obj
 0002:0000c078       ??_C@_0O@PDNFEOHL@rfc822Mailbox?$AA@ 10053078     libeay32120:obj_dat.obj
 0002:0000c088       ??_C@_04NIDJFNBE@info?$AA@ 10053088     libeay32120:obj_dat.obj
 0002:0000c090       ??_C@_0P@PAMFCEKP@favouriteDrink?$AA@ 10053090     libeay32120:obj_dat.obj
 0002:0000c0a0       ??_C@_0L@DGKNANFO@roomNumber?$AA@ 100530a0     libeay32120:obj_dat.obj
 0002:0000c0ac       ??_C@_05DOIFDPKA@photo?$AA@ 100530ac     libeay32120:obj_dat.obj
 0002:0000c0b4       ??_C@_09CCPGMHEM@userClass?$AA@ 100530b4     libeay32120:obj_dat.obj
 0002:0000c0c0       ??_C@_04OODOLJMA@host?$AA@ 100530c0     libeay32120:obj_dat.obj
 0002:0000c0c8       ??_C@_07JPLKDPHP@manager?$AA@ 100530c8     libeay32120:obj_dat.obj
 0002:0000c0d0       ??_C@_0BD@MEPJGCEO@documentIdentifier?$AA@ 100530d0     libeay32120:obj_dat.obj
 0002:0000c0e4       ??_C@_0O@BDIDABAC@documentTitle?$AA@ 100530e4     libeay32120:obj_dat.obj
 0002:0000c0f4       ??_C@_0BA@GHOLKFM@documentVersion?$AA@ 100530f4     libeay32120:obj_dat.obj
 0002:0000c104       ??_C@_0P@DABDJKFB@documentAuthor?$AA@ 10053104     libeay32120:obj_dat.obj
 0002:0000c114       ??_C@_0BB@COFKDFJ@documentLocation?$AA@ 10053114     libeay32120:obj_dat.obj
 0002:0000c128       ??_C@_0BE@CPLAKLNE@homeTelephoneNumber?$AA@ 10053128     libeay32120:obj_dat.obj
 0002:0000c13c       ??_C@_09EMBFDNKC@secretary?$AA@ 1005313c     libeay32120:obj_dat.obj
 0002:0000c148       ??_C@_0N@CEOKELFP@otherMailbox?$AA@ 10053148     libeay32120:obj_dat.obj
 0002:0000c158       ??_C@_0BB@LHLABCIP@lastModifiedTime?$AA@ 10053158     libeay32120:obj_dat.obj
 0002:0000c16c       ??_C@_0P@ECLEJAJJ@lastModifiedBy?$AA@ 1005316c     libeay32120:obj_dat.obj
 0002:0000c17c       ??_C@_07IBNMBOJB@aRecord?$AA@ 1005317c     libeay32120:obj_dat.obj
 0002:0000c184       ??_C@_0BF@MIIMJDJB@pilotAttributeType27?$AA@ 10053184     libeay32120:obj_dat.obj
 0002:0000c19c       ??_C@_08DFFJPLPD@mXRecord?$AA@ 1005319c     libeay32120:obj_dat.obj
 0002:0000c1a8       ??_C@_08FBLONLGA@nSRecord?$AA@ 100531a8     libeay32120:obj_dat.obj
 0002:0000c1b4       ??_C@_09OCFHDJJF@sOARecord?$AA@ 100531b4     libeay32120:obj_dat.obj
 0002:0000c1c0       ??_C@_0M@GHEAGPOE@cNAMERecord?$AA@ 100531c0     libeay32120:obj_dat.obj
 0002:0000c1cc       ??_C@_0BB@MEFMIBKO@associatedDomain?$AA@ 100531cc     libeay32120:obj_dat.obj
 0002:0000c1e0       ??_C@_0P@OJOOFNGB@associatedName?$AA@ 100531e0     libeay32120:obj_dat.obj
 0002:0000c1f0       ??_C@_0BC@NPJKACJF@homePostalAddress?$AA@ 100531f0     libeay32120:obj_dat.obj
 0002:0000c204       ??_C@_0O@CCHLDBGG@personalTitle?$AA@ 10053204     libeay32120:obj_dat.obj
 0002:0000c214       ??_C@_0BG@DCPABLLG@mobileTelephoneNumber?$AA@ 10053214     libeay32120:obj_dat.obj
 0002:0000c22c       ??_C@_0BF@JICDDEFM@pagerTelephoneNumber?$AA@ 1005322c     libeay32120:obj_dat.obj
 0002:0000c244       ??_C@_0BE@MGDAFGCM@friendlyCountryName?$AA@ 10053244     libeay32120:obj_dat.obj
 0002:0000c258       ??_C@_0BF@IANLBJMF@organizationalStatus?$AA@ 10053258     libeay32120:obj_dat.obj
 0002:0000c270       ??_C@_0N@DGNBNBGJ@janetMailbox?$AA@ 10053270     libeay32120:obj_dat.obj
 0002:0000c280       ??_C@_0BF@OFOHKDCI@mailPreferenceOption?$AA@ 10053280     libeay32120:obj_dat.obj
 0002:0000c298       ??_C@_0N@POAALOHC@buildingName?$AA@ 10053298     libeay32120:obj_dat.obj
 0002:0000c2a8       ??_C@_0L@LMCCHBHL@dSAQuality?$AA@ 100532a8     libeay32120:obj_dat.obj
 0002:0000c2b4       ??_C@_0BD@EHDOPADK@singleLevelQuality?$AA@ 100532b4     libeay32120:obj_dat.obj
 0002:0000c2c8       ??_C@_0BG@HMOECBMF@subtreeMinimumQuality?$AA@ 100532c8     libeay32120:obj_dat.obj
 0002:0000c2e0       ??_C@_0BG@FLFPEGPE@subtreeMaximumQuality?$AA@ 100532e0     libeay32120:obj_dat.obj
 0002:0000c2f8       ??_C@_0BC@CBOFINFC@personalSignature?$AA@ 100532f8     libeay32120:obj_dat.obj
 0002:0000c30c       ??_C@_0M@KIABODOB@dITRedirect?$AA@ 1005330c     libeay32120:obj_dat.obj
 0002:0000c318       ??_C@_05KNIAAKIP@audio?$AA@ 10053318     libeay32120:obj_dat.obj
 0002:0000c320       ??_C@_0BC@KCCHJGGO@documentPublisher?$AA@ 10053320     libeay32120:obj_dat.obj
 0002:0000c334       ??_C@_0BF@EFCCADKK@x500UniqueIdentifier?$AA@ 10053334     libeay32120:obj_dat.obj
 0002:0000c34c       ??_C@_08HLONPBDI@mime?9mhs?$AA@ 1005334c     libeay32120:obj_dat.obj
 0002:0000c358       ??_C@_08DNBACEKK@MIME?5MHS?$AA@ 10053358     libeay32120:obj_dat.obj
 0002:0000c364       ??_C@_0BC@NIFMCBEJ@mime?9mhs?9headings?$AA@ 10053364     libeay32120:obj_dat.obj
 0002:0000c378       ??_C@_0BA@MOFCNIEE@mime?9mhs?9bodies?$AA@ 10053378     libeay32120:obj_dat.obj
 0002:0000c388       ??_C@_0BH@ILCJEHBB@id?9hex?9partial?9message?$AA@ 10053388     libeay32120:obj_dat.obj
 0002:0000c3a0       ??_C@_0BJ@KCNAIDP@id?9hex?9multipart?9message?$AA@ 100533a0     libeay32120:obj_dat.obj
 0002:0000c3bc       ??_C@_0BE@DAEHFOO@generationQualifier?$AA@ 100533bc     libeay32120:obj_dat.obj
 0002:0000c3d0       ??_C@_09NNMENHIH@pseudonym?$AA@ 100533d0     libeay32120:obj_dat.obj
 0002:0000c3dc       ??_C@_06KKEMDFAF@id?9set?$AA@ 100533dc     libeay32120:obj_dat.obj
 0002:0000c3e4       ??_C@_0BP@KEIHJPNF@Secure?5Electronic?5Transactions?$AA@ 100533e4     libeay32120:obj_dat.obj
 0002:0000c404       ??_C@_09EJPBIJJA@set?9ctype?$AA@ 10053404     libeay32120:obj_dat.obj
 0002:0000c410       ??_C@_0O@HJGLMADJ@content?5types?$AA@ 10053410     libeay32120:obj_dat.obj
 0002:0000c420       ??_C@_0L@PKPEIEIJ@set?9msgExt?$AA@ 10053420     libeay32120:obj_dat.obj
 0002:0000c42c       ??_C@_0BD@LEIDLLNO@message?5extensions?$AA@ 1005342c     libeay32120:obj_dat.obj
 0002:0000c440       ??_C@_08OFDIOKIA@set?9attr?$AA@ 10053440     libeay32120:obj_dat.obj
 0002:0000c44c       ??_C@_0L@LAAAKICM@set?9policy?$AA@ 1005344c     libeay32120:obj_dat.obj
 0002:0000c458       ??_C@_0M@KEIBDDC@set?9certExt?$AA@ 10053458     libeay32120:obj_dat.obj
 0002:0000c464       ??_C@_0BH@PDPIEGPA@certificate?5extensions?$AA@ 10053464     libeay32120:obj_dat.obj
 0002:0000c47c       ??_C@_09JHODGPNO@set?9brand?$AA@ 1005347c     libeay32120:obj_dat.obj
 0002:0000c488       ??_C@_0O@EKAPGBNN@setct?9PANData?$AA@ 10053488     libeay32120:obj_dat.obj
 0002:0000c498       ??_C@_0P@LAMDLEMO@setct?9PANToken?$AA@ 10053498     libeay32120:obj_dat.obj
 0002:0000c4a8       ??_C@_0O@PFJCCKAL@setct?9PANOnly?$AA@ 100534a8     libeay32120:obj_dat.obj
 0002:0000c4b8       ??_C@_0N@GHLAGDMC@setct?9OIData?$AA@ 100534b8     libeay32120:obj_dat.obj
 0002:0000c4c8       ??_C@_08MNJJNIEC@setct?9PI?$AA@ 100534c8     libeay32120:obj_dat.obj
 0002:0000c4d4       ??_C@_0N@PGCGIPOF@setct?9PIData?$AA@ 100534d4     libeay32120:obj_dat.obj
 0002:0000c4e4       ??_C@_0BF@BDFGFMFJ@setct?9PIDataUnsigned?$AA@ 100534e4     libeay32120:obj_dat.obj
 0002:0000c4fc       ??_C@_0P@LPBKKIBL@setct?9HODInput?$AA@ 100534fc     libeay32120:obj_dat.obj
 0002:0000c50c       ??_C@_0BF@EFHLGKOJ@setct?9AuthResBaggage?$AA@ 1005350c     libeay32120:obj_dat.obj
 0002:0000c524       ??_C@_0BI@DEMAFNK@setct?9AuthRevReqBaggage?$AA@ 10053524     libeay32120:obj_dat.obj
 0002:0000c53c       ??_C@_0BI@CNLKCNFM@setct?9AuthRevResBaggage?$AA@ 1005353c     libeay32120:obj_dat.obj
 0002:0000c554       ??_C@_0BC@DDFFKACM@setct?9CapTokenSeq?$AA@ 10053554     libeay32120:obj_dat.obj
 0002:0000c568       ??_C@_0BD@GIEGHJGD@setct?9PInitResData?$AA@ 10053568     libeay32120:obj_dat.obj
 0002:0000c57c       ??_C@_0N@GIGHFPBJ@setct?9PI?9TBS?$AA@ 1005357c     libeay32120:obj_dat.obj
 0002:0000c58c       ??_C@_0P@NGDEPBBH@setct?9PResData?$AA@ 1005358c     libeay32120:obj_dat.obj
 0002:0000c59c       ??_C@_0BB@OFKINDPN@setct?9AuthReqTBS?$AA@ 1005359c     libeay32120:obj_dat.obj
 0002:0000c5b0       ??_C@_0BB@JPGIIAJN@setct?9AuthResTBS?$AA@ 100535b0     libeay32120:obj_dat.obj
 0002:0000c5c4       ??_C@_0BC@PMEDFACF@setct?9AuthResTBSX?$AA@ 100535c4     libeay32120:obj_dat.obj
 0002:0000c5d8       ??_C@_0BD@CLPECGHJ@setct?9AuthTokenTBS?$AA@ 100535d8     libeay32120:obj_dat.obj
 0002:0000c5ec       ??_C@_0BD@BFGEHNIL@setct?9CapTokenData?$AA@ 100535ec     libeay32120:obj_dat.obj
 0002:0000c600       ??_C@_0BC@DEDCIONA@setct?9CapTokenTBS?$AA@ 10053600     libeay32120:obj_dat.obj
 0002:0000c614       ??_C@_0BF@LAOAGKEH@setct?9AcqCardCodeMsg?$AA@ 10053614     libeay32120:obj_dat.obj
 0002:0000c62c       ??_C@_0BE@KBFOOHGF@setct?9AuthRevReqTBS?$AA@ 1005362c     libeay32120:obj_dat.obj
 0002:0000c640       ??_C@_0BF@ODDCPHOK@setct?9AuthRevResData?$AA@ 10053640     libeay32120:obj_dat.obj
 0002:0000c658       ??_C@_0BE@NLJOLEAF@setct?9AuthRevResTBS?$AA@ 10053658     libeay32120:obj_dat.obj
 0002:0000c66c       ??_C@_0BA@KCAOGCKM@setct?9CapReqTBS?$AA@ 1005366c     libeay32120:obj_dat.obj
 0002:0000c67c       ??_C@_0BB@KNKADGPN@setct?9CapReqTBSX?$AA@ 1005367c     libeay32120:obj_dat.obj
 0002:0000c690       ??_C@_0BB@BIJNNHL@setct?9CapResData?$AA@ 10053690     libeay32120:obj_dat.obj
 0002:0000c6a4       ??_C@_0BD@OELDKIB@setct?9CapRevReqTBS?$AA@ 100536a4     libeay32120:obj_dat.obj
 0002:0000c6b8       ??_C@_0BE@OINDCPNA@setct?9CapRevReqTBSX?$AA@ 100536b8     libeay32120:obj_dat.obj
 0002:0000c6cc       ??_C@_0BE@EEPKMEFG@setct?9CapRevResData?$AA@ 100536cc     libeay32120:obj_dat.obj
 0002:0000c6e0       ??_C@_0BB@LDAMDCDI@setct?9CredReqTBS?$AA@ 100536e0     libeay32120:obj_dat.obj
 0002:0000c6f4       ??_C@_0BC@FKNDGDPA@setct?9CredReqTBSX?$AA@ 100536f4     libeay32120:obj_dat.obj
 0002:0000c708       ??_C@_0BC@PGPKIIHG@setct?9CredResData?$AA@ 10053708     libeay32120:obj_dat.obj
 0002:0000c71c       ??_C@_0BE@KAOEBGME@setct?9CredRevReqTBS?$AA@ 1005371c     libeay32120:obj_dat.obj
 0002:0000c730       ??_C@_0BF@OOMLDFOD@setct?9CredRevReqTBSX?$AA@ 10053730     libeay32120:obj_dat.obj
 0002:0000c748       ??_C@_0BF@ECOCNOGF@setct?9CredRevResData?$AA@ 10053748     libeay32120:obj_dat.obj
 0002:0000c760       ??_C@_0BD@DDNGMNFC@setct?9PCertReqData?$AA@ 10053760     libeay32120:obj_dat.obj
 0002:0000c774       ??_C@_0BC@CFHCKIIA@setct?9PCertResTBS?$AA@ 10053774     libeay32120:obj_dat.obj
 0002:0000c788       ??_C@_0BI@MKKDKHGI@setct?9BatchAdminReqData?$AA@ 10053788     libeay32120:obj_dat.obj
 0002:0000c7a0       ??_C@_0BI@IHGLAGGD@setct?9BatchAdminResData?$AA@ 100537a0     libeay32120:obj_dat.obj
 0002:0000c7b8       ??_C@_0BG@OMHIHPPP@setct?9CardCInitResTBS?$AA@ 100537b8     libeay32120:obj_dat.obj
 0002:0000c7d0       ??_C@_0BG@DIBJJIJB@setct?9MeAqCInitResTBS?$AA@ 100537d0     libeay32120:obj_dat.obj
 0002:0000c7e8       ??_C@_0BE@KOFLJLPI@setct?9RegFormResTBS?$AA@ 100537e8     libeay32120:obj_dat.obj
 0002:0000c7fc       ??_C@_0BC@FFENCANF@setct?9CertReqData?$AA@ 100537fc     libeay32120:obj_dat.obj
 0002:0000c810       ??_C@_0BB@MCGELGDK@setct?9CertReqTBS?$AA@ 10053810     libeay32120:obj_dat.obj
 0002:0000c824       ??_C@_0BC@BIIFIBNO@setct?9CertResData?$AA@ 10053824     libeay32120:obj_dat.obj
 0002:0000c838       ??_C@_0BE@OIDIJLCF@setct?9CertInqReqTBS?$AA@ 10053838     libeay32120:obj_dat.obj
 0002:0000c84c       ??_C@_0P@DLHKHMDJ@setct?9ErrorTBS?$AA@ 1005384c     libeay32120:obj_dat.obj
 0002:0000c85c       ??_C@_0BG@JDDNBPAG@setct?9PIDualSignedTBE?$AA@ 1005385c     libeay32120:obj_dat.obj
 0002:0000c874       ??_C@_0BE@IBOAPLDD@setct?9PIUnsignedTBE?$AA@ 10053874     libeay32120:obj_dat.obj
 0002:0000c888       ??_C@_0BB@PJDAGGCK@setct?9AuthReqTBE?$AA@ 10053888     libeay32120:obj_dat.obj
 0002:0000c89c       ??_C@_0BB@IDPADFEK@setct?9AuthResTBE?$AA@ 1005389c     libeay32120:obj_dat.obj
 0002:0000c8b0       ??_C@_0BC@OEOIIPOH@setct?9AuthResTBEX?$AA@ 100538b0     libeay32120:obj_dat.obj
 0002:0000c8c4       ??_C@_0BD@DHGMJDKO@setct?9AuthTokenTBE?$AA@ 100538c4     libeay32120:obj_dat.obj
 0002:0000c8d8       ??_C@_0BC@CIKKDLAH@setct?9CapTokenTBE?$AA@ 100538d8     libeay32120:obj_dat.obj
 0002:0000c8ec       ??_C@_0BD@OMCOOIME@setct?9CapTokenTBEX?$AA@ 100538ec     libeay32120:obj_dat.obj
 0002:0000c900       ??_C@_0BI@PALCIALL@setct?9AcqCardCodeMsgTBE?$AA@ 10053900     libeay32120:obj_dat.obj
 0002:0000c918       ??_C@_0BE@LNMGFCLC@setct?9AuthRevReqTBE?$AA@ 10053918     libeay32120:obj_dat.obj
 0002:0000c92c       ??_C@_0BE@MHAGABNC@setct?9AuthRevResTBE?$AA@ 1005392c     libeay32120:obj_dat.obj
 0002:0000c940       ??_C@_0BF@KKFFJIHO@setct?9AuthRevResTBEB?$AA@ 10053940     libeay32120:obj_dat.obj
 0002:0000c958       ??_C@_0BA@LOJGNHHL@setct?9CapReqTBE?$AA@ 10053958     libeay32120:obj_dat.obj
 0002:0000c968       ??_C@_0BB@LFALOJDP@setct?9CapReqTBEX?$AA@ 10053968     libeay32120:obj_dat.obj
 0002:0000c97c       ??_C@_0BA@MEFGIEBL@setct?9CapResTBE?$AA@ 1005397c     libeay32120:obj_dat.obj
 0002:0000c98c       ??_C@_0BD@BCNDIPFG@setct?9CapRevReqTBE?$AA@ 1005398c     libeay32120:obj_dat.obj
 0002:0000c9a0       ??_C@_0BE@PAHIPABC@setct?9CapRevReqTBEX?$AA@ 100539a0     libeay32120:obj_dat.obj
 0002:0000c9b4       ??_C@_0BD@GIBDNMDG@setct?9CapRevResTBE?$AA@ 100539b4     libeay32120:obj_dat.obj
 0002:0000c9c8       ??_C@_0BB@KPJEIHOP@setct?9CredReqTBE?$AA@ 100539c8     libeay32120:obj_dat.obj
 0002:0000c9dc       ??_C@_0BC@ECHILMDC@setct?9CredReqTBEX?$AA@ 100539dc     libeay32120:obj_dat.obj
 0002:0000c9f0       ??_C@_0BB@NFFENEIP@setct?9CredResTBE?$AA@ 100539f0     libeay32120:obj_dat.obj
 0002:0000ca04       ??_C@_0BE@LMHMKDBD@setct?9CredRevReqTBE?$AA@ 10053a04     libeay32120:obj_dat.obj
 0002:0000ca18       ??_C@_0BF@PGGAOKCB@setct?9CredRevReqTBEX?$AA@ 10053a18     libeay32120:obj_dat.obj
 0002:0000ca30       ??_C@_0BE@MGLMPAHD@setct?9CredRevResTBE?$AA@ 10053a30     libeay32120:obj_dat.obj
 0002:0000ca44       ??_C@_0BH@IPJPBLKL@setct?9BatchAdminReqTBE?$AA@ 10053a44     libeay32120:obj_dat.obj
 0002:0000ca5c       ??_C@_0BH@PFFPEIML@setct?9BatchAdminResTBE?$AA@ 10053a5c     libeay32120:obj_dat.obj
 0002:0000ca74       ??_C@_0BE@MIADHNEP@setct?9RegFormReqTBE?$AA@ 10053a74     libeay32120:obj_dat.obj
 0002:0000ca88       ??_C@_0BB@NOPMADON@setct?9CertReqTBE?$AA@ 10053a88     libeay32120:obj_dat.obj
 0002:0000ca9c       ??_C@_0BC@KMAHLFJK@setct?9CertReqTBEX?$AA@ 10053a9c     libeay32120:obj_dat.obj
 0002:0000cab0       ??_C@_0BB@KEDMFAIN@setct?9CertResTBE?$AA@ 10053ab0     libeay32120:obj_dat.obj
 0002:0000cac4       ??_C@_0BJ@KMIJGANO@setct?9CRLNotificationTBS?$AA@ 10053ac4     libeay32120:obj_dat.obj
 0002:0000cae0       ??_C@_0BM@GINBKIMJ@setct?9CRLNotificationResTBS?$AA@ 10053ae0     libeay32120:obj_dat.obj
 0002:0000cafc       ??_C@_0BJ@BPGLEKIJ@setct?9BCIDistributionTBS?$AA@ 10053afc     libeay32120:obj_dat.obj
 0002:0000cb18       ??_C@_0BA@NKJJMGPC@setext?9genCrypt?$AA@ 10053b18     libeay32120:obj_dat.obj
 0002:0000cb28       ??_C@_0BD@IMJHIOH@generic?5cryptogram?$AA@ 10053b28     libeay32120:obj_dat.obj
 0002:0000cb3c       ??_C@_0O@IFMPKKOL@setext?9miAuth?$AA@ 10053b3c     libeay32120:obj_dat.obj
 0002:0000cb4c       ??_C@_0BI@IMGNFPLI@merchant?5initiated?5auth?$AA@ 10053b4c     libeay32120:obj_dat.obj
 0002:0000cb64       ??_C@_0BB@IKLFBNP@setext?9pinSecure?$AA@ 10053b64     libeay32120:obj_dat.obj
 0002:0000cb78       ??_C@_0O@PNHGIFHA@setext?9pinAny?$AA@ 10053b78     libeay32120:obj_dat.obj
 0002:0000cb88       ??_C@_0O@PNAFPHHK@setext?9track2?$AA@ 10053b88     libeay32120:obj_dat.obj
 0002:0000cb98       ??_C@_09GMOEIEJI@setext?9cv?$AA@ 10053b98     libeay32120:obj_dat.obj
 0002:0000cba4       ??_C@_0BI@MFPOFNGC@additional?5verification?$AA@ 10053ba4     libeay32120:obj_dat.obj
 0002:0000cbbc       ??_C@_0BA@DLJGCPKK@set?9policy?9root?$AA@ 10053bbc     libeay32120:obj_dat.obj
 0002:0000cbcc       ??_C@_0BD@MELPLACB@setCext?9hashedRoot?$AA@ 10053bcc     libeay32120:obj_dat.obj
 0002:0000cbe0       ??_C@_0BB@LHGCHNFD@setCext?9certType?$AA@ 10053be0     libeay32120:obj_dat.obj
 0002:0000cbf4       ??_C@_0BC@ONMLOIHK@setCext?9merchData?$AA@ 10053bf4     libeay32120:obj_dat.obj
 0002:0000cc08       ??_C@_0BG@CMNKGOHO@setCext?9cCertRequired?$AA@ 10053c08     libeay32120:obj_dat.obj
 0002:0000cc20       ??_C@_0BC@BPADJLFJ@setCext?9tunneling?$AA@ 10053c20     libeay32120:obj_dat.obj
 0002:0000cc34       ??_C@_0P@DFHCPLJG@setCext?9setExt?$AA@ 10053c34     libeay32120:obj_dat.obj
 0002:0000cc44       ??_C@_0BB@HIAOOOIO@setCext?9setQualf?$AA@ 10053c44     libeay32120:obj_dat.obj
 0002:0000cc58       ??_C@_0BJ@CNLNHONG@setCext?9PGWYcapabilities?$AA@ 10053c58     libeay32120:obj_dat.obj
 0002:0000cc74       ??_C@_0BI@FIIEHNL@setCext?9TokenIdentifier?$AA@ 10053c74     libeay32120:obj_dat.obj
 0002:0000cc8c       ??_C@_0BD@FHFLAKJD@setCext?9Track2Data?$AA@ 10053c8c     libeay32120:obj_dat.obj
 0002:0000cca0       ??_C@_0BC@KMFGLCBL@setCext?9TokenType?$AA@ 10053ca0     libeay32120:obj_dat.obj
 0002:0000ccb4       ??_C@_0BL@OLCLGJDA@setCext?9IssuerCapabilities?$AA@ 10053cb4     libeay32120:obj_dat.obj
 0002:0000ccd0       ??_C@_0N@DCNKAAPN@setAttr?9Cert?$AA@ 10053cd0     libeay32120:obj_dat.obj
 0002:0000cce0       ??_C@_0BA@FAIFDKDK@setAttr?9PGWYcap?$AA@ 10053ce0     libeay32120:obj_dat.obj
 0002:0000ccf0       ??_C@_0BN@HEFBDPEB@payment?5gateway?5capabilities?$AA@ 10053cf0     libeay32120:obj_dat.obj
 0002:0000cd10       ??_C@_0BC@IKOKMCIL@setAttr?9TokenType?$AA@ 10053d10     libeay32120:obj_dat.obj
 0002:0000cd24       ??_C@_0P@OGFLCCKL@setAttr?9IssCap?$AA@ 10053d24     libeay32120:obj_dat.obj
 0002:0000cd34       ??_C@_0BE@HBDPGKCG@issuer?5capabilities?$AA@ 10053d34     libeay32120:obj_dat.obj
 0002:0000cd48       ??_C@_0BB@MADMNAKK@set?9rootKeyThumb?$AA@ 10053d48     libeay32120:obj_dat.obj
 0002:0000cd5c       ??_C@_0O@NOCONBCM@set?9addPolicy?$AA@ 10053d5c     libeay32120:obj_dat.obj
 0002:0000cd6c       ??_C@_0BC@BMANBENP@setAttr?9Token?9EMV?$AA@ 10053d6c     libeay32120:obj_dat.obj
 0002:0000cd80       ??_C@_0BG@ICNBHDJ@setAttr?9Token?9B0Prime?$AA@ 10053d80     libeay32120:obj_dat.obj
 0002:0000cd98       ??_C@_0BD@CMJDLAHE@setAttr?9IssCap?9CVM?$AA@ 10053d98     libeay32120:obj_dat.obj
 0002:0000cdac       ??_C@_0BC@FKLLNJMF@setAttr?9IssCap?9T2?$AA@ 10053dac     libeay32120:obj_dat.obj
 0002:0000cdc0       ??_C@_0BD@DMNGIJGO@setAttr?9IssCap?9Sig?$AA@ 10053dc0     libeay32120:obj_dat.obj
 0002:0000cdd4       ??_C@_0BE@FJCINFHM@setAttr?9GenCryptgrm?$AA@ 10053dd4     libeay32120:obj_dat.obj
 0002:0000cde8       ??_C@_0BE@BANBLNDJ@generate?5cryptogram?$AA@ 10053de8     libeay32120:obj_dat.obj
 0002:0000cdfc       ??_C@_0O@GFEDKLID@setAttr?9T2Enc?$AA@ 10053dfc     libeay32120:obj_dat.obj
 0002:0000ce0c       ??_C@_0BC@MCHFBPJF@encrypted?5track?52?$AA@ 10053e0c     libeay32120:obj_dat.obj
 0002:0000ce20       ??_C@_0BD@GDDCOMNC@setAttr?9T2cleartxt?$AA@ 10053e20     libeay32120:obj_dat.obj
 0002:0000ce34       ??_C@_0BC@EEELFHMJ@cleartext?5track?52?$AA@ 10053e34     libeay32120:obj_dat.obj
 0002:0000ce48       ??_C@_0BC@KFHJNGAA@setAttr?9TokICCsig?$AA@ 10053e48     libeay32120:obj_dat.obj
 0002:0000ce5c       ??_C@_0BH@FLMFBHA@ICC?5or?5token?5signature?$AA@ 10053e5c     libeay32120:obj_dat.obj
 0002:0000ce74       ??_C@_0BC@HILPEDHB@setAttr?9SecDevSig?$AA@ 10053e74     libeay32120:obj_dat.obj
 0002:0000ce88       ??_C@_0BI@BMDLNIII@secure?5device?5signature?$AA@ 10053e88     libeay32120:obj_dat.obj
 0002:0000cea0       ??_C@_0BD@EBDAHFCK@set?9brand?9IATA?9ATA?$AA@ 10053ea0     libeay32120:obj_dat.obj
 0002:0000ceb4       ??_C@_0BB@MJOMIBOM@set?9brand?9Diners?$AA@ 10053eb4     libeay32120:obj_dat.obj
 0002:0000cec8       ??_C@_0BK@NGHCPIFJ@set?9brand?9AmericanExpress?$AA@ 10053ec8     libeay32120:obj_dat.obj
 0002:0000cee4       ??_C@_0O@ODFDKJIN@set?9brand?9JCB?$AA@ 10053ee4     libeay32120:obj_dat.obj
 0002:0000cef4       ??_C@_0P@KADKEMKM@set?9brand?9Visa?$AA@ 10053ef4     libeay32120:obj_dat.obj
 0002:0000cf04       ??_C@_0BF@EKCBHCKG@set?9brand?9MasterCard?$AA@ 10053f04     libeay32120:obj_dat.obj
 0002:0000cf1c       ??_C@_0BA@JHOGHBHC@set?9brand?9Novus?$AA@ 10053f1c     libeay32120:obj_dat.obj
 0002:0000cf2c       ??_C@_08IHLOILPC@DES?9CDMF?$AA@ 10053f2c     libeay32120:obj_dat.obj
 0002:0000cf38       ??_C@_08PPLOLAOD@des?9cdmf?$AA@ 10053f38     libeay32120:obj_dat.obj
 0002:0000cf44       ??_C@_0BF@EIIDBKMM@rsaOAEPEncryptionSET?$AA@ 10053f44     libeay32120:obj_dat.obj
 0002:0000cf5c       ??_C@_05LJGINOIA@ITU?9T?$AA@ 10053f5c     libeay32120:obj_dat.obj
 0002:0000cf64       ??_C@_05EKLDHPCO@itu?9t?$AA@ 10053f64     libeay32120:obj_dat.obj
 0002:0000cf6c       ??_C@_0BA@NPJCPIN@JOINT?9ISO?9ITU?9T?$AA@ 10053f6c     libeay32120:obj_dat.obj
 0002:0000cf7c       ??_C@_0BA@DDCJMADA@joint?9iso?9itu?9t?$AA@ 10053f7c     libeay32120:obj_dat.obj
 0002:0000cf8c       ??_C@_0BM@PBBEOBAP@international?9organizations?$AA@ 10053f8c     libeay32120:obj_dat.obj
 0002:0000cfa8       ??_C@_0BM@PGMBEIHL@International?5Organizations?$AA@ 10053fa8     libeay32120:obj_dat.obj
 0002:0000cfc4       ??_C@_0BB@MJPMDGHF@msSmartcardLogin?$AA@ 10053fc4     libeay32120:obj_dat.obj
 0002:0000cfd8       ??_C@_0BJ@BHLLFCI@Microsoft?5Smartcardlogin?$AA@ 10053fd8     libeay32120:obj_dat.obj
 0002:0000cff4       ??_C@_05LKLAGLGM@msUPN?$AA@ 10053ff4     libeay32120:obj_dat.obj
 0002:0000cffc       ??_C@_0CD@POJHJMFG@Microsoft?5Universal?5Principal?5Na@ 10053ffc     libeay32120:obj_dat.obj
 0002:0000d020       ??_C@_0N@KJNMAENO@AES?9128?9CFB1?$AA@ 10054020     libeay32120:obj_dat.obj
 0002:0000d030       ??_C@_0N@NNLBNNNO@aes?9128?9cfb1?$AA@ 10054030     libeay32120:obj_dat.obj
 0002:0000d040       ??_C@_0N@FAMGEHMG@AES?9192?9CFB1?$AA@ 10054040     libeay32120:obj_dat.obj
 0002:0000d050       ??_C@_0N@CEKLJOMG@aes?9192?9cfb1?$AA@ 10054050     libeay32120:obj_dat.obj
 0002:0000d060       ??_C@_0N@MKKLEKFP@AES?9256?9CFB1?$AA@ 10054060     libeay32120:obj_dat.obj
 0002:0000d070       ??_C@_0N@LOMGJDFP@aes?9256?9cfb1?$AA@ 10054070     libeay32120:obj_dat.obj
 0002:0000d080       ??_C@_0N@HIBOLPJH@AES?9128?9CFB8?$AA@ 10054080     libeay32120:obj_dat.obj
 0002:0000d090       ??_C@_0N@MHDGGJH@aes?9128?9cfb8?$AA@ 10054090     libeay32120:obj_dat.obj
 0002:0000d0a0       ??_C@_0N@IBAEPMIP@AES?9192?9CFB8?$AA@ 100540a0     libeay32120:obj_dat.obj
 0002:0000d0b0       ??_C@_0N@PFGJCFIP@aes?9192?9cfb8?$AA@ 100540b0     libeay32120:obj_dat.obj
 0002:0000d0c0       ??_C@_0N@BLGJPBBG@AES?9256?9CFB8?$AA@ 100540c0     libeay32120:obj_dat.obj
 0002:0000d0d0       ??_C@_0N@GPAECIBG@aes?9256?9cfb8?$AA@ 100540d0     libeay32120:obj_dat.obj
 0002:0000d0e0       ??_C@_08EGJFOLHF@DES?9CFB1?$AA@ 100540e0     libeay32120:obj_dat.obj
 0002:0000d0ec       ??_C@_08KLBBPEMG@des?9cfb1?$AA@ 100540ec     libeay32120:obj_dat.obj
 0002:0000d0f8       ??_C@_08JHFHFADM@DES?9CFB8?$AA@ 100540f8     libeay32120:obj_dat.obj
 0002:0000d104       ??_C@_08HKNDEPIP@des?9cfb8?$AA@ 10054104     libeay32120:obj_dat.obj
 0002:0000d110       ??_C@_0O@HMFIBGGD@DES?9EDE3?9CFB1?$AA@ 10054110     libeay32120:obj_dat.obj
 0002:0000d120       ??_C@_0O@HHBHNLEJ@des?9ede3?9cfb1?$AA@ 10054120     libeay32120:obj_dat.obj
 0002:0000d130       ??_C@_0O@KNJKKNCK@DES?9EDE3?9CFB8?$AA@ 10054130     libeay32120:obj_dat.obj
 0002:0000d140       ??_C@_0O@KGNFGAAA@des?9ede3?9cfb8?$AA@ 10054140     libeay32120:obj_dat.obj
 0002:0000d150       ??_C@_0O@GFJANBCD@streetAddress?$AA@ 10054150     libeay32120:obj_dat.obj
 0002:0000d160       ??_C@_0L@NCDHJCMF@postalCode?$AA@ 10054160     libeay32120:obj_dat.obj
 0002:0000d16c       ??_C@_06CAAPGDCJ@id?9ppl?$AA@ 1005416c     libeay32120:obj_dat.obj
 0002:0000d174       ??_C@_0O@LOINHHBF@proxyCertInfo?$AA@ 10054174     libeay32120:obj_dat.obj
 0002:0000d184       ??_C@_0BO@CCHFGBDO@Proxy?5Certificate?5Information?$AA@ 10054184     libeay32120:obj_dat.obj
 0002:0000d1a4       ??_C@_0BD@HNCKDFAM@id?9ppl?9anyLanguage?$AA@ 100541a4     libeay32120:obj_dat.obj
 0002:0000d1b8       ??_C@_0N@BEBFEGLC@Any?5language?$AA@ 100541b8     libeay32120:obj_dat.obj
 0002:0000d1c8       ??_C@_0BC@PCEJIIF@id?9ppl?9inheritAll?$AA@ 100541c8     libeay32120:obj_dat.obj
 0002:0000d1dc       ??_C@_0M@FFLAPACB@Inherit?5all?$AA@ 100541dc     libeay32120:obj_dat.obj
 0002:0000d1e8       ??_C@_0BA@NDBMPGLN@nameConstraints?$AA@ 100541e8     libeay32120:obj_dat.obj
 0002:0000d1f8       ??_C@_0BI@MLJLAGL@X509v3?5Name?5Constraints?$AA@ 100541f8     libeay32120:obj_dat.obj
 0002:0000d210       ??_C@_0BD@JMNHHICP@id?9ppl?9independent?$AA@ 10054210     libeay32120:obj_dat.obj
 0002:0000d224       ??_C@_0M@MLMKHJLC@Independent?$AA@ 10054224     libeay32120:obj_dat.obj
 0002:0000d230       ??_C@_0L@CICIPLII@RSA?9SHA256?$AA@ 10054230     libeay32120:obj_dat.obj
 0002:0000d23c       ??_C@_0BI@OLMNBFHG@sha256WithRSAEncryption?$AA@ 1005423c     libeay32120:obj_dat.obj
 0002:0000d254       ??_C@_0L@KKHKGNDM@RSA?9SHA384?$AA@ 10054254     libeay32120:obj_dat.obj
 0002:0000d260       ??_C@_0BI@LGPCJGLE@sha384WithRSAEncryption?$AA@ 10054260     libeay32120:obj_dat.obj
 0002:0000d278       ??_C@_0L@NGJKKOOJ@RSA?9SHA512?$AA@ 10054278     libeay32120:obj_dat.obj
 0002:0000d284       ??_C@_0BI@CFKPHFJF@sha512WithRSAEncryption?$AA@ 10054284     libeay32120:obj_dat.obj
 0002:0000d29c       ??_C@_0L@BPFBIPIP@RSA?9SHA224?$AA@ 1005429c     libeay32120:obj_dat.obj
 0002:0000d2a8       ??_C@_0BI@HODNLFBE@sha224WithRSAEncryption?$AA@ 100542a8     libeay32120:obj_dat.obj
 0002:0000d2c0       ??_C@_06HKIKMHH@SHA256?$AA@ 100542c0     libeay32120:obj_dat.obj
 0002:0000d2c8       ??_C@_06OHILPNJ@sha256?$AA@ 100542c8     libeay32120:obj_dat.obj
 0002:0000d2d0       ??_C@_06IFPKDKMD@SHA384?$AA@ 100542d0     libeay32120:obj_dat.obj
 0002:0000d2d8       ??_C@_06IMCKCJGN@sha384?$AA@ 100542d8     libeay32120:obj_dat.obj
 0002:0000d2e0       ??_C@_06PJBKPJBG@SHA512?$AA@ 100542e0     libeay32120:obj_dat.obj
 0002:0000d2e8       ??_C@_06PAMKOKLI@sha512?$AA@ 100542e8     libeay32120:obj_dat.obj
 0002:0000d2f0       ??_C@_06DANBNIHA@SHA224?$AA@ 100542f0     libeay32120:obj_dat.obj
 0002:0000d2f8       ??_C@_06DJABMLNO@sha224?$AA@ 100542f8     libeay32120:obj_dat.obj
 0002:0000d300       ??_C@_0BI@NDBFOMIA@identified?9organization?$AA@ 10054300     libeay32120:obj_dat.obj
 0002:0000d318       ??_C@_0N@GOPBJFID@certicom?9arc?$AA@ 10054318     libeay32120:obj_dat.obj
 0002:0000d328       ??_C@_03EOHJGACH@wap?$AA@  10054328     libeay32120:obj_dat.obj
 0002:0000d32c       ??_C@_07KJBJKKHG@wap?9wsg?$AA@ 1005432c     libeay32120:obj_dat.obj
 0002:0000d334       ??_C@_0BM@PPOCDOAJ@id?9characteristic?9two?9basis?$AA@ 10054334     libeay32120:obj_dat.obj
 0002:0000d350       ??_C@_07JEMDIFEL@onBasis?$AA@ 10054350     libeay32120:obj_dat.obj
 0002:0000d358       ??_C@_07ICPDEPKF@tpBasis?$AA@ 10054358     libeay32120:obj_dat.obj
 0002:0000d360       ??_C@_07GLJEBFP@ppBasis?$AA@ 10054360     libeay32120:obj_dat.obj
 0002:0000d368       ??_C@_0L@INFLBNIO@c2pnb163v1?$AA@ 10054368     libeay32120:obj_dat.obj
 0002:0000d374       ??_C@_0L@KGHGEOEN@c2pnb163v2?$AA@ 10054374     libeay32120:obj_dat.obj
 0002:0000d380       ??_C@_0L@LPGNHPAM@c2pnb163v3?$AA@ 10054380     libeay32120:obj_dat.obj
 0002:0000d38c       ??_C@_0L@IHOFMEAM@c2pnb176v1?$AA@ 1005438c     libeay32120:obj_dat.obj
 0002:0000d398       ??_C@_0L@PIOOBDNI@c2tnb191v1?$AA@ 10054398     libeay32120:obj_dat.obj
 0002:0000d3a4       ??_C@_0L@NDMDEABL@c2tnb191v2?$AA@ 100543a4     libeay32120:obj_dat.obj
 0002:0000d3b0       ??_C@_0L@MKNIHBFK@c2tnb191v3?$AA@ 100543b0     libeay32120:obj_dat.obj
 0002:0000d3bc       ??_C@_0L@KLAMDLDB@c2onb191v4?$AA@ 100543bc     libeay32120:obj_dat.obj
 0002:0000d3c8       ??_C@_0L@LCBHAKHA@c2onb191v5?$AA@ 100543c8     libeay32120:obj_dat.obj
 0002:0000d3d4       ??_C@_0L@FCEMHHLG@c2pnb208w1?$AA@ 100543d4     libeay32120:obj_dat.obj
 0002:0000d3e0       ??_C@_0L@PBHOFBDI@c2tnb239v1?$AA@ 100543e0     libeay32120:obj_dat.obj
 0002:0000d3ec       ??_C@_0L@NKFDACPL@c2tnb239v2?$AA@ 100543ec     libeay32120:obj_dat.obj
 0002:0000d3f8       ??_C@_0L@MDEIDDLK@c2tnb239v3?$AA@ 100543f8     libeay32120:obj_dat.obj
 0002:0000d404       ??_C@_0L@KCJMHJNB@c2onb239v4?$AA@ 10054404     libeay32120:obj_dat.obj
 0002:0000d410       ??_C@_0L@LLIHEIJA@c2onb239v5?$AA@ 10054410     libeay32120:obj_dat.obj
 0002:0000d41c       ??_C@_0L@IPNBELMC@c2pnb272w1?$AA@ 1005441c     libeay32120:obj_dat.obj
 0002:0000d428       ??_C@_0L@NDMGBLKL@c2pnb304w1?$AA@ 10054428     libeay32120:obj_dat.obj
 0002:0000d434       ??_C@_0L@LFGCHHDN@c2tnb359v1?$AA@ 10054434     libeay32120:obj_dat.obj
 0002:0000d440       ??_C@_0L@BGFAFBLD@c2pnb368w1?$AA@ 10054440     libeay32120:obj_dat.obj
 0002:0000d44c       ??_C@_0L@OFJKDCBG@c2tnb431r1?$AA@ 1005444c     libeay32120:obj_dat.obj
 0002:0000d458       ??_C@_09DNJONEBC@secp112r1?$AA@ 10054458     libeay32120:obj_dat.obj
 0002:0000d464       ??_C@_09BGLDIHNB@secp112r2?$AA@ 10054464     libeay32120:obj_dat.obj
 0002:0000d470       ??_C@_09BFIDEOKG@secp128r1?$AA@ 10054470     libeay32120:obj_dat.obj
 0002:0000d47c       ??_C@_09DOKOBNGF@secp128r2?$AA@ 1005447c     libeay32120:obj_dat.obj
 0002:0000d488       ??_C@_09DGEAFIHG@secp160k1?$AA@ 10054488     libeay32120:obj_dat.obj
 0002:0000d494       ??_C@_09CFLHMAIJ@secp160r1?$AA@ 10054494     libeay32120:obj_dat.obj
 0002:0000d4a0       ??_C@_09OJKJDEK@secp160r2?$AA@ 100544a0     libeay32120:obj_dat.obj
 0002:0000d4ac       ??_C@_09BOBJAHCM@secp192k1?$AA@ 100544ac     libeay32120:obj_dat.obj
 0002:0000d4b8       ??_C@_09MKDGBLEP@secp224k1?$AA@ 100544b8     libeay32120:obj_dat.obj
 0002:0000d4c4       ??_C@_09NJMBIDLA@secp224r1?$AA@ 100544c4     libeay32120:obj_dat.obj
 0002:0000d4d0       ??_C@_09NCBPAPNE@secp256k1?$AA@ 100544d0     libeay32120:obj_dat.obj
 0002:0000d4dc       ??_C@_09FICNEILE@secp384r1?$AA@ 100544dc     libeay32120:obj_dat.obj
 0002:0000d4e8       ??_C@_09PDBKEDDK@secp521r1?$AA@ 100544e8     libeay32120:obj_dat.obj
 0002:0000d4f4       ??_C@_09HBGNJHGE@sect113r1?$AA@ 100544f4     libeay32120:obj_dat.obj
 0002:0000d500       ??_C@_09FKEAMEKH@sect113r2?$AA@ 10054500     libeay32120:obj_dat.obj
 0002:0000d50c       ??_C@_09KBKEAMIP@sect131r1?$AA@ 1005450c     libeay32120:obj_dat.obj
 0002:0000d518       ??_C@_09IKIJFPEM@sect131r2?$AA@ 10054518     libeay32120:obj_dat.obj
 0002:0000d524       ??_C@_09NALKNDIL@sect163k1?$AA@ 10054524     libeay32120:obj_dat.obj
 0002:0000d530       ??_C@_09MDENELHE@sect163r1?$AA@ 10054530     libeay32120:obj_dat.obj
 0002:0000d53c       ??_C@_09OIGABILH@sect163r2?$AA@ 1005453c     libeay32120:obj_dat.obj
 0002:0000d548       ??_C@_09EBBNNMKF@sect193r1?$AA@ 10054548     libeay32120:obj_dat.obj
 0002:0000d554       ??_C@_09GKDAIPGG@sect193r2?$AA@ 10054554     libeay32120:obj_dat.obj
 0002:0000d560       ??_C@_09JOMOCOFF@sect233k1?$AA@ 10054560     libeay32120:obj_dat.obj
 0002:0000d56c       ??_C@_09INDJLGKK@sect233r1?$AA@ 1005456c     libeay32120:obj_dat.obj
 0002:0000d578       ??_C@_09PBHDMODB@sect239k1?$AA@ 10054578     libeay32120:obj_dat.obj
 0002:0000d584       ??_C@_09OJBOBPEE@sect283k1?$AA@ 10054584     libeay32120:obj_dat.obj
 0002:0000d590       ??_C@_09PKOJIHLL@sect283r1?$AA@ 10054590     libeay32120:obj_dat.obj
 0002:0000d59c       ??_C@_09GAIKFHPM@sect409k1?$AA@ 1005459c     libeay32120:obj_dat.obj
 0002:0000d5a8       ??_C@_09HDHNMPAD@sect409r1?$AA@ 100545a8     libeay32120:obj_dat.obj
 0002:0000d5b4       ??_C@_09NMECHAKG@sect571k1?$AA@ 100545b4     libeay32120:obj_dat.obj
 0002:0000d5c0       ??_C@_09MPLFOIFJ@sect571r1?$AA@ 100545c0     libeay32120:obj_dat.obj
 0002:0000d5cc       ??_C@_0BH@PEHFMMHF@wap?9wsg?9idm?9ecid?9wtls1?$AA@ 100545cc     libeay32120:obj_dat.obj
 0002:0000d5e4       ??_C@_0BH@MGEDKOPH@wap?9wsg?9idm?9ecid?9wtls3?$AA@ 100545e4     libeay32120:obj_dat.obj
 0002:0000d5fc       ??_C@_0BH@IJACDIDA@wap?9wsg?9idm?9ecid?9wtls4?$AA@ 100545fc     libeay32120:obj_dat.obj
 0002:0000d614       ??_C@_0BH@JABJAJHB@wap?9wsg?9idm?9ecid?9wtls5?$AA@ 10054614     libeay32120:obj_dat.obj
 0002:0000d62c       ??_C@_0BH@LLDEFKLC@wap?9wsg?9idm?9ecid?9wtls6?$AA@ 1005462c     libeay32120:obj_dat.obj
 0002:0000d644       ??_C@_0BH@KCCPGLPD@wap?9wsg?9idm?9ecid?9wtls7?$AA@ 10054644     libeay32120:obj_dat.obj
 0002:0000d65c       ??_C@_0BH@CFLHHHDM@wap?9wsg?9idm?9ecid?9wtls8?$AA@ 1005465c     libeay32120:obj_dat.obj
 0002:0000d674       ??_C@_0BH@DMKMEGHN@wap?9wsg?9idm?9ecid?9wtls9?$AA@ 10054674     libeay32120:obj_dat.obj
 0002:0000d68c       ??_C@_0BI@PPNNMGIM@wap?9wsg?9idm?9ecid?9wtls10?$AA@ 1005468c     libeay32120:obj_dat.obj
 0002:0000d6a4       ??_C@_0BI@OGMGPHMN@wap?9wsg?9idm?9ecid?9wtls11?$AA@ 100546a4     libeay32120:obj_dat.obj
 0002:0000d6bc       ??_C@_0BI@MNOLKEAO@wap?9wsg?9idm?9ecid?9wtls12?$AA@ 100546bc     libeay32120:obj_dat.obj
 0002:0000d6d4       ??_C@_09MLGAJAED@undefined?$AA@ 100546d4     libeay32120:obj_dat.obj
 0002:0000d6e0       ??_C@_09HBBJOJHB@anyPolicy?$AA@ 100546e0     libeay32120:obj_dat.obj
 0002:0000d6ec       ??_C@_06GGEMKGKC@rsadsi?$AA@ 100546ec     libeay32120:obj_dat.obj
 0002:0000d6f4       ??_C@_0BC@CEEMIAHF@X509v3?5Any?5Policy?$AA@ 100546f4     libeay32120:obj_dat.obj
 0002:0000d708       ??_C@_0BI@MPBNCOIB@RSA?5Data?5Security?0?5Inc?4?$AA@ 10054708     libeay32120:obj_dat.obj
 0002:0000d720       ??_C@_0P@MEGGINDP@policyMappings?$AA@ 10054720     libeay32120:obj_dat.obj
 0002:0000d730       ??_C@_04GCKLMHGD@pkcs?$AA@ 10054730     libeay32120:obj_dat.obj
 0002:0000d738       ??_C@_0BH@NJBPACCN@X509v3?5Policy?5Mappings?$AA@ 10054738     libeay32120:obj_dat.obj
 0002:0000d750       ??_C@_0BN@EBHJCEC@RSA?5Data?5Security?0?5Inc?4?5PKCS?$AA@ 10054750     libeay32120:obj_dat.obj
 0002:0000d770       ??_C@_0BB@CFCCDKGF@inhibitAnyPolicy?$AA@ 10054770     libeay32120:obj_dat.obj
 0002:0000d784       ??_C@_03CNCGNBGO@MD2?$AA@  10054784     libeay32120:obj_dat.obj
 0002:0000d788       ??_C@_0BK@FPAAFIAO@X509v3?5Inhibit?5Any?5Policy?$AA@ 10054788     libeay32120:obj_dat.obj
 0002:0000d7a4       ??_C@_03LFFJDILA@md2?$AA@  100547a4     libeay32120:obj_dat.obj
 0002:0000d7a8       ??_C@_0O@BLJEJBFH@Oakley?9EC2N?93?$AA@ 100547a8     libeay32120:obj_dat.obj
 0002:0000d7b8       ??_C@_03GCGHEHKJ@MD5?$AA@  100547b8     libeay32120:obj_dat.obj
 0002:0000d7bc       ??_C@_06HLOPKJBB@ipsec3?$AA@ 100547bc     libeay32120:obj_dat.obj
 0002:0000d7c4       ??_C@_03PKBIKOHH@md5?$AA@  100547c4     libeay32120:obj_dat.obj
 0002:0000d7c8       ??_C@_03HGEJCHKE@RC4?$AA@  100547c8     libeay32120:obj_dat.obj
 0002:0000d7cc       ??_C@_0O@FENFAHJA@Oakley?9EC2N?94?$AA@ 100547cc     libeay32120:obj_dat.obj
 0002:0000d7dc       ??_C@_03OODGMOHK@rc4?$AA@  100547dc     libeay32120:obj_dat.obj
 0002:0000d7e0       ??_C@_06DEKODPNG@ipsec4?$AA@ 100547e0     libeay32120:obj_dat.obj
 0002:0000d7e8       ??_C@_0O@PCHNMHJE@rsaEncryption?$AA@ 100547e8     libeay32120:obj_dat.obj
 0002:0000d7f8       ??_C@_07JBCLOEPG@RSA?9MD2?$AA@ 100547f8     libeay32120:obj_dat.obj
 0002:0000d800       ??_C@_0BB@HAKAAAMD@CAMELLIA?9128?9CBC?$AA@ 10054800     libeay32120:obj_dat.obj
 0002:0000d814       ??_C@_0BF@ODJKGOJ@md2WithRSAEncryption?$AA@ 10054814     libeay32120:obj_dat.obj
 0002:0000d82c       ??_C@_0BB@GDOINOHE@camellia?9128?9cbc?$AA@ 1005482c     libeay32120:obj_dat.obj
 0002:0000d840       ??_C@_07NOGKHCDB@RSA?9MD5?$AA@ 10054840     libeay32120:obj_dat.obj
 0002:0000d848       ??_C@_0BB@NDDMHHFP@CAMELLIA?9192?9CBC?$AA@ 10054848     libeay32120:obj_dat.obj
 0002:0000d85c       ??_C@_0BF@EEAHCNKC@md5WithRSAEncryption?$AA@ 1005485c     libeay32120:obj_dat.obj
 0002:0000d874       ??_C@_0BB@MAHEKJOI@camellia?9192?9cbc?$AA@ 10054874     libeay32120:obj_dat.obj
 0002:0000d888       ??_C@_0M@LMNGCPDB@PBE?9MD2?9DES?$AA@ 10054888     libeay32120:obj_dat.obj
 0002:0000d894       ??_C@_0BB@BICFINO@CAMELLIA?9256?9CBC?$AA@ 10054894     libeay32120:obj_dat.obj
 0002:0000d8a8       ??_C@_0BF@EEAPBBEF@pbeWithMD2AndDES?9CBC?$AA@ 100548a8     libeay32120:obj_dat.obj
 0002:0000d8c0       ??_C@_0BB@BCMKIGGJ@camellia?9256?9cbc?$AA@ 100548c0     libeay32120:obj_dat.obj
 0002:0000d8d4       ??_C@_0M@KBNDBPIJ@PBE?9MD5?9DES?$AA@ 100548d4     libeay32120:obj_dat.obj
 0002:0000d8e0       ??_C@_0BB@ENBCAEGJ@CAMELLIA?9128?9ECB?$AA@ 100548e0     libeay32120:obj_dat.obj
 0002:0000d8f4       ??_C@_0BF@DAJHPIMK@pbeWithMD5AndDES?9CBC?$AA@ 100548f4     libeay32120:obj_dat.obj
 0002:0000d90c       ??_C@_0BB@FOFKNKNO@camellia?9128?9ecb?$AA@ 1005490c     libeay32120:obj_dat.obj
 0002:0000d920       ??_C@_04NGGFHBI@X500?$AA@  10054920     libeay32120:obj_dat.obj
 0002:0000d928       ??_C@_0BB@OOIOHDPF@CAMELLIA?9192?9ECB?$AA@ 10054928     libeay32120:obj_dat.obj
 0002:0000d93c       ??_C@_0BL@NJHHPHOL@directory?5services?5?$CIX?4500?$CJ?$AA@ 1005493c     libeay32120:obj_dat.obj
 0002:0000d958       ??_C@_0BB@PNMGKNEC@camellia?9192?9ecb?$AA@ 10054958     libeay32120:obj_dat.obj
 0002:0000d96c       ??_C@_04NMKEOMFB@X509?$AA@ 1005496c     libeay32120:obj_dat.obj
 0002:0000d974       ??_C@_0BB@DMDAFMHE@CAMELLIA?9256?9ECB?$AA@ 10054974     libeay32120:obj_dat.obj
 0002:0000d988       ??_C@_02BMJIHHPP@CN?$AA@   10054988     libeay32120:obj_dat.obj
 0002:0000d98c       ??_C@_0BB@CPHIICMD@camellia?9256?9ecb?$AA@ 1005498c     libeay32120:obj_dat.obj
 0002:0000d9a0       ??_C@_0L@OILMNBLH@commonName?$AA@ 100549a0     libeay32120:obj_dat.obj
 0002:0000d9ac       ??_C@_0BB@GOLCJJFO@CAMELLIA?9128?9CFB?$AA@ 100549ac     libeay32120:obj_dat.obj
 0002:0000d9c0       ??_C@_01GFHCPBMG@C?$AA@    100549c0     libeay32120:obj_dat.obj
 0002:0000d9c4       ??_C@_0BB@HNPKEHOJ@camellia?9128?9cfb?$AA@ 100549c4     libeay32120:obj_dat.obj
 0002:0000d9d8       ??_C@_0M@NPBHECMC@countryName?$AA@ 100549d8     libeay32120:obj_dat.obj
 0002:0000d9e4       ??_C@_0BB@MNCOOOMC@CAMELLIA?9192?9CFB?$AA@ 100549e4     libeay32120:obj_dat.obj
 0002:0000d9f8       ??_C@_01OCOKONAJ@L?$AA@    100549f8     libeay32120:obj_dat.obj
 0002:0000d9fc       ??_C@_0BB@NOGGDAHF@camellia?9192?9cfb?$AA@ 100549fc     libeay32120:obj_dat.obj
 0002:0000da10       ??_C@_0N@LEDCGGBI@localityName?$AA@ 10054a10     libeay32120:obj_dat.obj
 0002:0000da20       ??_C@_0BB@BPJAMBED@CAMELLIA?9256?9CFB?$AA@ 10054a20     libeay32120:obj_dat.obj
 0002:0000da34       ??_C@_02LAJDCOFE@ST?$AA@   10054a34     libeay32120:obj_dat.obj
 0002:0000da38       ??_C@_0BB@MNIBPPE@camellia?9256?9cfb?$AA@ 10054a38     libeay32120:obj_dat.obj
 0002:0000da4c       ??_C@_0BE@NKDCJFMD@stateOrProvinceName?$AA@ 10054a4c     libeay32120:obj_dat.obj
 0002:0000da60       ??_C@_0BC@EKOAMJNI@CAMELLIA?9128?9CFB1?$AA@ 10054a60     libeay32120:obj_dat.obj
 0002:0000da74       ??_C@_01MJMHLOMK@O?$AA@    10054a74     libeay32120:obj_dat.obj
 0002:0000da78       ??_C@_0BC@BPPGKHCJ@camellia?9128?9cfb1?$AA@ 10054a78     libeay32120:obj_dat.obj
 0002:0000da8c       ??_C@_0BB@GBCNPHLL@organizationName?$AA@ 10054a8c     libeay32120:obj_dat.obj
 0002:0000daa0       ??_C@_02LMLEEFAB@OU?$AA@   10054aa0     libeay32120:obj_dat.obj
 0002:0000daa4       ??_C@_0BC@LDPKIKMA@CAMELLIA?9192?9CFB1?$AA@ 10054aa4     libeay32120:obj_dat.obj
 0002:0000dab8       ??_C@_0BH@LAMMAAM@organizationalUnitName?$AA@ 10054ab8     libeay32120:obj_dat.obj
 0002:0000dad0       ??_C@_0BC@OGOMOEDB@camellia?9192?9cfb1?$AA@ 10054ad0     libeay32120:obj_dat.obj
 0002:0000dae4       ??_C@_03DICHAJGH@RSA?$AA@  10054ae4     libeay32120:obj_dat.obj
 0002:0000dae8       ??_C@_0BC@CJJHIHFJ@CAMELLIA?9256?9CFB1?$AA@ 10054ae8     libeay32120:obj_dat.obj
 0002:0000dafc       ??_C@_05EENODLBB@pkcs7?$AA@ 10054afc     libeay32120:obj_dat.obj
 0002:0000db04       ??_C@_0BC@HMIBOJKI@camellia?9256?9cfb1?$AA@ 10054b04     libeay32120:obj_dat.obj
 0002:0000db18       ??_C@_0L@BCKMJOMA@pkcs7?9data?$AA@ 10054b18     libeay32120:obj_dat.obj
 0002:0000db24       ??_C@_0BB@PEKKHBEJ@pkcs7?9signedData?$AA@ 10054b24     libeay32120:obj_dat.obj
 0002:0000db38       ??_C@_0BC@JLCCHCJB@CAMELLIA?9128?9CFB8?$AA@ 10054b38     libeay32120:obj_dat.obj
 0002:0000db4c       ??_C@_0BE@FAIIHMP@pkcs7?9envelopedData?$AA@ 10054b4c     libeay32120:obj_dat.obj
 0002:0000db60       ??_C@_0BC@MODEBMGA@camellia?9128?9cfb8?$AA@ 10054b60     libeay32120:obj_dat.obj
 0002:0000db74       ??_C@_0BN@LMEEMCPG@pkcs7?9signedAndEnvelopedData?$AA@ 10054b74     libeay32120:obj_dat.obj
 0002:0000db94       ??_C@_0BB@CJNFBHDI@pkcs7?9digestData?$AA@ 10054b94     libeay32120:obj_dat.obj
 0002:0000dba8       ??_C@_0BC@GCDIDBIJ@CAMELLIA?9192?9CFB8?$AA@ 10054ba8     libeay32120:obj_dat.obj
 0002:0000dbbc       ??_C@_0BE@CAMKAFJN@pkcs7?9encryptedData?$AA@ 10054bbc     libeay32120:obj_dat.obj
 0002:0000dbd0       ??_C@_0BC@DHCOFPHI@camellia?9192?9cfb8?$AA@ 10054bd0     libeay32120:obj_dat.obj
 0002:0000dbe4       ??_C@_05CALCPOBF@pkcs3?$AA@ 10054be4     libeay32120:obj_dat.obj
 0002:0000dbec       ??_C@_0P@HCMIBBEB@dhKeyAgreement?$AA@ 10054bec     libeay32120:obj_dat.obj
 0002:0000dbfc       ??_C@_0BC@PIFFDMBA@CAMELLIA?9256?9CFB8?$AA@ 10054bfc     libeay32120:obj_dat.obj
 0002:0000dc10       ??_C@_07IOCLJBKC@DES?9ECB?$AA@ 10054c10     libeay32120:obj_dat.obj
 0002:0000dc18       ??_C@_0BC@KNEDFCOB@camellia?9256?9cfb8?$AA@ 10054c18     libeay32120:obj_dat.obj
 0002:0000dc2c       ??_C@_07LCLHACCC@des?9ecb?$AA@ 10054c2c     libeay32120:obj_dat.obj
 0002:0000dc34       ??_C@_07KNILAMJF@DES?9CFB?$AA@ 10054c34     libeay32120:obj_dat.obj
 0002:0000dc3c       ??_C@_0BB@CEGECGOG@CAMELLIA?9128?9OFB?$AA@ 10054c3c     libeay32120:obj_dat.obj
 0002:0000dc50       ??_C@_07JBBHJPBF@des?9cfb?$AA@ 10054c50     libeay32120:obj_dat.obj
 0002:0000dc58       ??_C@_0BB@DHCMPIFB@camellia?9128?9ofb?$AA@ 10054c58     libeay32120:obj_dat.obj
 0002:0000dc6c       ??_C@_07LDJJJFAI@DES?9CBC?$AA@ 10054c6c     libeay32120:obj_dat.obj
 0002:0000dc74       ??_C@_0BB@IHPIFBHK@CAMELLIA?9192?9OFB?$AA@ 10054c74     libeay32120:obj_dat.obj
 0002:0000dc88       ??_C@_07IPAFAGII@des?9cbc?$AA@ 10054c88     libeay32120:obj_dat.obj
 0002:0000dc90       ??_C@_0BB@JELAIPMN@camellia?9192?9ofb?$AA@ 10054c90     libeay32120:obj_dat.obj
 0002:0000dca4       ??_C@_07MECFBBOA@DES?9EDE?$AA@ 10054ca4     libeay32120:obj_dat.obj
 0002:0000dcac       ??_C@_0BB@FFEGHOPL@CAMELLIA?9256?9OFB?$AA@ 10054cac     libeay32120:obj_dat.obj
 0002:0000dcc0       ??_C@_07PILJICGA@des?9ede?$AA@ 10054cc0     libeay32120:obj_dat.obj
 0002:0000dcc8       ??_C@_0BB@EGAOKAEM@camellia?9256?9ofb?$AA@ 10054cc8     libeay32120:obj_dat.obj
 0002:0000dcdc       ??_C@_08FEKFKCFJ@DES?9EDE3?$AA@ 10054cdc     libeay32120:obj_dat.obj
 0002:0000dce8       ??_C@_0BL@GAJEKNCJ@subjectDirectoryAttributes?$AA@ 10054ce8     libeay32120:obj_dat.obj
 0002:0000dd04       ??_C@_08LJCBLNOK@des?9ede3?$AA@ 10054d04     libeay32120:obj_dat.obj
 0002:0000dd10       ??_C@_0CE@OGGDDHCK@X509v3?5Subject?5Directory?5Attribu@ 10054d10     libeay32120:obj_dat.obj
 0002:0000dd34       ??_C@_0BJ@OAOPOBMH@issuingDistributionPoint?$AA@ 10054d34     libeay32120:obj_dat.obj
 0002:0000dd50       ??_C@_08MJNEIAD@IDEA?9CBC?$AA@ 10054d50     libeay32120:obj_dat.obj
 0002:0000dd5c       ??_C@_0CC@MMIACGNM@X509v3?5Issuing?5Distrubution?5Poin@ 10054d5c     libeay32120:obj_dat.obj
 0002:0000dd80       ??_C@_08LCPAFJCA@idea?9cbc?$AA@ 10054d80     libeay32120:obj_dat.obj
 0002:0000dd8c       ??_C@_0BC@NAJGKAHO@certificateIssuer?$AA@ 10054d8c     libeay32120:obj_dat.obj
 0002:0000dda0       ??_C@_08BCIPNBJO@IDEA?9CFB?$AA@ 10054da0     libeay32120:obj_dat.obj
 0002:0000ddac       ??_C@_0BK@EMNEMCDI@X509v3?5Certificate?5Issuer?$AA@ 10054dac     libeay32120:obj_dat.obj
 0002:0000ddc8       ??_C@_08KMOCMALN@idea?9cfb?$AA@ 10054dc8     libeay32120:obj_dat.obj
 0002:0000ddd4       ??_C@_08DBCPEMKJ@IDEA?9ECB?$AA@ 10054dd4     libeay32120:obj_dat.obj
 0002:0000dde0       ??_C@_08IPECFNIK@idea?9ecb?$AA@ 10054de0     libeay32120:obj_dat.obj
 0002:0000ddec       ??_C@_04HHHKJIKA@KISA?$AA@ 10054dec     libeay32120:obj_dat.obj
 0002:0000ddf4       ??_C@_04LLEAHKNI@kisa?$AA@ 10054df4     libeay32120:obj_dat.obj
 0002:0000ddfc       ??_C@_07KJDFEEGB@RC2?9CBC?$AA@ 10054dfc     libeay32120:obj_dat.obj
 0002:0000de04       ??_C@_07JCAFNCNH@rc2?9cbc?$AA@ 10054e04     libeay32120:obj_dat.obj
 0002:0000de0c       ??_C@_07JEIHEAML@RC2?9ECB?$AA@ 10054e0c     libeay32120:obj_dat.obj
 0002:0000de14       ??_C@_07KPLHNGHN@rc2?9ecb?$AA@ 10054e14     libeay32120:obj_dat.obj
 0002:0000de1c       ??_C@_07LHCHNNPM@RC2?9CFB?$AA@ 10054e1c     libeay32120:obj_dat.obj
 0002:0000de24       ??_C@_07IMBHELEK@rc2?9cfb?$AA@ 10054e24     libeay32120:obj_dat.obj
 0002:0000de2c       ??_C@_08JEKGBFGL@SEED?9ECB?$AA@ 10054e2c     libeay32120:obj_dat.obj
 0002:0000de38       ??_C@_08CKMLAEEI@seed?9ecb?$AA@ 10054e38     libeay32120:obj_dat.obj
 0002:0000de44       ??_C@_07PNPBGCEE@RC2?9OFB?$AA@ 10054e44     libeay32120:obj_dat.obj
 0002:0000de4c       ??_C@_08KJBEBBMB@SEED?9CBC?$AA@ 10054e4c     libeay32120:obj_dat.obj
 0002:0000de58       ??_C@_07MGMBPEPC@rc2?9ofb?$AA@ 10054e58     libeay32120:obj_dat.obj
 0002:0000de60       ??_C@_08BHHJAAOC@seed?9cbc?$AA@ 10054e60     libeay32120:obj_dat.obj
 0002:0000de6c       ??_C@_08PNNADHOE@SEED?9OFB?$AA@ 10054e6c     libeay32120:obj_dat.obj
 0002:0000de78       ??_C@_03JAOICCJD@SHA?$AA@  10054e78     libeay32120:obj_dat.obj
 0002:0000de7c       ??_C@_08EDLNCGMH@seed?9ofb?$AA@ 10054e7c     libeay32120:obj_dat.obj
 0002:0000de88       ??_C@_03JNBDOPOP@sha?$AA@  10054e88     libeay32120:obj_dat.obj
 0002:0000de8c       ??_C@_08LHAGIIFM@SEED?9CFB?$AA@ 10054e8c     libeay32120:obj_dat.obj
 0002:0000de98       ??_C@_07CMOFBHAL@RSA?9SHA?$AA@ 10054e98     libeay32120:obj_dat.obj
 0002:0000dea0       ??_C@_08JGLJJHP@seed?9cfb?$AA@ 10054ea0     libeay32120:obj_dat.obj
 0002:0000deac       ??_C@_0BF@LIDINENF@shaWithRSAEncryption?$AA@ 10054eac     libeay32120:obj_dat.obj
 0002:0000dec4       ??_C@_08CABJBHIC@HMAC?9MD5?$AA@ 10054ec4     libeay32120:obj_dat.obj
 0002:0000ded0       ??_C@_0M@KHNLAHDP@DES?9EDE?9CBC?$AA@ 10054ed0     libeay32120:obj_dat.obj
 0002:0000dedc       ??_C@_08LPACCAD@hmac?9md5?$AA@ 10054edc     libeay32120:obj_dat.obj
 0002:0000dee8       ??_C@_0M@EKLHMDEA@des?9ede?9cbc?$AA@ 10054ee8     libeay32120:obj_dat.obj
 0002:0000def4       ??_C@_09DDFKKHO@HMAC?9SHA1?$AA@ 10054ef4     libeay32120:obj_dat.obj
 0002:0000df00       ??_C@_09KBOMLGBN@hmac?9sha1?$AA@ 10054f00     libeay32120:obj_dat.obj
 0002:0000df0c       ??_C@_0N@MLDFENGJ@DES?9EDE3?9CBC?$AA@ 10054f0c     libeay32120:obj_dat.obj
 0002:0000df1c       ??_C@_0BE@HCNFOMHA@id?9PasswordBasedMAC?$AA@ 10054f1c     libeay32120:obj_dat.obj
 0002:0000df30       ??_C@_0N@FPCHEGKG@des?9ede3?9cbc?$AA@ 10054f30     libeay32120:obj_dat.obj
 0002:0000df40       ??_C@_0BD@FANJCJAP@password?5based?5MAC?$AA@ 10054f40     libeay32120:obj_dat.obj
 0002:0000df54       ??_C@_07OHFNLDCN@DES?9OFB?$AA@ 10054f54     libeay32120:obj_dat.obj
 0002:0000df5c       ??_C@_0O@MEHCKGFD@id?9DHBasedMac?$AA@ 10054f5c     libeay32120:obj_dat.obj
 0002:0000df6c       ??_C@_07NLMBCAKN@des?9ofb?$AA@ 10054f6c     libeay32120:obj_dat.obj
 0002:0000df74       ??_C@_0BJ@CDGIGDFG@Diffie?9Hellman?5based?5MAC?$AA@ 10054f74     libeay32120:obj_dat.obj
 0002:0000df90       ??_C@_08FIFJGOCG@IDEA?9OFB?$AA@ 10054f90     libeay32120:obj_dat.obj
 0002:0000df9c       ??_C@_0BD@MGCOMIO@id?9it?9suppLangTags?$AA@ 10054f9c     libeay32120:obj_dat.obj
 0002:0000dfb0       ??_C@_08OGDEHPAF@idea?9ofb?$AA@ 10054fb0     libeay32120:obj_dat.obj
 0002:0000dfbc       ??_C@_0N@CKNFLOGG@caRepository?$AA@ 10054fbc     libeay32120:obj_dat.obj
 0002:0000dfcc       ??_C@_0O@LBCGFGCI@CA?5Repository?$AA@ 10054fcc     libeay32120:obj_dat.obj
 0002:0000dfdc       ??_C@_05NKFNBGJP@pkcs9?$AA@ 10054fdc     libeay32120:obj_dat.obj
 0002:0000dfe4       ??_C@_0BL@HEJKLKLL@id?9smime?9ct?9compressedData?$AA@ 10054fe4     libeay32120:obj_dat.obj
 0002:0000e000       ??_C@_0N@IHLBAGEP@emailAddress?$AA@ 10055000     libeay32120:obj_dat.obj
 0002:0000e010       ??_C@_0BI@FNBGJEPL@id?9ct?9asciiTextWithCRLF?$AA@ 10055010     libeay32120:obj_dat.obj
 0002:0000e028       ??_C@_0BB@CJIILOEM@unstructuredName?$AA@ 10055028     libeay32120:obj_dat.obj
 0002:0000e03c       ??_C@_0P@MALLFAMO@id?9aes128?9wrap?$AA@ 1005503c     libeay32120:obj_dat.obj
 0002:0000e04c       ??_C@_0M@DOEFOEJD@contentType?$AA@ 1005504c     libeay32120:obj_dat.obj
 0002:0000e058       ??_C@_0P@DJKBBDNG@id?9aes192?9wrap?$AA@ 10055058     libeay32120:obj_dat.obj
 0002:0000e068       ??_C@_0O@JDGJDGC@messageDigest?$AA@ 10055068     libeay32120:obj_dat.obj
 0002:0000e078       ??_C@_0P@KDMMBOEP@id?9aes256?9wrap?$AA@ 10055078     libeay32120:obj_dat.obj
 0002:0000e088       ??_C@_0M@IJBJCCMP@signingTime?$AA@ 10055088     libeay32120:obj_dat.obj
 0002:0000e094       ??_C@_0BH@GCJALNKM@ecdsa?9with?9Recommended?$AA@ 10055094     libeay32120:obj_dat.obj
 0002:0000e0ac       ??_C@_0BB@IPFGMODP@countersignature?$AA@ 100550ac     libeay32120:obj_dat.obj
 0002:0000e0c0       ??_C@_0BF@INFCLNHO@ecdsa?9with?9Specified?$AA@ 100550c0     libeay32120:obj_dat.obj
 0002:0000e0d8       ??_C@_0BC@OKHONEEM@challengePassword?$AA@ 100550d8     libeay32120:obj_dat.obj
 0002:0000e0ec       ??_C@_0BC@PHBIOIGA@ecdsa?9with?9SHA224?$AA@ 100550ec     libeay32120:obj_dat.obj
 0002:0000e100       ??_C@_0BE@MACPCAPF@unstructuredAddress?$AA@ 10055100     libeay32120:obj_dat.obj
 0002:0000e114       ??_C@_0BC@MAGBJMGH@ecdsa?9with?9SHA256?$AA@ 10055114     libeay32120:obj_dat.obj
 0002:0000e128       ??_C@_0BO@LDCCNBPE@extendedCertificateAttributes?$AA@ 10055128     libeay32120:obj_dat.obj
 0002:0000e148       ??_C@_0BC@ECDDAKND@ecdsa?9with?9SHA384?$AA@ 10055148     libeay32120:obj_dat.obj
 0002:0000e15c       ??_C@_08BDEPHMAF@Netscape?$AA@ 1005515c     libeay32120:obj_dat.obj
 0002:0000e168       ??_C@_0BC@DONDMJAG@ecdsa?9with?9SHA512?$AA@ 10055168     libeay32120:obj_dat.obj
 0002:0000e17c       ??_C@_0BO@IAIBEBGO@Netscape?5Communications?5Corp?4?$AA@ 1005517c     libeay32120:obj_dat.obj
 0002:0000e19c       ??_C@_0M@KOBPMNIO@hmacWithMD5?$AA@ 1005519c     libeay32120:obj_dat.obj
 0002:0000e1a8       ??_C@_09JDCKDNMG@nsCertExt?$AA@ 100551a8     libeay32120:obj_dat.obj
 0002:0000e1b4       ??_C@_0P@JCGBABBG@hmacWithSHA224?$AA@ 100551b4     libeay32120:obj_dat.obj
 0002:0000e1c4       ??_C@_0BP@LHPGKGFM@Netscape?5Certificate?5Extension?$AA@ 100551c4     libeay32120:obj_dat.obj
 0002:0000e1e4       ??_C@_0P@KFBIHFBB@hmacWithSHA256?$AA@ 100551e4     libeay32120:obj_dat.obj
 0002:0000e1f4       ??_C@_0L@FIMLGGPA@nsDataType?$AA@ 100551f4     libeay32120:obj_dat.obj
 0002:0000e200       ??_C@_0P@CHEKODKF@hmacWithSHA384?$AA@ 10055200     libeay32120:obj_dat.obj
 0002:0000e210       ??_C@_0BD@JJEILMNP@Netscape?5Data?5Type?$AA@ 10055210     libeay32120:obj_dat.obj
 0002:0000e224       ??_C@_0P@FLKKCAHA@hmacWithSHA512?$AA@ 10055224     libeay32120:obj_dat.obj
 0002:0000e234       ??_C@_0M@LJMJJOKC@DES?9EDE?9CFB?$AA@ 10055234     libeay32120:obj_dat.obj
 0002:0000e240       ??_C@_0BA@GLCLJGGH@dsa_with_SHA224?$AA@ 10055240     libeay32120:obj_dat.obj
 0002:0000e250       ??_C@_0M@FEKFFKNN@des?9ede?9cfb?$AA@ 10055250     libeay32120:obj_dat.obj
 0002:0000e25c       ??_C@_0BA@FMFCOCGA@dsa_with_SHA256?$AA@ 1005525c     libeay32120:obj_dat.obj
 0002:0000e26c       ??_C@_09DEGKDAEL@whirlpool?$AA@ 1005526c     libeay32120:obj_dat.obj
 0002:0000e278       ??_C@_0N@NFCHNEPE@DES?9EDE3?9CFB?$AA@ 10055278     libeay32120:obj_dat.obj
 0002:0000e288       ??_C@_09PCHJFNLI@cryptopro?$AA@ 10055288     libeay32120:obj_dat.obj
 0002:0000e294       ??_C@_0N@EBDFNPDL@des?9ede3?9cfb?$AA@ 10055294     libeay32120:obj_dat.obj
 0002:0000e2a4       ??_C@_09JGBNPHGI@cryptocom?$AA@ 100552a4     libeay32120:obj_dat.obj
 0002:0000e2b0       ??_C@_0CE@FCAOBIOC@id?9GostR3411?994?9with?9GostR3410?92@ 100552b0     libeay32120:obj_dat.obj
 0002:0000e2d4       ??_C@_0M@PDBPCBBK@DES?9EDE?9OFB?$AA@ 100552d4     libeay32120:obj_dat.obj
 0002:0000e2e0       ??_C@_0CH@MPKKPBGC@GOST?5R?534?411?994?5with?5GOST?5R?534?41@ 100552e0     libeay32120:obj_dat.obj
 0002:0000e308       ??_C@_0M@BOHDOFGF@des?9ede?9ofb?$AA@ 10055308     libeay32120:obj_dat.obj
 0002:0000e314       ??_C@_0CC@LCAPGDKC@id?9GostR3411?994?9with?9GostR3410?99@ 10055314     libeay32120:obj_dat.obj
 0002:0000e338       ??_C@_0CF@PAGBHGOC@GOST?5R?534?411?994?5with?5GOST?5R?534?41@ 10055338     libeay32120:obj_dat.obj
 0002:0000e360       ??_C@_0N@JPPBGLEM@DES?9EDE3?9OFB?$AA@ 10055360     libeay32120:obj_dat.obj
 0002:0000e370       ??_C@_09MIOJGGFD@md_gost94?$AA@ 10055370     libeay32120:obj_dat.obj
 0002:0000e37c       ??_C@_0N@LODGAID@des?9ede3?9ofb?$AA@ 1005537c     libeay32120:obj_dat.obj
 0002:0000e38c       ??_C@_0BA@KDEBPBMN@GOST?5R?534?411?994?$AA@ 1005538c     libeay32120:obj_dat.obj
 0002:0000e39c       ??_C@_0BE@EBBOKDGI@id?9HMACGostR3411?994?$AA@ 1005539c     libeay32120:obj_dat.obj
 0002:0000e3b0       ??_C@_04KPMLCNGO@SHA1?$AA@ 100553b0     libeay32120:obj_dat.obj
 0002:0000e3b8       ??_C@_0BD@BHKLGKNG@HMAC?5GOST?534?411?994?$AA@ 100553b8     libeay32120:obj_dat.obj
 0002:0000e3cc       ??_C@_04PGHFOLLE@sha1?$AA@ 100553cc     libeay32120:obj_dat.obj
 0002:0000e3d4       ??_C@_08KMPAMBCP@gost2001?$AA@ 100553d4     libeay32120:obj_dat.obj
 0002:0000e3e0       ??_C@_08FBKDDLCN@RSA?9SHA1?$AA@ 100553e0     libeay32120:obj_dat.obj
 0002:0000e3ec       ??_C@_0BC@IBNIHBI@GOST?5R?534?410?92001?$AA@ 100553ec     libeay32120:obj_dat.obj
 0002:0000e400       ??_C@_0BG@DALFFFBE@sha1WithRSAEncryption?$AA@ 10055400     libeay32120:obj_dat.obj
 0002:0000e418       ??_C@_06BPJPGPFJ@gost94?$AA@ 10055418     libeay32120:obj_dat.obj
 0002:0000e420       ??_C@_07JGDBCPKH@DSA?9SHA?$AA@ 10055420     libeay32120:obj_dat.obj
 0002:0000e428       ??_C@_0BA@JOCBNIHN@GOST?5R?534?410?994?$AA@ 10055428     libeay32120:obj_dat.obj
 0002:0000e438       ??_C@_0L@BEHMICBH@dsaWithSHA?$AA@ 10055438     libeay32120:obj_dat.obj
 0002:0000e444       ??_C@_06KLPDHLCD@gost89?$AA@ 10055444     libeay32120:obj_dat.obj
 0002:0000e44c       ??_C@_07PLHLFGGF@DSA?9old?$AA@ 1005544c     libeay32120:obj_dat.obj
 0002:0000e454       ??_C@_0O@POKHNLDL@GOST?528147?989?$AA@ 10055454     libeay32120:obj_dat.obj
 0002:0000e464       ??_C@_0BC@FFHHBCCH@dsaEncryption?9old?$AA@ 10055464     libeay32120:obj_dat.obj
 0002:0000e478       ??_C@_0L@INGOKGPP@gost89?9cnt?$AA@ 10055478     libeay32120:obj_dat.obj
 0002:0000e484       ??_C@_0BA@KKPEMNGH@PBE?9SHA1?9RC2?964?$AA@ 10055484     libeay32120:obj_dat.obj
 0002:0000e494       ??_C@_0BG@IBNNJING@pbeWithSHA1AndRC2?9CBC?$AA@ 10055494     libeay32120:obj_dat.obj
 0002:0000e4ac       ??_C@_08JCNEGNFC@gost?9mac?$AA@ 100554ac     libeay32120:obj_dat.obj
 0002:0000e4b8       ??_C@_06KBOEGBGA@PBKDF2?$AA@ 100554b8     libeay32120:obj_dat.obj
 0002:0000e4c0       ??_C@_0BC@BPAGAEJB@GOST?528147?989?5MAC?$AA@ 100554c0     libeay32120:obj_dat.obj
 0002:0000e4d4       ??_C@_0N@ONIKBKNK@DSA?9SHA1?9old?$AA@ 100554d4     libeay32120:obj_dat.obj
 0002:0000e4e4       ??_C@_0BB@LJIINAAP@prf?9gostr3411?994?$AA@ 100554e4     libeay32120:obj_dat.obj
 0002:0000e4f8       ??_C@_0BA@DDLLDHEM@dsaWithSHA1?9old?$AA@ 100554f8     libeay32120:obj_dat.obj
 0002:0000e508       ??_C@_0BE@FFELJBNB@GOST?5R?534?411?994?5PRF?$AA@ 10055508     libeay32120:obj_dat.obj
 0002:0000e51c       ??_C@_0L@IICLKDNB@nsCertType?$AA@ 1005551c     libeay32120:obj_dat.obj
 0002:0000e528       ??_C@_0BE@OBKEJCJB@id?9GostR3410?92001DH?$AA@ 10055528     libeay32120:obj_dat.obj
 0002:0000e53c       ??_C@_0BD@NFPBEMEE@Netscape?5Cert?5Type?$AA@ 1005553c     libeay32120:obj_dat.obj
 0002:0000e550       ??_C@_0BF@OKPANPLK@GOST?5R?534?410?92001?5DH?$AA@ 10055550     libeay32120:obj_dat.obj
 0002:0000e568       ??_C@_09OCIGDOMM@nsBaseUrl?$AA@ 10055568     libeay32120:obj_dat.obj
 0002:0000e574       ??_C@_0BC@CEMDDFNK@id?9GostR3410?994DH?$AA@ 10055574     libeay32120:obj_dat.obj
 0002:0000e588       ??_C@_0BC@DIHCABP@Netscape?5Base?5Url?$AA@ 10055588     libeay32120:obj_dat.obj
 0002:0000e59c       ??_C@_0BD@LGKAOLPL@GOST?5R?534?410?994?5DH?$AA@ 1005559c     libeay32120:obj_dat.obj
 0002:0000e5b0       ??_C@_0BA@DKPGPAKK@nsRevocationUrl?$AA@ 100555b0     libeay32120:obj_dat.obj
 0002:0000e5c0       ??_C@_0CF@MMKONEIK@id?9Gost28147?989?9CryptoPro?9KeyMes@ 100555c0     libeay32120:obj_dat.obj
 0002:0000e5e8       ??_C@_0BI@BCDINENC@Netscape?5Revocation?5Url?$AA@ 100555e8     libeay32120:obj_dat.obj
 0002:0000e600       ??_C@_0CA@BLJAEGEG@id?9Gost28147?989?9None?9KeyMeshing?$AA@ 10055600     libeay32120:obj_dat.obj
 0002:0000e620       ??_C@_0BC@IKAPCMGG@nsCaRevocationUrl?$AA@ 10055620     libeay32120:obj_dat.obj
 0002:0000e634       ??_C@_0BN@DPLCCDOE@id?9GostR3411?994?9TestParamSet?$AA@ 10055634     libeay32120:obj_dat.obj
 0002:0000e654       ??_C@_0BL@EMOMOFDB@Netscape?5CA?5Revocation?5Url?$AA@ 10055654     libeay32120:obj_dat.obj
 0002:0000e670       ??_C@_0CC@DOHJLMBI@id?9GostR3411?994?9CryptoProParamSe@ 10055670     libeay32120:obj_dat.obj
 0002:0000e694       ??_C@_0N@JILHKMLM@nsRenewalUrl?$AA@ 10055694     libeay32120:obj_dat.obj
 0002:0000e6a4       ??_C@_0BN@GKJFBLMI@id?9Gost28147?989?9TestParamSet?$AA@ 100556a4     libeay32120:obj_dat.obj
 0002:0000e6c4       ??_C@_0BF@FKENIIHB@Netscape?5Renewal?5Url?$AA@ 100556c4     libeay32120:obj_dat.obj
 0002:0000e6dc       ??_C@_0CF@PFEMLAKN@id?9Gost28147?989?9CryptoPro?9A?9Para@ 100556dc     libeay32120:obj_dat.obj
 0002:0000e704       ??_C@_0O@DHDIMJD@nsCaPolicyUrl?$AA@ 10055704     libeay32120:obj_dat.obj
 0002:0000e714       ??_C@_0CF@GMKONGKM@id?9Gost28147?989?9CryptoPro?9B?9Para@ 10055714     libeay32120:obj_dat.obj
 0002:0000e73c       ??_C@_0BH@EMEFHLC@Netscape?5CA?5Policy?5Url?$AA@ 1005573c     libeay32120:obj_dat.obj
 0002:0000e754       ??_C@_0CF@KNCAAJGM@id?9Gost28147?989?9CryptoPro?9C?9Para@ 10055754     libeay32120:obj_dat.obj
 0002:0000e77c       ??_C@_0BA@KNOKNJNE@nsSslServerName?$AA@ 1005577c     libeay32120:obj_dat.obj
 0002:0000e78c       ??_C@_0CF@IEBLBMOP@id?9Gost28147?989?9CryptoPro?9D?9Para@ 1005578c     libeay32120:obj_dat.obj
 0002:0000e7b4       ??_C@_0BJ@GMBLEMAL@Netscape?5SSL?5Server?5Name?$AA@ 100557b4     libeay32120:obj_dat.obj
 0002:0000e7d0       ??_C@_0CN@EJBNJDBM@id?9Gost28147?989?9CryptoPro?9Oscar?9@ 100557d0     libeay32120:obj_dat.obj
 0002:0000e800       ??_C@_09BALDFHMJ@nsComment?$AA@ 10055800     libeay32120:obj_dat.obj
 0002:0000e80c       ??_C@_0CN@IIJDEMNM@id?9Gost28147?989?9CryptoPro?9Oscar?9@ 1005580c     libeay32120:obj_dat.obj
 0002:0000e83c       ??_C@_0BB@DCFBGIOA@Netscape?5Comment?$AA@ 1005583c     libeay32120:obj_dat.obj
 0002:0000e850       ??_C@_0CJ@IIADIAJH@id?9Gost28147?989?9CryptoPro?9RIC?91?9@ 10055850     libeay32120:obj_dat.obj
 0002:0000e87c       ??_C@_0P@OCCBBJKK@nsCertSequence?$AA@ 1005587c     libeay32120:obj_dat.obj
 0002:0000e88c       ??_C@_0BN@NAOAJFAF@id?9GostR3410?994?9TestParamSet?$AA@ 1005588c     libeay32120:obj_dat.obj
 0002:0000e8ac       ??_C@_0BO@KKKBMKBD@Netscape?5Certificate?5Sequence?$AA@ 100558ac     libeay32120:obj_dat.obj
 0002:0000e8cc       ??_C@_0CF@MNFOPPCD@id?9GostR3410?994?9CryptoPro?9A?9Para@ 100558cc     libeay32120:obj_dat.obj
 0002:0000e8f4       ??_C@_08BBKPFFGN@DESX?9CBC?$AA@ 100558f4     libeay32120:obj_dat.obj
 0002:0000e900       ??_C@_0CF@FELMJJCC@id?9GostR3410?994?9CryptoPro?9B?9Para@ 10055900     libeay32120:obj_dat.obj
 0002:0000e928       ??_C@_08KPMCEEEO@desx?9cbc?$AA@ 10055928     libeay32120:obj_dat.obj
 0002:0000e934       ??_C@_0CF@JFDCEGOC@id?9GostR3410?994?9CryptoPro?9C?9Para@ 10055934     libeay32120:obj_dat.obj
 0002:0000e95c       ??_C@_0CF@LMAJFDGB@id?9GostR3410?994?9CryptoPro?9D?9Para@ 1005595c     libeay32120:obj_dat.obj
 0002:0000e984       ??_C@_05NDHEMDL@id?9ce?$AA@ 10055984     libeay32120:obj_dat.obj
 0002:0000e98c       ??_C@_0CI@FLGMGEEM@id?9GostR3410?994?9CryptoPro?9XchA?9P@ 1005598c     libeay32120:obj_dat.obj
 0002:0000e9b4       ??_C@_0BF@MOEDIMBI@subjectKeyIdentifier?$AA@ 100559b4     libeay32120:obj_dat.obj
 0002:0000e9cc       ??_C@_0CI@MCIOACEN@id?9GostR3410?994?9CryptoPro?9XchB?9P@ 100559cc     libeay32120:obj_dat.obj
 0002:0000e9f4       ??_C@_0BO@ILPNOINJ@X509v3?5Subject?5Key?5Identifier?$AA@ 100559f4     libeay32120:obj_dat.obj
 0002:0000ea14       ??_C@_0CI@DAANNIN@id?9GostR3410?994?9CryptoPro?9XchC?9P@ 10055a14     libeay32120:obj_dat.obj
 0002:0000ea3c       ??_C@_08BCICBOHF@keyUsage?$AA@ 10055a3c     libeay32120:obj_dat.obj
 0002:0000ea48       ??_C@_0BP@GEEJLPDI@id?9GostR3410?92001?9TestParamSet?$AA@ 10055a48     libeay32120:obj_dat.obj
 0002:0000ea68       ??_C@_0BB@BPPOKNBO@X509v3?5Key?5Usage?$AA@ 10055a68     libeay32120:obj_dat.obj
 0002:0000ea7c       ??_C@_0CH@GDAPDBKP@id?9GostR3410?92001?9CryptoPro?9A?9Pa@ 10055a7c     libeay32120:obj_dat.obj
 0002:0000eaa4       ??_C@_0BG@JOIAJOMN@privateKeyUsagePeriod?$AA@ 10055aa4     libeay32120:obj_dat.obj
 0002:0000eabc       ??_C@_0CH@PKONFHKO@id?9GostR3410?92001?9CryptoPro?9B?9Pa@ 10055abc     libeay32120:obj_dat.obj
 0002:0000eae4       ??_C@_0CA@CLGHAMIP@X509v3?5Private?5Key?5Usage?5Period?$AA@ 10055ae4     libeay32120:obj_dat.obj
 0002:0000eb04       ??_C@_0CH@DLGDIIGO@id?9GostR3410?92001?9CryptoPro?9C?9Pa@ 10055b04     libeay32120:obj_dat.obj
 0002:0000eb2c       ??_C@_0P@EOFJHHKD@subjectAltName?$AA@ 10055b2c     libeay32120:obj_dat.obj
 0002:0000eb3c       ??_C@_0CK@PKFGBNKE@id?9GostR3410?92001?9CryptoPro?9XchA@ 10055b3c     libeay32120:obj_dat.obj
 0002:0000eb68       ??_C@_0CA@OPCJJLNF@X509v3?5Subject?5Alternative?5Name?$AA@ 10055b68     libeay32120:obj_dat.obj
 0002:0000eb88       ??_C@_0CK@GDLEHLKF@id?9GostR3410?92001?9CryptoPro?9XchB@ 10055b88     libeay32120:obj_dat.obj
 0002:0000ebb4       ??_C@_0O@DLIFHFCD@issuerAltName?$AA@ 10055bb4     libeay32120:obj_dat.obj
 0002:0000ebc4       ??_C@_0BC@CHIDFKJO@id?9GostR3410?994?9a?$AA@ 10055bc4     libeay32120:obj_dat.obj
 0002:0000ebd8       ??_C@_0BP@FMJCGPCG@X509v3?5Issuer?5Alternative?5Name?$AA@ 10055bd8     libeay32120:obj_dat.obj
 0002:0000ebf8       ??_C@_0BF@LBGBLILF@id?9GostR3410?994?9aBis?$AA@ 10055bf8     libeay32120:obj_dat.obj
 0002:0000ec10       ??_C@_0BB@IKNGJCLO@basicConstraints?$AA@ 10055c10     libeay32120:obj_dat.obj
 0002:0000ec24       ??_C@_0BC@MKOAJFN@id?9GostR3410?994?9b?$AA@ 10055c24     libeay32120:obj_dat.obj
 0002:0000ec38       ??_C@_0BJ@FBHDAJML@X509v3?5Basic?5Constraints?$AA@ 10055c38     libeay32120:obj_dat.obj
 0002:0000ec54       ??_C@_0BF@PGMBMCGF@id?9GostR3410?994?9bBis?$AA@ 10055c54     libeay32120:obj_dat.obj
 0002:0000ec6c       ??_C@_09JDPHHKMA@crlNumber?$AA@ 10055c6c     libeay32120:obj_dat.obj
 0002:0000ec78       ??_C@_0BD@MEAAKKFJ@id?9Gost28147?989?9cc?$AA@ 10055c78     libeay32120:obj_dat.obj
 0002:0000ec8c       ??_C@_0BC@PCPNBDDJ@X509v3?5CRL?5Number?$AA@ 10055c8c     libeay32120:obj_dat.obj
 0002:0000eca0       ??_C@_0CB@KNOPDNHN@GOST?528147?989?5Cryptocom?5ParamSet@ 10055ca0     libeay32120:obj_dat.obj
 0002:0000ecc4       ??_C@_0BE@OLMJNPEP@certificatePolicies?$AA@ 10055cc4     libeay32120:obj_dat.obj
 0002:0000ecd8       ??_C@_08LCDFMIFG@gost94cc?$AA@ 10055cd8     libeay32120:obj_dat.obj
 0002:0000ece4       ??_C@_0BM@OOFGKLPK@X509v3?5Certificate?5Policies?$AA@ 10055ce4     libeay32120:obj_dat.obj
 0002:0000ed00       ??_C@_0BI@GJIILMEB@GOST?534?410?994?5Cryptocom?$AA@ 10055d00     libeay32120:obj_dat.obj
 0002:0000ed18       ??_C@_0BH@ICHFALGD@authorityKeyIdentifier?$AA@ 10055d18     libeay32120:obj_dat.obj
 0002:0000ed30       ??_C@_0L@PKDOCLKG@gost2001cc?$AA@ 10055d30     libeay32120:obj_dat.obj
 0002:0000ed3c       ??_C@_0CA@GODCHEHD@X509v3?5Authority?5Key?5Identifier?$AA@ 10055d3c     libeay32120:obj_dat.obj
 0002:0000ed5c       ??_C@_0BK@IGCJADLM@GOST?534?410?92001?5Cryptocom?$AA@ 10055d5c     libeay32120:obj_dat.obj
 0002:0000ed78       ??_C@_06HALMPEKO@BF?9CBC?$AA@ 10055d78     libeay32120:obj_dat.obj
 0002:0000ed80       ??_C@_0CF@FCIKJGLH@id?9GostR3411?994?9with?9GostR3410?99@ 10055d80     libeay32120:obj_dat.obj
 0002:0000eda8       ??_C@_06LFFGAFHI@bf?9cbc?$AA@ 10055da8     libeay32120:obj_dat.obj
 0002:0000edb0       ??_C@_0CP@ILDIBBAJ@GOST?5R?534?411?994?5with?5GOST?5R?534?41@ 10055db0     libeay32120:obj_dat.obj
 0002:0000ede0       ??_C@_06ENAOPAAE@BF?9ECB?$AA@ 10055de0     libeay32120:obj_dat.obj
 0002:0000ede8       ??_C@_0CH@JJNMILDM@id?9GostR3411?994?9with?9GostR3410?92@ 10055de8     libeay32120:obj_dat.obj
 0002:0000ee10       ??_C@_06IIOEABNC@bf?9ecb?$AA@ 10055e10     libeay32120:obj_dat.obj
 0002:0000ee18       ??_C@_0DB@BGOOPLFE@GOST?5R?534?411?994?5with?5GOST?5R?534?41@ 10055e18     libeay32120:obj_dat.obj
 0002:0000ee4c       ??_C@_0BO@LBPHKLOM@id?9GostR3410?92001?9ParamSet?9cc?$AA@ 10055e4c     libeay32120:obj_dat.obj
 0002:0000ee6c       ??_C@_06GOKOGNDD@BF?9CFB?$AA@ 10055e6c     libeay32120:obj_dat.obj
 0002:0000ee74       ??_C@_0CJ@NCCJHEBD@GOST?5R?53410?92001?5Parameter?5Set?5C@ 10055e74     libeay32120:obj_dat.obj
 0002:0000eea0       ??_C@_06KLEEJMOF@bf?9cfb?$AA@ 10055ea0     libeay32120:obj_dat.obj
 0002:0000eea8       ??_C@_04JCCMGALL@HMAC?$AA@ 10055ea8     libeay32120:obj_dat.obj
 0002:0000eeb0       ??_C@_04FOBGICMD@hmac?$AA@ 10055eb0     libeay32120:obj_dat.obj
 0002:0000eeb8       ??_C@_06CEHINCIL@BF?9OFB?$AA@ 10055eb8     libeay32120:obj_dat.obj
 0002:0000eec0       ??_C@_06OBJCCDFN@bf?9ofb?$AA@ 10055ec0     libeay32120:obj_dat.obj
 0002:0000eec8       ??_C@_0M@LCODBGNO@LocalKeySet?$AA@ 10055ec8     libeay32120:obj_dat.obj
 0002:0000eed4       ??_C@_0BI@FMFOLFMC@Microsoft?5Local?5Key?5set?$AA@ 10055ed4     libeay32120:obj_dat.obj
 0002:0000eeec       ??_C@_04BCGEDMJI@MDC2?$AA@ 10055eec     libeay32120:obj_dat.obj
 0002:0000eef4       ??_C@_0M@PKNKMHEG@freshestCRL?$AA@ 10055ef4     libeay32120:obj_dat.obj
 0002:0000ef00       ??_C@_04ELNKPKEC@mdc2?$AA@ 10055f00     libeay32120:obj_dat.obj
 0002:0000ef08       ??_C@_0BE@KEJIKEFG@X509v3?5Freshest?5CRL?$AA@ 10055f08     libeay32120:obj_dat.obj
 0002:0000ef1c       ??_C@_08OMAMCKNL@RSA?9MDC2?$AA@ 10055f1c     libeay32120:obj_dat.obj
 0002:0000ef28       ??_C@_0BK@BMFCOPIC@id?9on?9permanentIdentifier?$AA@ 10055f28     libeay32120:obj_dat.obj
 0002:0000ef44       ??_C@_0M@HGGNEPNN@mdc2WithRSA?$AA@ 10055f44     libeay32120:obj_dat.obj
 0002:0000ef50       ??_C@_0BF@DGGAJJCO@Permanent?5Identifier?$AA@ 10055f50     libeay32120:obj_dat.obj
 0002:0000ef68       ??_C@_06KFMILCMH@RC4?940?$AA@ 10055f68     libeay32120:obj_dat.obj
 0002:0000ef70       ??_C@_06GNNJIOGN@rc4?940?$AA@ 10055f70     libeay32120:obj_dat.obj
 0002:0000ef78       ??_C@_0L@ODHPNGGE@RC2?940?9CBC?$AA@ 10055f78     libeay32120:obj_dat.obj
 0002:0000ef84       ??_C@_0L@CHEFJHBP@rc2?940?9cbc?$AA@ 10055f84     libeay32120:obj_dat.obj
 0002:0000ef90       ??_C@_02BLJBNPCD@GN?$AA@   10055f90     libeay32120:obj_dat.obj
 0002:0000ef94       ??_C@_09GCBNJLNP@givenName?$AA@ 10055f94     libeay32120:obj_dat.obj
 0002:0000efa0       ??_C@_02LONEIP@SN?$AA@     10055fa0     libeay32120:obj_dat.obj
 0002:0000efa4       ??_C@_07LNKFHLHI@surname?$AA@ 10055fa4     libeay32120:obj_dat.obj
 0002:0000efac       ??_C@_08PAKNLFON@initials?$AA@ 10055fac     libeay32120:obj_dat.obj
 0002:0000efb8       ??_C@_0BG@CCHGOEBE@crlDistributionPoints?$AA@ 10055fb8     libeay32120:obj_dat.obj
 0002:0000efd0       ??_C@_0BP@EGHJGANM@X509v3?5CRL?5Distribution?5Points?$AA@ 10055fd0     libeay32120:obj_dat.obj
 0002:0000eff0       ??_C@_0L@NACEPNFC@RSA?9NP?9MD5?$AA@ 10055ff0     libeay32120:obj_dat.obj
 0002:0000effc       ??_C@_0L@CNDCBNIN@md5WithRSA?$AA@ 10055ffc     libeay32120:obj_dat.obj
 0002:0000f008       ??_C@_0N@OMOHFKCJ@serialNumber?$AA@ 10056008     libeay32120:obj_dat.obj
 0002:0000f018       ??_C@_05PHLGJONK@title?$AA@ 10056018     libeay32120:obj_dat.obj
 0002:0000f020       ??_C@_0M@PPJNHBMP@description?$AA@ 10056020     libeay32120:obj_dat.obj
 0002:0000f02c       ??_C@_09OACPMKPP@CAST5?9CBC?$AA@ 1005602c     libeay32120:obj_dat.obj
 0002:0000f038       ??_C@_09BGLDNNDK@cast5?9cbc?$AA@ 10056038     libeay32120:obj_dat.obj
 0002:0000f044       ??_C@_09NNJNMOFF@CAST5?9ECB?$AA@ 10056044     libeay32120:obj_dat.obj
 0002:0000f050       ??_C@_09CLABNJJA@cast5?9ecb?$AA@ 10056050     libeay32120:obj_dat.obj
 0002:0000f05c       ??_C@_09PODNFDGC@CAST5?9CFB?$AA@ 1005605c     libeay32120:obj_dat.obj
 0002:0000f068       ??_C@_09IKBEEKH@cast5?9cfb?$AA@ 10056068     libeay32120:obj_dat.obj
 0002:0000f074       ??_C@_09LEOLOMNK@CAST5?9OFB?$AA@ 10056074     libeay32120:obj_dat.obj
 0002:0000f080       ??_C@_09ECHHPLBP@cast5?9ofb?$AA@ 10056080     libeay32120:obj_dat.obj
 0002:0000f08c       ??_C@_0BG@JCFINJGL@pbeWithMD5AndCast5CBC?$AA@ 1005608c     libeay32120:obj_dat.obj
 0002:0000f0a4       ??_C@_08IOHJAANG@DSA?9SHA1?$AA@ 100560a4     libeay32120:obj_dat.obj
 0002:0000f0b0       ??_C@_0M@EFJKPOPH@dsaWithSHA1?$AA@ 100560b0     libeay32120:obj_dat.obj
 0002:0000f0bc       ??_C@_08EMIDHKIH@MD5?9SHA1?$AA@ 100560bc     libeay32120:obj_dat.obj
 0002:0000f0c8       ??_C@_08GOLKFMKI@md5?9sha1?$AA@ 100560c8     libeay32120:obj_dat.obj
 0002:0000f0d4       ??_C@_0L@EMMEGDKK@RSA?9SHA1?92?$AA@ 100560d4     libeay32120:obj_dat.obj
 0002:0000f0e0       ??_C@_0M@KECGAPAA@sha1WithRSA?$AA@ 100560e0     libeay32120:obj_dat.obj
 0002:0000f0ec       ??_C@_03ENFFABCE@DSA?$AA@  100560ec     libeay32120:obj_dat.obj
 0002:0000f0f0       ??_C@_0O@GMANLAEO@dsaEncryption?$AA@ 100560f0     libeay32120:obj_dat.obj
 0002:0000f100       ??_C@_09DJDCAKJG@RIPEMD160?$AA@ 10056100     libeay32120:obj_dat.obj
 0002:0000f10c       ??_C@_09EDIPKBN@ripemd160?$AA@ 1005610c     libeay32120:obj_dat.obj
 0002:0000f118       ??_C@_0O@JPOIHGOH@RSA?9RIPEMD160?$AA@ 10056118     libeay32120:obj_dat.obj
 0002:0000f128       ??_C@_0BB@DCJDAKFH@ripemd160WithRSA?$AA@ 10056128     libeay32120:obj_dat.obj
 0002:0000f13c       ??_C@_07LEDAHENJ@RC5?9CBC?$AA@ 1005613c     libeay32120:obj_dat.obj
 0002:0000f144       ??_C@_07IPAAOCGP@rc5?9cbc?$AA@ 10056144     libeay32120:obj_dat.obj
 0002:0000f14c       ??_C@_07IJICHAHD@RC5?9ECB?$AA@ 1005614c     libeay32120:obj_dat.obj
 0002:0000f154       ??_C@_07LCLCOGMF@rc5?9ecb?$AA@ 10056154     libeay32120:obj_dat.obj
 0002:0000f15c       ??_C@_07KKCCONEE@RC5?9CFB?$AA@ 1005615c     libeay32120:obj_dat.obj
 0002:0000f164       ??_C@_07JBBCHLPC@rc5?9cfb?$AA@ 10056164     libeay32120:obj_dat.obj
 0002:0000f16c       ??_C@_07OAPEFCPM@RC5?9OFB?$AA@ 1005616c     libeay32120:obj_dat.obj
 0002:0000f174       ??_C@_07NLMEMEEK@rc5?9ofb?$AA@ 10056174     libeay32120:obj_dat.obj
 0002:0000f17c       ??_C@_03ELDBCICO@RLE?$AA@  1005617c     libeay32120:obj_dat.obj
 0002:0000f180       ??_C@_0BH@CAEIMNHD@run?5length?5compression?$AA@ 10056180     libeay32120:obj_dat.obj
 0002:0000f198       ??_C@_04CHLIKDMF@ZLIB?$AA@ 10056198     libeay32120:obj_dat.obj
 0002:0000f1a0       ??_C@_0BB@KGNEOBKL@zlib?5compression?$AA@ 100561a0     libeay32120:obj_dat.obj
 0002:0000f1b4       ??_C@_0BB@DGDLKPHD@extendedKeyUsage?$AA@ 100561b4     libeay32120:obj_dat.obj
 0002:0000f1c8       ??_C@_0BK@KFMGFBEG@X509v3?5Extended?5Key?5Usage?$AA@ 100561c8     libeay32120:obj_dat.obj
 0002:0000f1e4       ??_C@_04EAPCHJAG@PKIX?$AA@ 100561e4     libeay32120:obj_dat.obj
 0002:0000f1ec       ??_C@_05DEJBPLJH@id?9kp?$AA@ 100561ec     libeay32120:obj_dat.obj
 0002:0000f1f4       ??_C@_0L@CINGAJGN@serverAuth?$AA@ 100561f4     libeay32120:obj_dat.obj
 0002:0000f200       ??_C@_0BO@HPFOJNNE@TLS?5Web?5Server?5Authentication?$AA@ 10056200     libeay32120:obj_dat.obj
 0002:0000f220       ??_C@_0L@HCMKLLOP@clientAuth?$AA@ 10056220     libeay32120:obj_dat.obj
 0002:0000f22c       ??_C@_0BO@FEMCBEOF@TLS?5Web?5Client?5Authentication?$AA@ 1005622c     libeay32120:obj_dat.obj
 0002:0000f24c       ??_C@_0M@OJNCNGJ@codeSigning?$AA@ 1005624c     libeay32120:obj_dat.obj
 0002:0000f258       ??_C@_0N@CHJHLHFC@Code?5Signing?$AA@ 10056258     libeay32120:obj_dat.obj
 0002:0000f268       ??_C@_0BA@NPCFDPCO@emailProtection?$AA@ 10056268     libeay32120:obj_dat.obj
 0002:0000f278       ??_C@_0BC@BLBGFKKG@E?9mail?5Protection?$AA@ 10056278     libeay32120:obj_dat.obj
 0002:0000f28c       ??_C@_0N@LONEBHPN@timeStamping?$AA@ 1005628c     libeay32120:obj_dat.obj
 0002:0000f29c       ??_C@_0O@GMMBLMEE@Time?5Stamping?$AA@ 1005629c     libeay32120:obj_dat.obj
 0002:0000f2ac       ??_C@_09EMNNPEBE@msCodeInd?$AA@ 100562ac     libeay32120:obj_dat.obj
 0002:0000f2b8       ??_C@_0CC@NDDHKAMP@Microsoft?5Individual?5Code?5Signin@ 100562b8     libeay32120:obj_dat.obj
 0002:0000f2dc       ??_C@_09PDGAMFAO@msCodeCom?$AA@ 100562dc     libeay32120:obj_dat.obj
 0002:0000f2e8       ??_C@_0CC@GKFNEBFA@Microsoft?5Commercial?5Code?5Signin@ 100562e8     libeay32120:obj_dat.obj
 0002:0000f30c       ??_C@_09HGCLLDPK@msCTLSign?$AA@ 1005630c     libeay32120:obj_dat.obj
 0002:0000f318       ??_C@_0BN@GNMCHNOI@Microsoft?5Trust?5List?5Signing?$AA@ 10056318     libeay32120:obj_dat.obj
 0002:0000f338       ??_C@_05DDBMPPAI@msSGC?$AA@ 10056338     libeay32120:obj_dat.obj
 0002:0000f340       ??_C@_0BO@FBDDCLK@Microsoft?5Server?5Gated?5Crypto?$AA@ 10056340     libeay32120:obj_dat.obj
 0002:0000f360       ??_C@_05NGOIPCN@msEFS?$AA@ 10056360     libeay32120:obj_dat.obj
 0002:0000f368       ??_C@_0CA@IJODBCMB@Microsoft?5Encrypted?5File?5System?$AA@ 10056368     libeay32120:obj_dat.obj
 0002:0000f388       ??_C@_05LFIIINKG@nsSGC?$AA@ 10056388     libeay32120:obj_dat.obj
 0002:0000f390       ??_C@_0BN@MDNLHLBL@Netscape?5Server?5Gated?5Crypto?$AA@ 10056390     libeay32120:obj_dat.obj
 0002:0000f3b0       ??_C@_08ECNAKPJJ@deltaCRL?$AA@ 100563b0     libeay32120:obj_dat.obj
 0002:0000f3bc       ??_C@_0BL@HLNLPBHP@X509v3?5Delta?5CRL?5Indicator?$AA@ 100563bc     libeay32120:obj_dat.obj
 0002:0000f3d8       ??_C@_09MCDAGILE@CRLReason?$AA@ 100563d8     libeay32120:obj_dat.obj
 0002:0000f3e4       ??_C@_0BH@GODIEFKG@X509v3?5CRL?5Reason?5Code?$AA@ 100563e4     libeay32120:obj_dat.obj
 0002:0000f3fc       ??_C@_0P@BKEGCOMO@invalidityDate?$AA@ 100563fc     libeay32120:obj_dat.obj
 0002:0000f40c       ??_C@_0BA@JDBEMONE@Invalidity?5Date?$AA@ 1005640c     libeay32120:obj_dat.obj
 0002:0000f41c       ??_C@_07DKMNOLMH@SXNetID?$AA@ 1005641c     libeay32120:obj_dat.obj
 0002:0000f424       ??_C@_0BD@PNDCMCDK@Strong?5Extranet?5ID?$AA@ 10056424     libeay32120:obj_dat.obj
 0002:0000f438       ??_C@_0BB@ILOABLNL@PBE?9SHA1?9RC4?9128?$AA@ 10056438     libeay32120:obj_dat.obj
 0002:0000f44c       ??_C@_0BI@LBIFCLPB@pbeWithSHA1And128BitRC4?$AA@ 1005644c     libeay32120:obj_dat.obj
 0002:0000f464       ??_C@_0BA@ECFMCJKN@PBE?9SHA1?9RC4?940?$AA@ 10056464     libeay32120:obj_dat.obj
 0002:0000f474       ??_C@_0BH@OCAEJMIL@pbeWithSHA1And40BitRC4?$AA@ 10056474     libeay32120:obj_dat.obj
 0002:0000f48c       ??_C@_0O@EDBOMBNM@PBE?9SHA1?93DES?$AA@ 1005648c     libeay32120:obj_dat.obj
 0002:0000f49c       ??_C@_0CB@FCNCEDP@pbeWithSHA1And3?9KeyTripleDES?9CBC@ 1005649c     libeay32120:obj_dat.obj
 0002:0000f4c0       ??_C@_0O@HOHOOIGM@PBE?9SHA1?92DES?$AA@ 100564c0     libeay32120:obj_dat.obj
 0002:0000f4d0       ??_C@_0CB@NCMPKEGH@pbeWithSHA1And2?9KeyTripleDES?9CBC@ 100564d0     libeay32120:obj_dat.obj
 0002:0000f4f4       ??_C@_0BB@FNLJPIMG@PBE?9SHA1?9RC2?9128?$AA@ 100564f4     libeay32120:obj_dat.obj
 0002:0000f508       ??_C@_0BM@DOLDINME@pbeWithSHA1And128BitRC2?9CBC?$AA@ 10056508     libeay32120:obj_dat.obj
 0002:0000f524       ??_C@_0BA@MNBMNMAN@PBE?9SHA1?9RC2?940?$AA@ 10056524     libeay32120:obj_dat.obj
 0002:0000f534       ??_C@_0BL@CKNKIMON@pbeWithSHA1And40BitRC2?9CBC?$AA@ 10056534     libeay32120:obj_dat.obj
 0002:0000f550       ??_C@_06BFGNOIAI@keyBag?$AA@ 10056550     libeay32120:obj_dat.obj
 0002:0000f558       ??_C@_0BE@ELJKIANF@pkcs8ShroudedKeyBag?$AA@ 10056558     libeay32120:obj_dat.obj
 0002:0000f56c       ??_C@_07FDLMCII@certBag?$AA@ 1005656c     libeay32120:obj_dat.obj
 0002:0000f574       ??_C@_06JAFBIMLO@crlBag?$AA@ 10056574     libeay32120:obj_dat.obj
 0002:0000f57c       ??_C@_09DELDBPIE@secretBag?$AA@ 1005657c     libeay32120:obj_dat.obj
 0002:0000f588       ??_C@_0BA@KAKLKBBC@safeContentsBag?$AA@ 10056588     libeay32120:obj_dat.obj
 0002:0000f598       ??_C@_0N@BGFMPLCM@friendlyName?$AA@ 10056598     libeay32120:obj_dat.obj
 0002:0000f5a8       ??_C@_0L@BCMHPPAO@localKeyID?$AA@ 100565a8     libeay32120:obj_dat.obj
 0002:0000f5b4       ??_C@_0BA@EMOFOCJL@x509Certificate?$AA@ 100565b4     libeay32120:obj_dat.obj
 0002:0000f5c4       ??_C@_0BA@BFAOBDKH@sdsiCertificate?$AA@ 100565c4     libeay32120:obj_dat.obj
 0002:0000f5d4       ??_C@_07KAOEJCFK@x509Crl?$AA@ 100565d4     libeay32120:obj_dat.obj
 0002:0000f5dc       ??_C@_05EPMADBBF@PBES2?$AA@ 100565dc     libeay32120:obj_dat.obj
 0002:0000f5e4       ??_C@_06DEJMPFNK@PBMAC1?$AA@ 100565e4     libeay32120:obj_dat.obj
 0002:0000f5ec       ??_C@_0N@KANOAIP@hmacWithSHA1?$AA@ 100565ec     libeay32120:obj_dat.obj
 0002:0000f5fc       ??_C@_09MIPGHKGJ@id?9qt?9cps?$AA@ 100565fc     libeay32120:obj_dat.obj
 0002:0000f608       ??_C@_0BF@HPKIKKPI@Policy?5Qualifier?5CPS?$AA@ 10056608     libeay32120:obj_dat.obj
 0002:0000f620       ??_C@_0O@CJFHFAHE@id?9qt?9unotice?$AA@ 10056620     libeay32120:obj_dat.obj
 0002:0000f630       ??_C@_0BN@KPMBKEE@Policy?5Qualifier?5User?5Notice?$AA@ 10056630     libeay32120:obj_dat.obj
 0002:0000f650       ??_C@_0L@OPHBIFFL@RC2?964?9CBC?$AA@ 10056650     libeay32120:obj_dat.obj
 0002:0000f65c       ??_C@_0L@CLELMECA@rc2?964?9cbc?$AA@ 1005665c     libeay32120:obj_dat.obj
 0002:0000f668       ??_C@_0L@LCBJGKJG@SMIME?9CAPS?$AA@ 10056668     libeay32120:obj_dat.obj
 0002:0000f674       ??_C@_0BE@CEEFMCAI@S?1MIME?5Capabilities?$AA@ 10056674     libeay32120:obj_dat.obj
 0002:0000f688       ??_C@_0P@OHJEMJLF@PBE?9MD2?9RC2?964?$AA@ 10056688     libeay32120:obj_dat.obj
 0002:0000f698       ??_C@_0BF@FOKDMACM@pbeWithMD2AndRC2?9CBC?$AA@ 10056698     libeay32120:obj_dat.obj
 0002:0000f6b0       ??_C@_0P@IDPFKEHM@PBE?9MD5?9RC2?964?$AA@ 100566b0     libeay32120:obj_dat.obj
 0002:0000f6c0       ??_C@_0BF@CKDLCJKD@pbeWithMD5AndRC2?9CBC?$AA@ 100566c0     libeay32120:obj_dat.obj
 0002:0000f6d8       ??_C@_0N@GOPIPBOD@PBE?9SHA1?9DES?$AA@ 100566d8     libeay32120:obj_dat.obj
 0002:0000f6e8       ??_C@_0BG@JLHBEJLP@pbeWithSHA1AndDES?9CBC?$AA@ 100566e8     libeay32120:obj_dat.obj
 0002:0000f700       ??_C@_08HCCJAOPJ@msExtReq?$AA@ 10056700     libeay32120:obj_dat.obj
 0002:0000f70c       ??_C@_0BM@MEJAMAEO@Microsoft?5Extension?5Request?$AA@ 1005670c     libeay32120:obj_dat.obj
 0002:0000f728       ??_C@_06EJACAMDF@extReq?$AA@ 10056728     libeay32120:obj_dat.obj
 0002:0000f730       ??_C@_0BC@GLHEKHCC@Extension?5Request?$AA@ 10056730     libeay32120:obj_dat.obj
 0002:0000f744       ??_C@_04MEMAJGDJ@name?$AA@ 10056744     libeay32120:obj_dat.obj
 0002:0000f74c       ??_C@_0M@DNNLEIMI@dnQualifier?$AA@ 1005674c     libeay32120:obj_dat.obj
 0002:0000f758       ??_C@_05BDFHFBBC@id?9pe?$AA@ 10056758     libeay32120:obj_dat.obj
 0002:0000f760       ??_C@_05BHKIKJBE@id?9ad?$AA@ 10056760     libeay32120:obj_dat.obj
 0002:0000f768       ??_C@_0BE@PLCGCINM@authorityInfoAccess?$AA@ 10056768     libeay32120:obj_dat.obj
 0002:0000f77c       ??_C@_0BN@EILCOJAN@Authority?5Information?5Access?$AA@ 1005677c     libeay32120:obj_dat.obj
 0002:0000f79c       ??_C@_04LOJOPNBE@OCSP?$AA@ 1005679c     libeay32120:obj_dat.obj
 0002:0000f7a4       ??_C@_09GFPECPIH@caIssuers?$AA@ 100567a4     libeay32120:obj_dat.obj
 0002:0000f7b0       ??_C@_0L@CABCENFK@CA?5Issuers?$AA@ 100567b0     libeay32120:obj_dat.obj
 0002:0000f7bc       ??_C@_0M@HBKJLKNM@OCSPSigning?$AA@ 100567bc     libeay32120:obj_dat.obj
 0002:0000f7c8       ??_C@_0N@CPJNIPDD@OCSP?5Signing?$AA@ 100567c8     libeay32120:obj_dat.obj
 0002:0000f7d8       ??_C@_03CBLMPEHH@ISO?$AA@  100567d8     libeay32120:obj_dat.obj
 0002:0000f7dc       ??_C@_03CMEHDJAL@iso?$AA@  100567dc     libeay32120:obj_dat.obj
 0002:0000f7e0       ??_C@_0M@CMICFDOA@member?9body?$AA@ 100567e0     libeay32120:obj_dat.obj
 0002:0000f7ec       ??_C@_0BA@BGDAEHGF@ISO?5Member?5Body?$AA@ 100567ec     libeay32120:obj_dat.obj
 0002:0000f7fc       ??_C@_06EKAADAMF@ISO?9US?$AA@ 100567fc     libeay32120:obj_dat.obj
 0002:0000f804       ??_C@_0BD@NMCDOJHL@ISO?5US?5Member?5Body?$AA@ 10056804     libeay32120:obj_dat.obj
 0002:0000f818       ??_C@_05OCCOPOJN@X9?957?$AA@ 10056818     libeay32120:obj_dat.obj
 0002:0000f820       ??_C@_05PAJLFBHD@X9?457?$AA@ 10056820     libeay32120:obj_dat.obj
 0002:0000f828       ??_C@_04CGFPFLFA@X9cm?$AA@ 10056828     libeay32120:obj_dat.obj
 0002:0000f830       ??_C@_0L@DJCLIPOH@X9?457?5CM?5?$DP?$AA@ 10056830     libeay32120:obj_dat.obj
 0002:0000f83c       ??_C@_05BCIEJMJH@pkcs1?$AA@ 1005683c     libeay32120:obj_dat.obj
 0002:0000f844       ??_C@_05HGOIFJJD@pkcs5?$AA@ 10056844     libeay32120:obj_dat.obj
 0002:0000f84c       ??_C@_05HHBEAKJJ@SMIME?$AA@ 1005684c     libeay32120:obj_dat.obj
 0002:0000f854       ??_C@_06DFGHEKNE@S?1MIME?$AA@ 10056854     libeay32120:obj_dat.obj
 0002:0000f85c       ??_C@_0N@GABIEKIN@id?9smime?9mod?$AA@ 1005685c     libeay32120:obj_dat.obj
 0002:0000f86c       ??_C@_0M@EBLDBLEO@id?9smime?9ct?$AA@ 1005686c     libeay32120:obj_dat.obj
 0002:0000f878       ??_C@_0M@HFICCJDE@id?9smime?9aa?$AA@ 10056878     libeay32120:obj_dat.obj
 0002:0000f884       ??_C@_0N@DKFBIKP@id?9smime?9alg?$AA@ 10056884     libeay32120:obj_dat.obj
 0002:0000f894       ??_C@_0M@LHBAJBP@id?9smime?9cd?$AA@ 10056894     libeay32120:obj_dat.obj
 0002:0000f8a0       ??_C@_0N@PABBGIHI@id?9smime?9spq?$AA@ 100568a0     libeay32120:obj_dat.obj
 0002:0000f8b0       ??_C@_0N@CFBKAPGC@id?9smime?9cti?$AA@ 100568b0     libeay32120:obj_dat.obj
 0002:0000f8c0       ??_C@_0BB@PJEIFOOP@id?9smime?9mod?9cms?$AA@ 100568c0     libeay32120:obj_dat.obj
 0002:0000f8d4       ??_C@_0BB@MKJLIPEJ@id?9smime?9mod?9ess?$AA@ 100568d4     libeay32120:obj_dat.obj
 0002:0000f8e8       ??_C@_0BB@LBBEMNBN@id?9smime?9mod?9oid?$AA@ 100568e8     libeay32120:obj_dat.obj
 0002:0000f8fc       ??_C@_0BE@PEENABNJ@id?9smime?9mod?9msg?9v3?$AA@ 100568fc     libeay32120:obj_dat.obj
 0002:0000f910       ??_C@_0BP@HIDGBPHA@id?9smime?9mod?9ets?9eSignature?988?$AA@ 10056910     libeay32120:obj_dat.obj
 0002:0000f930       ??_C@_0BP@POGMGJII@id?9smime?9mod?9ets?9eSignature?997?$AA@ 10056930     libeay32120:obj_dat.obj
 0002:0000f950       ??_C@_0BP@KEHEABPA@id?9smime?9mod?9ets?9eSigPolicy?988?$AA@ 10056950     libeay32120:obj_dat.obj
 0002:0000f970       ??_C@_0BP@CCCOHHAI@id?9smime?9mod?9ets?9eSigPolicy?997?$AA@ 10056970     libeay32120:obj_dat.obj
 0002:0000f990       ??_C@_0BE@GCHIHBHA@id?9smime?9ct?9receipt?$AA@ 10056990     libeay32120:obj_dat.obj
 0002:0000f9a4       ??_C@_0BF@KGEHGOF@id?9smime?9ct?9authData?$AA@ 100569a4     libeay32120:obj_dat.obj
 0002:0000f9bc       ??_C@_0BI@DBILCLFJ@id?9smime?9ct?9publishCert?$AA@ 100569bc     libeay32120:obj_dat.obj
 0002:0000f9d4       ??_C@_0BE@KHNGFDDI@id?9smime?9ct?9TSTInfo?$AA@ 100569d4     libeay32120:obj_dat.obj
 0002:0000f9e8       ??_C@_0BE@FKPPBHI@id?9smime?9ct?9TDTInfo?$AA@ 100569e8     libeay32120:obj_dat.obj
 0002:0000f9fc       ??_C@_0BI@BGKPNMK@id?9smime?9ct?9contentInfo?$AA@ 100569fc     libeay32120:obj_dat.obj
 0002:0000fa14       ??_C@_0BM@MFKPCEGN@id?9smime?9ct?9DVCSRequestData?$AA@ 10056a14     libeay32120:obj_dat.obj
 0002:0000fa30       ??_C@_0BN@POKJLKJJ@id?9smime?9ct?9DVCSResponseData?$AA@ 10056a30     libeay32120:obj_dat.obj
 0002:0000fa50       ??_C@_0BL@LMGNMPFD@id?9smime?9aa?9receiptRequest?$AA@ 10056a50     libeay32120:obj_dat.obj
 0002:0000fa6c       ??_C@_0BK@DNJNJILO@id?9smime?9aa?9securityLabel?$AA@ 10056a6c     libeay32120:obj_dat.obj
 0002:0000fa88       ??_C@_0BM@OEKGBMLE@id?9smime?9aa?9mlExpandHistory?$AA@ 10056a88     libeay32120:obj_dat.obj
 0002:0000faa4       ??_C@_0BI@EMGPJFHB@id?9smime?9aa?9contentHint?$AA@ 10056aa4     libeay32120:obj_dat.obj
 0002:0000fabc       ??_C@_0BJ@LJLDKMDH@id?9smime?9aa?9msgSigDigest?$AA@ 10056abc     libeay32120:obj_dat.obj
 0002:0000fad8       ??_C@_0BN@GCCNOJCG@id?9smime?9aa?9encapContentType?$AA@ 10056ad8     libeay32120:obj_dat.obj
 0002:0000faf8       ??_C@_0BO@KMJGIAMK@id?9smime?9aa?9contentIdentifier?$AA@ 10056af8     libeay32120:obj_dat.obj
 0002:0000fb18       ??_C@_0BF@CFNHFPDB@id?9smime?9aa?9macValue?$AA@ 10056b18     libeay32120:obj_dat.obj
 0002:0000fb30       ??_C@_0BN@NFAAOKEA@id?9smime?9aa?9equivalentLabels?$AA@ 10056b30     libeay32120:obj_dat.obj
 0002:0000fb50       ??_C@_0BN@LEFAEFL@id?9smime?9aa?9contentReference?$AA@ 10056b50     libeay32120:obj_dat.obj
 0002:0000fb70       ??_C@_0BK@LAPEFMP@id?9smime?9aa?9encrypKeyPref?$AA@ 10056b70     libeay32120:obj_dat.obj
 0002:0000fb8c       ??_C@_0BP@LHGJLGIB@id?9smime?9aa?9signingCertificate?$AA@ 10056b8c     libeay32120:obj_dat.obj
 0002:0000fbac       ??_C@_0BO@CEEOANBD@id?9smime?9aa?9smimeEncryptCerts?$AA@ 10056bac     libeay32120:obj_dat.obj
 0002:0000fbcc       ??_C@_0BL@DHJOIJNE@id?9smime?9aa?9timeStampToken?$AA@ 10056bcc     libeay32120:obj_dat.obj
 0002:0000fbe8       ??_C@_0BM@GKFMJCFL@id?9smime?9aa?9ets?9sigPolicyId?$AA@ 10056be8     libeay32120:obj_dat.obj
 0002:0000fc04       ??_C@_0BP@OLIFPEIM@id?9smime?9aa?9ets?9commitmentType?$AA@ 10056c04     libeay32120:obj_dat.obj
 0002:0000fc24       ??_C@_0BP@EODAELPO@id?9smime?9aa?9ets?9signerLocation?$AA@ 10056c24     libeay32120:obj_dat.obj
 0002:0000fc44       ??_C@_0BL@KDJDAGDC@id?9smime?9aa?9ets?9signerAttr?$AA@ 10056c44     libeay32120:obj_dat.obj
 0002:0000fc60       ??_C@_0BN@JFIFOPBH@id?9smime?9aa?9ets?9otherSigCert?$AA@ 10056c60     libeay32120:obj_dat.obj
 0002:0000fc80       ??_C@_0CB@GHKINGOH@id?9smime?9aa?9ets?9contentTimestamp@ 10056c80     libeay32120:obj_dat.obj
 0002:0000fca4       ??_C@_0CA@NKIOCHLG@id?9smime?9aa?9ets?9CertificateRefs?$AA@ 10056ca4     libeay32120:obj_dat.obj
 0002:0000fcc4       ??_C@_0BP@BCHJHNFO@id?9smime?9aa?9ets?9RevocationRefs?$AA@ 10056cc4     libeay32120:obj_dat.obj
 0002:0000fce4       ??_C@_0BL@IFKOLDIG@id?9smime?9aa?9ets?9certValues?$AA@ 10056ce4     libeay32120:obj_dat.obj
 0002:0000fd00       ??_C@_0CB@GOCEFPFO@id?9smime?9aa?9ets?9revocationValues@ 10056d00     libeay32120:obj_dat.obj
 0002:0000fd24       ??_C@_0BN@HGLOGOFI@id?9smime?9aa?9ets?9escTimeStamp?$AA@ 10056d24     libeay32120:obj_dat.obj
 0002:0000fd44       ??_C@_0CB@CJNBPJE@id?9smime?9aa?9ets?9certCRLTimestamp@ 10056d44     libeay32120:obj_dat.obj
 0002:0000fd68       ??_C@_0CB@BEMKNJGO@id?9smime?9aa?9ets?9archiveTimeStamp@ 10056d68     libeay32120:obj_dat.obj
 0002:0000fd8c       ??_C@_0BK@HDBIPLFI@id?9smime?9aa?9signatureType?$AA@ 10056d8c     libeay32120:obj_dat.obj
 0002:0000fda8       ??_C@_0BF@KEMAMBKF@id?9smime?9aa?9dvcs?9dvc?$AA@ 10056da8     libeay32120:obj_dat.obj
 0002:0000fdc0       ??_C@_0BK@JNJOCCCB@id?9smime?9alg?9ESDHwith3DES?$AA@ 10056dc0     libeay32120:obj_dat.obj
 0002:0000fddc       ??_C@_0BJ@FIJMOHBJ@id?9smime?9alg?9ESDHwithRC2?$AA@ 10056ddc     libeay32120:obj_dat.obj
 0002:0000fdf8       ??_C@_0BG@HHELPNAK@id?9smime?9alg?93DESwrap?$AA@ 10056df8     libeay32120:obj_dat.obj
 0002:0000fe10       ??_C@_0BF@JNCPAJCA@id?9smime?9alg?9RC2wrap?$AA@ 10056e10     libeay32120:obj_dat.obj
 0002:0000fe28       ??_C@_0BC@COOODKPD@id?9smime?9alg?9ESDH?$AA@ 10056e28     libeay32120:obj_dat.obj
 0002:0000fe3c       ??_C@_0BJ@FOFHEIDB@id?9smime?9alg?9CMS3DESwrap?$AA@ 10056e3c     libeay32120:obj_dat.obj
 0002:0000fe58       ??_C@_0BI@FIFDKKFJ@id?9smime?9alg?9CMSRC2wrap?$AA@ 10056e58     libeay32120:obj_dat.obj
 0002:0000fe70       ??_C@_0BB@BMOBKAGE@id?9smime?9cd?9ldap?$AA@ 10056e70     libeay32120:obj_dat.obj
 0002:0000fe84       ??_C@_0BJ@IMNKDGEG@id?9smime?9spq?9ets?9sqt?9uri?$AA@ 10056e84     libeay32120:obj_dat.obj
 0002:0000fea0       ??_C@_0BN@GPAAHNOH@id?9smime?9spq?9ets?9sqt?9unotice?$AA@ 10056ea0     libeay32120:obj_dat.obj
 0002:0000fec0       ??_C@_0BP@BCHFEGHC@id?9smime?9cti?9ets?9proofOfOrigin?$AA@ 10056ec0     libeay32120:obj_dat.obj
 0002:0000fee0       ??_C@_0CA@HNGOKBGC@id?9smime?9cti?9ets?9proofOfReceipt?$AA@ 10056ee0     libeay32120:obj_dat.obj
 0002:0000ff00       ??_C@_0CB@ICJGPMEP@id?9smime?9cti?9ets?9proofOfDelivery@ 10056f00     libeay32120:obj_dat.obj
 0002:0000ff24       ??_C@_0BP@ODCAFFCM@id?9smime?9cti?9ets?9proofOfSender?$AA@ 10056f24     libeay32120:obj_dat.obj
 0002:0000ff44       ??_C@_0CB@DDLMHEBC@id?9smime?9cti?9ets?9proofOfApproval@ 10056f44     libeay32120:obj_dat.obj
 0002:0000ff68       ??_C@_0CB@MICJDGGH@id?9smime?9cti?9ets?9proofOfCreation@ 10056f68     libeay32120:obj_dat.obj
 0002:0000ff8c       ??_C@_03HLHMHGOI@MD4?$AA@  10056f8c     libeay32120:obj_dat.obj
 0002:0000ff90       ??_C@_03ODADJPDG@md4?$AA@  10056f90     libeay32120:obj_dat.obj
 0002:0000ff94       ??_C@_0M@FNAFBNKE@id?9pkix?9mod?$AA@ 10056f94     libeay32120:obj_dat.obj
 0002:0000ffa0       ??_C@_05EBEMBIDF@id?9qt?$AA@ 10056fa0     libeay32120:obj_dat.obj
 0002:0000ffa8       ??_C@_05FDHJOKPN@id?9it?$AA@ 10056fa8     libeay32120:obj_dat.obj
 0002:0000ffb0       ??_C@_07OMHOPMIM@id?9pkip?$AA@ 10056fb0     libeay32120:obj_dat.obj
 0002:0000ffb8       ??_C@_06DOGCNAAM@id?9alg?$AA@ 10056fb8     libeay32120:obj_dat.obj
 0002:0000ffc0       ??_C@_06PBMFLHLE@id?9cmc?$AA@ 10056fc0     libeay32120:obj_dat.obj
 0002:0000ffc8       ??_C@_05OHNJGMJE@id?9on?$AA@ 10056fc8     libeay32120:obj_dat.obj
 0002:0000ffd0       ??_C@_06IOIOBGMI@id?9pda?$AA@ 10056fd0     libeay32120:obj_dat.obj
 0002:0000ffd8       ??_C@_06GDGEDALH@id?9aca?$AA@ 10056fd8     libeay32120:obj_dat.obj
 0002:0000ffe0       ??_C@_06ELIJBHPL@id?9qcs?$AA@ 10056fe0     libeay32120:obj_dat.obj
 0002:0000ffe8       ??_C@_06PONIBOCI@id?9cct?$AA@ 10056fe8     libeay32120:obj_dat.obj
 0002:0000fff0       ??_C@_0BF@HGDNDMHO@id?9pkix1?9explicit?988?$AA@ 10056ff0     libeay32120:obj_dat.obj
 0002:00010008       ??_C@_0BF@KMJGBJHG@id?9pkix1?9implicit?988?$AA@ 10057008     libeay32120:obj_dat.obj
 0002:00010020       ??_C@_0BF@JEALIPIC@id?9pkix1?9explicit?993?$AA@ 10057020     libeay32120:obj_dat.obj
 0002:00010038       ??_C@_0BF@EOKAKKIK@id?9pkix1?9implicit?993?$AA@ 10057038     libeay32120:obj_dat.obj
 0002:00010050       ??_C@_0M@GHFPFJPB@id?9mod?9crmf?$AA@ 10057050     libeay32120:obj_dat.obj
 0002:0001005c       ??_C@_0L@KPDLDADF@id?9mod?9cmc?$AA@ 1005705c     libeay32120:obj_dat.obj
 0002:00010068       ??_C@_0BG@DCGANCKA@id?9mod?9kea?9profile?988?$AA@ 10057068     libeay32120:obj_dat.obj
 0002:00010080       ??_C@_0BG@NAFGGBFM@id?9mod?9kea?9profile?993?$AA@ 10057080     libeay32120:obj_dat.obj
 0002:00010098       ??_C@_0L@MONEHBKH@id?9mod?9cmp?$AA@ 10057098     libeay32120:obj_dat.obj
 0002:000100a4       ??_C@_0BJ@GENFLKHG@id?9mod?9qualified?9cert?988?$AA@ 100570a4     libeay32120:obj_dat.obj
 0002:000100c0       ??_C@_0BJ@IGODAJIK@id?9mod?9qualified?9cert?993?$AA@ 100570c0     libeay32120:obj_dat.obj
 0002:000100dc       ??_C@_0BG@EPPFBJNH@id?9mod?9attribute?9cert?$AA@ 100570dc     libeay32120:obj_dat.obj
 0002:000100f4       ??_C@_0BK@GAJOODEK@id?9mod?9timestamp?9protocol?$AA@ 100570f4     libeay32120:obj_dat.obj
 0002:00010110       ??_C@_0M@EACKLPKH@id?9mod?9ocsp?$AA@ 10057110     libeay32120:obj_dat.obj
 0002:0001011c       ??_C@_0M@GHDGNJKI@id?9mod?9dvcs?$AA@ 1005711c     libeay32120:obj_dat.obj
 0002:00010128       ??_C@_0P@MMOAAMFD@id?9mod?9cmp2000?$AA@ 10057128     libeay32120:obj_dat.obj
 0002:00010138       ??_C@_0O@MPIIPAHM@biometricInfo?$AA@ 10057138     libeay32120:obj_dat.obj
 0002:00010148       ??_C@_0P@KFKDECPH@Biometric?5Info?$AA@ 10057148     libeay32120:obj_dat.obj
 0002:00010158       ??_C@_0N@FPMNLLM@qcStatements?$AA@ 10057158     libeay32120:obj_dat.obj
 0002:00010168       ??_C@_0P@CIOHPJGC@ac?9auditEntity?$AA@ 10057168     libeay32120:obj_dat.obj
 0002:00010178       ??_C@_0N@FPEEOJCI@ac?9targeting?$AA@ 10057178     libeay32120:obj_dat.obj
 0002:00010188       ??_C@_0L@DLGBNBJE@aaControls?$AA@ 10057188     libeay32120:obj_dat.obj
 0002:00010194       ??_C@_0BB@NNCKCHBC@sbgp?9ipAddrBlock?$AA@ 10057194     libeay32120:obj_dat.obj
 0002:000101a8       ??_C@_0BG@OJEHJDKA@sbgp?9autonomousSysNum?$AA@ 100571a8     libeay32120:obj_dat.obj
 0002:000101c0       ??_C@_0BG@JCJJBMAI@sbgp?9routerIdentifier?$AA@ 100571c0     libeay32120:obj_dat.obj
 0002:000101d8       ??_C@_0L@HLNNPJEH@textNotice?$AA@ 100571d8     libeay32120:obj_dat.obj
 0002:000101e4       ??_C@_0P@MKBFMAPP@ipsecEndSystem?$AA@ 100571e4     libeay32120:obj_dat.obj
 0002:000101f4       ??_C@_0BB@JEJDAICO@IPSec?5End?5System?$AA@ 100571f4     libeay32120:obj_dat.obj
 0002:00010208       ??_C@_0M@GMMHFFHI@ipsecTunnel?$AA@ 10057208     libeay32120:obj_dat.obj
 0002:00010214       ??_C@_0N@EKDIOGLO@IPSec?5Tunnel?$AA@ 10057214     libeay32120:obj_dat.obj
 0002:00010224       ??_C@_09GOHJKOFF@ipsecUser?$AA@ 10057224     libeay32120:obj_dat.obj
 0002:00010230       ??_C@_0L@DECDDCGF@IPSec?5User?$AA@ 10057230     libeay32120:obj_dat.obj
 0002:0001023c       ??_C@_04JJICJLBL@DVCS?$AA@ 1005723c     libeay32120:obj_dat.obj
 0002:00010244       ??_C@_04FFLIHJGD@dvcs?$AA@ 10057244     libeay32120:obj_dat.obj
 0002:0001024c       ??_C@_0BE@GJACIPND@id?9it?9caProtEncCert?$AA@ 1005724c     libeay32120:obj_dat.obj
 0002:00010260       ??_C@_0BH@POCENFBA@id?9it?9signKeyPairTypes?$AA@ 10057260     libeay32120:obj_dat.obj
 0002:00010278       ??_C@_0BG@FKIDIODL@id?9it?9encKeyPairTypes?$AA@ 10057278     libeay32120:obj_dat.obj
 0002:00010290       ??_C@_0BH@JFBOPDCH@id?9it?9preferredSymmAlg?$AA@ 10057290     libeay32120:obj_dat.obj
 0002:000102a8       ??_C@_0BG@OAKEHPLC@id?9it?9caKeyUpdateInfo?$AA@ 100572a8     libeay32120:obj_dat.obj
 0002:000102c0       ??_C@_0BB@NHKBGJFG@id?9it?9currentCRL?$AA@ 100572c0     libeay32120:obj_dat.obj
 0002:000102d4       ??_C@_0BG@BPLKDJPD@id?9it?9unsupportedOIDs?$AA@ 100572d4     libeay32120:obj_dat.obj
 0002:000102ec       ??_C@_0BK@MKGCMKGI@id?9it?9subscriptionRequest?$AA@ 100572ec     libeay32120:obj_dat.obj
 0002:00010308       ??_C@_0BL@HBPHBFLO@id?9it?9subscriptionResponse?$AA@ 10057308     libeay32120:obj_dat.obj
 0002:00010324       ??_C@_0BG@LGJDGAPG@id?9it?9keyPairParamReq?$AA@ 10057324     libeay32120:obj_dat.obj
 0002:0001033c       ??_C@_0BG@KPIIFBLH@id?9it?9keyPairParamRep?$AA@ 1005733c     libeay32120:obj_dat.obj
 0002:00010354       ??_C@_0BE@FOOOCPMH@id?9it?9revPassphrase?$AA@ 10057354     libeay32120:obj_dat.obj
 0002:00010368       ??_C@_0BG@MKDHCJKF@id?9it?9implicitConfirm?$AA@ 10057368     libeay32120:obj_dat.obj
 0002:00010380       ??_C@_0BG@KCBHNMIK@id?9it?9confirmWaitTime?$AA@ 10057380     libeay32120:obj_dat.obj
 0002:00010398       ??_C@_0BF@CLCJJGFI@id?9it?9origPKIMessage?$AA@ 10057398     libeay32120:obj_dat.obj
 0002:000103b0       ??_C@_0L@FDGKGANK@id?9regCtrl?$AA@ 100573b0     libeay32120:obj_dat.obj
 0002:000103bc       ??_C@_0L@BGHMJHOP@id?9regInfo?$AA@ 100573bc     libeay32120:obj_dat.obj
 0002:000103c8       ??_C@_0BE@JDMKCIPE@id?9regCtrl?9regToken?$AA@ 100573c8     libeay32120:obj_dat.obj
 0002:000103dc       ??_C@_0BJ@FBKKLLKP@id?9regCtrl?9authenticator?$AA@ 100573dc     libeay32120:obj_dat.obj
 0002:000103f8       ??_C@_0BO@GJKPPLPL@id?9regCtrl?9pkiPublicationInfo?$AA@ 100573f8     libeay32120:obj_dat.obj
 0002:00010418       ??_C@_0BN@ONKHMAOP@id?9regCtrl?9pkiArchiveOptions?$AA@ 10057418     libeay32120:obj_dat.obj
 0002:00010438       ??_C@_0BF@GFJPNJIG@id?9regCtrl?9oldCertID?$AA@ 10057438     libeay32120:obj_dat.obj
 0002:00010450       ??_C@_0BL@GHBPLPHM@id?9regCtrl?9protocolEncrKey?$AA@ 10057450     libeay32120:obj_dat.obj
 0002:0001046c       ??_C@_0BF@FHFGHAHE@id?9regInfo?9utf8Pairs?$AA@ 1005746c     libeay32120:obj_dat.obj
 0002:00010484       ??_C@_0BD@EEAPBNJJ@id?9regInfo?9certReq?$AA@ 10057484     libeay32120:obj_dat.obj
 0002:00010498       ??_C@_0N@KIJONBNA@id?9alg?9des40?$AA@ 10057498     libeay32120:obj_dat.obj
 0002:000104a8       ??_C@_0BD@LAAJOBHI@id?9alg?9noSignature?$AA@ 100574a8     libeay32120:obj_dat.obj
 0002:000104bc       ??_C@_0BI@KIODNBCM@id?9alg?9dh?9sig?9hmac?9sha1?$AA@ 100574bc     libeay32120:obj_dat.obj
 0002:000104d4       ??_C@_0O@OBGPPBGA@id?9alg?9dh?9pop?$AA@ 100574d4     libeay32120:obj_dat.obj
 0002:000104e4       ??_C@_0BC@CMNEPEAI@id?9cmc?9statusInfo?$AA@ 100574e4     libeay32120:obj_dat.obj
 0002:000104f8       ??_C@_0BG@PPIINOMK@id?9cmc?9identification?$AA@ 100574f8     libeay32120:obj_dat.obj
 0002:00010510       ??_C@_0BF@IDAHNDCK@id?9cmc?9identityProof?$AA@ 10057510     libeay32120:obj_dat.obj
 0002:00010528       ??_C@_0BC@LLJKCHEN@id?9cmc?9dataReturn?$AA@ 10057528     libeay32120:obj_dat.obj
 0002:0001053c       ??_C@_0BF@GEJAHBF@id?9cmc?9transactionId?$AA@ 1005753c     libeay32120:obj_dat.obj
 0002:00010554       ??_C@_0BD@BCMJDDMP@id?9cmc?9senderNonce?$AA@ 10057554     libeay32120:obj_dat.obj
 0002:00010568       ??_C@_0BG@JLHHNNCH@id?9cmc?9recipientNonce?$AA@ 10057568     libeay32120:obj_dat.obj
 0002:00010580       ??_C@_0BF@HLOCACJF@id?9cmc?9addExtensions?$AA@ 10057580     libeay32120:obj_dat.obj
 0002:00010598       ??_C@_0BE@NILMJFN@id?9cmc?9encryptedPOP?$AA@ 10057598     libeay32120:obj_dat.obj
 0002:000105ac       ??_C@_0BE@KBIPLENG@id?9cmc?9decryptedPOP?$AA@ 100575ac     libeay32120:obj_dat.obj
 0002:000105c0       ??_C@_0BF@BMODAINP@id?9cmc?9lraPOPWitness?$AA@ 100575c0     libeay32120:obj_dat.obj
 0002:000105d8       ??_C@_0P@GMDPJKDO@id?9cmc?9getCert?$AA@ 100575d8     libeay32120:obj_dat.obj
 0002:000105e8       ??_C@_0O@OIGIOBJ@id?9cmc?9getCRL?$AA@ 100575e8     libeay32120:obj_dat.obj
 0002:000105f8       ??_C@_0BF@BOEAJJNI@id?9cmc?9revokeRequest?$AA@ 100575f8     libeay32120:obj_dat.obj
 0002:00010610       ??_C@_0P@PCIOIKNC@id?9cmc?9regInfo?$AA@ 10057610     libeay32120:obj_dat.obj
 0002:00010620       ??_C@_0BE@CKMFMMDP@id?9cmc?9responseInfo?$AA@ 10057620     libeay32120:obj_dat.obj
 0002:00010634       ??_C@_0BE@JKLJLIIH@id?9cmc?9queryPending?$AA@ 10057634     libeay32120:obj_dat.obj
 0002:00010648       ??_C@_0BF@GGLCNKGO@id?9cmc?9popLinkRandom?$AA@ 10057648     libeay32120:obj_dat.obj
 0002:00010660       ??_C@_0BG@EEIJMDPB@id?9cmc?9popLinkWitness?$AA@ 10057660     libeay32120:obj_dat.obj
 0002:00010678       ??_C@_0BN@MIGHDJON@id?9cmc?9confirmCertAcceptance?$AA@ 10057678     libeay32120:obj_dat.obj
 0002:00010698       ??_C@_0BD@IGLADCFL@id?9on?9personalData?$AA@ 10057698     libeay32120:obj_dat.obj
 0002:000106ac       ??_C@_0BD@BADJMIPF@id?9pda?9dateOfBirth?$AA@ 100576ac     libeay32120:obj_dat.obj
 0002:000106c0       ??_C@_0BE@NIFFDBPJ@id?9pda?9placeOfBirth?$AA@ 100576c0     libeay32120:obj_dat.obj
 0002:000106d4       ??_C@_0O@JMCFNPFD@id?9pda?9gender?$AA@ 100576d4     libeay32120:obj_dat.obj
 0002:000106e4       ??_C@_0BM@KMGEGNAB@id?9pda?9countryOfCitizenship?$AA@ 100576e4     libeay32120:obj_dat.obj
 0002:00010700       ??_C@_0BK@BJMNIGCJ@id?9pda?9countryOfResidence?$AA@ 10057700     libeay32120:obj_dat.obj
 0002:0001071c       ??_C@_0BK@OFEDAOCA@id?9aca?9authenticationInfo?$AA@ 1005771c     libeay32120:obj_dat.obj
 0002:00010738       ??_C@_0BG@GFJCFEAI@id?9aca?9accessIdentity?$AA@ 10057738     libeay32120:obj_dat.obj
 0002:00010750       ??_C@_0BI@IDHFJBKH@id?9aca?9chargingIdentity?$AA@ 10057750     libeay32120:obj_dat.obj
 0002:00010768       ??_C@_0N@HOPCGOGP@id?9aca?9group?$AA@ 10057768     libeay32120:obj_dat.obj
 0002:00010778       ??_C@_0M@FBOAJIIJ@id?9aca?9role?$AA@ 10057778     libeay32120:obj_dat.obj
 0002:00010784       ??_C@_0BH@DJONLBHI@id?9qcs?9pkixQCSyntax?9v1?$AA@ 10057784     libeay32120:obj_dat.obj
 0002:0001079c       ??_C@_0L@CDHPLMPE@id?9cct?9crs?$AA@ 1005779c     libeay32120:obj_dat.obj
 0002:000107a8       ??_C@_0P@FNCPPGJO@id?9cct?9PKIData?$AA@ 100577a8     libeay32120:obj_dat.obj
 0002:000107b8       ??_C@_0BD@DDALHPCH@id?9cct?9PKIResponse?$AA@ 100577b8     libeay32120:obj_dat.obj
 0002:000107cc       ??_C@_0BA@PBBONLHE@ad_timestamping?$AA@ 100577cc     libeay32120:obj_dat.obj
 0002:000107dc       ??_C@_0BB@NMPPBOGK@AD?5Time?5Stamping?$AA@ 100577dc     libeay32120:obj_dat.obj
 0002:000107f0       ??_C@_07JCCJJKFE@AD_DVCS?$AA@ 100577f0     libeay32120:obj_dat.obj
 0002:000107f8       ??_C@_07JCKMJMPC@ad?5dvcs?$AA@ 100577f8     libeay32120:obj_dat.obj
 0002:00010800       ??_C@_0BC@KFAFMFFF@basicOCSPResponse?$AA@ 10057800     libeay32120:obj_dat.obj
 0002:00010814       ??_C@_0BE@ONEEPEOL@Basic?5OCSP?5Response?$AA@ 10057814     libeay32120:obj_dat.obj
 0002:00010828       ??_C@_05OJOPLPHH@Nonce?$AA@ 10057828     libeay32120:obj_dat.obj
 0002:00010830       ??_C@_0L@NCNDEJFL@OCSP?5Nonce?$AA@ 10057830     libeay32120:obj_dat.obj
 0002:0001083c       ??_C@_05NOENOBME@CrlID?$AA@ 1005783c     libeay32120:obj_dat.obj
 0002:00010844       ??_C@_0M@LCLKJALE@OCSP?5CRL?5ID?$AA@ 10057844     libeay32120:obj_dat.obj
 0002:00010850       ??_C@_0BE@FBPDIHIK@acceptableResponses?$AA@ 10057850     libeay32120:obj_dat.obj
 0002:00010864       ??_C@_0BK@JKKLNLEI@Acceptable?5OCSP?5Responses?$AA@ 10057864     libeay32120:obj_dat.obj
 0002:00010880       ??_C@_07MCKMCKHJ@noCheck?$AA@ 10057880     libeay32120:obj_dat.obj
 0002:00010888       ??_C@_0O@HFOALJCG@OCSP?5No?5Check?$AA@ 10057888     libeay32120:obj_dat.obj
 0002:00010898       ??_C@_0O@FIEDPKGI@archiveCutoff?$AA@ 10057898     libeay32120:obj_dat.obj
 0002:000108a8       ??_C@_0BE@JAFPABJB@OCSP?5Archive?5Cutoff?$AA@ 100578a8     libeay32120:obj_dat.obj
 0002:000108bc       ??_C@_0P@LCDAPLHC@serviceLocator?$AA@ 100578bc     libeay32120:obj_dat.obj
 0002:000108cc       ??_C@_0BF@CEIKAD@OCSP?5Service?5Locator?$AA@ 100578cc     libeay32120:obj_dat.obj
 0002:000108e4       ??_C@_0P@EGENIBNC@extendedStatus?$AA@ 100578e4     libeay32120:obj_dat.obj
 0002:000108f4       ??_C@_0BF@MPEDLKDP@Extended?5OCSP?5Status?$AA@ 100578f4     libeay32120:obj_dat.obj
 0002:0001090c       ??_C@_05HDPIMK@valid?$AA@  1005790c     libeay32120:obj_dat.obj
 0002:00010914       ??_C@_04LNEJFJGI@path?$AA@ 10057914     libeay32120:obj_dat.obj
 0002:0001091c       ??_C@_09LNEPAILM@trustRoot?$AA@ 1005791c     libeay32120:obj_dat.obj
 0002:00010928       ??_C@_0L@INBPOG@Trust?5Root?$AA@ 10057928     libeay32120:obj_dat.obj
 0002:00010934       ??_C@_09JPNFBOJG@algorithm?$AA@ 10057934     libeay32120:obj_dat.obj
 0002:00010940       ??_C@_0N@JHANBHGC@rsaSignature?$AA@ 10057940     libeay32120:obj_dat.obj
 0002:00010950       ??_C@_0P@NMIAKCBG@X500algorithms?$AA@ 10057950     libeay32120:obj_dat.obj
 0002:00010960       ??_C@_0CA@FIOIBJEO@directory?5services?5?9?5algorithms?$AA@ 10057960     libeay32120:obj_dat.obj
 0002:00010980       ??_C@_03MNMMELJE@ORG?$AA@  10057980     libeay32120:obj_dat.obj
 0002:00010984       ??_C@_03MADHIGOI@org?$AA@  10057984     libeay32120:obj_dat.obj
 0002:00010988       ??_C@_03CFBOKPHF@DOD?$AA@  10057988     libeay32120:obj_dat.obj
 0002:0001098c       ??_C@_03CIOFGCAJ@dod?$AA@  1005798c     libeay32120:obj_dat.obj
 0002:00010990       ??_C@_04NMPANDAM@IANA?$AA@ 10057990     libeay32120:obj_dat.obj
 0002:00010998       ??_C@_04BAMKDBHE@iana?$AA@ 10057998     libeay32120:obj_dat.obj
 0002:000109a0       ??_C@_09ELLNFDPM@directory?$AA@ 100579a0     libeay32120:obj_dat.obj
 0002:000109ac       ??_C@_09EOAFACM@Directory?$AA@ 100579ac     libeay32120:obj_dat.obj
 0002:000109b8       ??_C@_04PFNCJACF@mgmt?$AA@ 100579b8     libeay32120:obj_dat.obj
 0002:000109c0       ??_C@_0L@ENAJINDB@Management?$AA@ 100579c0     libeay32120:obj_dat.obj
 0002:000109cc       ??_C@_0N@OJFGCCKJ@experimental?$AA@ 100579cc     libeay32120:obj_dat.obj
 0002:000109dc       ??_C@_0N@FKCIGJFM@Experimental?$AA@ 100579dc     libeay32120:obj_dat.obj
 0002:000109ec       ??_C@_07NMPLPEPB@private?$AA@ 100579ec     libeay32120:obj_dat.obj
 0002:000109f4       ??_C@_07CFINJGKH@Private?$AA@ 100579f4     libeay32120:obj_dat.obj
 0002:000109fc       ??_C@_08MBFLHJIB@security?$AA@ 100579fc     libeay32120:obj_dat.obj
 0002:00010a08       ??_C@_08EDKKPLCC@Security?$AA@ 10057a08     libeay32120:obj_dat.obj
 0002:00010a14       ??_C@_06DKHMNHOO@snmpv2?$AA@ 10057a14     libeay32120:obj_dat.obj
 0002:00010a1c       ??_C@_06JDJOGLHO@SNMPv2?$AA@ 10057a1c     libeay32120:obj_dat.obj
 0002:00010a24       ??_C@_04JEGKNAHI@Mail?$AA@ 10057a24     libeay32120:obj_dat.obj
 0002:00010a2c       ??_C@_0M@DMHOKNAD@enterprises?$AA@ 10057a2c     libeay32120:obj_dat.obj
 0002:00010a38       ??_C@_0M@CEEPHGPL@Enterprises?$AA@ 10057a38     libeay32120:obj_dat.obj
 0002:00010a44       ??_C@_08KAGHKPKK@dcobject?$AA@ 10057a44     libeay32120:obj_dat.obj
 0002:00010a50       ??_C@_08GPNKJGDG@dcObject?$AA@ 10057a50     libeay32120:obj_dat.obj
 0002:00010a5c       ??_C@_02KMHJBPDH@DC?$AA@   10057a5c     libeay32120:obj_dat.obj
 0002:00010a60       ??_C@_0BA@DMAKFKAH@domainComponent?$AA@ 10057a60     libeay32120:obj_dat.obj
 0002:00010a70       ??_C@_06LKIIGAOE@domain?$AA@ 10057a70     libeay32120:obj_dat.obj
 0002:00010a78       ??_C@_0BL@BPKKLIHO@?4?2crypto?2objects?2obj_dat?4c?$AA@ 10057a78     libeay32120:obj_dat.obj
 0002:00010a94       ??_C@_0BJ@GCGGIIFI@?4?2crypto?2asn1?2tasn_utl?4c?$AA@ 10057a94     libeay32120:tasn_utl.obj
 0002:00010ab0       ??_C@_0BJ@GIEGEKPM@?4?2crypto?2asn1?2a_object?4c?$AA@ 10057ab0     libeay32120:a_object.obj
 0002:00010acc       ??_C@_0BJ@NBKGKDKG@?4?2crypto?2asn1?2a_bitstr?4c?$AA@ 10057acc     libeay32120:a_bitstr.obj
 0002:00010ae8       ??_C@_0BG@JMNNPFBP@?4?2crypto?2asn1?2a_int?4c?$AA@ 10057ae8     libeay32120:a_int.obj
 0002:00010b00       ??_C@_0BE@LILBBPKE@OpenSSL?5ECDH?5method?$AA@ 10057b00     libeay32120:ech_ossl.obj
 0002:00010b14       ??_C@_0BJ@GOHIGCLE@?4?2crypto?2ecdh?2ech_ossl?4c?$AA@ 10057b14     libeay32120:ech_ossl.obj
 0002:00010bd0       ??_C@_0BH@IFDMNBNE@?4?2crypto?2ec?2ecp_smpl?4c?$AA@ 10057bd0     libeay32120:ecp_smpl.obj
 0002:00010be8       ??_C@_0BG@OIKAEECI@?4?2crypto?2bn?2bn_mont?4c?$AA@ 10057be8     libeay32120:bn_mont.obj
 0002:000110a8       ??_C@_0BH@JNIBJIMD@?4?2crypto?2ec?2ec2_mult?4c?$AA@ 100580a8     libeay32120:ec2_mult.obj
 0002:00011100       ??_C@_0BG@LLCNHAHB@?4?2crypto?2bn?2bn_gf2m?4c?$AA@ 10058100     libeay32120:bn_gf2m.obj
 0002:00011118       ??_C@_0CI@CGEDIBKB@RAND?5part?5of?5OpenSSL?50?49?47c?530?5S@ 10058118     libeay32120:md_rand.obj
 0002:00011140       ??_C@_0BI@MJCOAGKM@?4?2crypto?2rand?2md_rand?4c?$AA@ 10058140     libeay32120:md_rand.obj
 0002:00011158       ??_C@_0BF@KNMHCCP@?4?4?4?4?4?4?4?4?4?4?4?4?4?4?4?4?4?4?4?4?$AA@ 10058158     libeay32120:md_rand.obj
 0002:00011170       ??_C@_0EK@MHBHPLPP@You?5need?5to?5read?5the?5OpenSSL?5FAQ@ 10058170     libeay32120:md_rand.obj
 0002:000111c0       __real@4040000000000000    100581c0     libeay32120:md_rand.obj
 0002:000111cc       ??_C@_0BF@IHGKFBOP@?4?2crypto?2bn?2bn_mod?4c?$AA@ 100581cc     libeay32120:bn_mod.obj
 0002:000111e4       ??_C@_0BF@ODABJPII@?4?2crypto?2bn?2bn_gcd?4c?$AA@ 100581e4     libeay32120:bn_gcd.obj
 0002:000111fc       ??_C@_0BM@GAEJEOPM@?4?2crypto?2engine?2eng_table?4c?$AA@ 100581fc     libeay32120:eng_table.obj
 0002:00011218       ??_C@_0BK@FPJBMICP@?4?2crypto?2engine?2eng_lib?4c?$AA@ 10058218     libeay32120:eng_lib.obj
 0002:00011254       ??_C@_0BG@EDINLKND@?4?2crypto?2bn?2bn_sqrt?4c?$AA@ 10058254     libeay32120:bn_sqrt.obj
 0002:0001126c       ??_C@_0N@JJPEKNFO@ADVAPI32?4DLL?$AA@ 1005826c     libeay32120:rand_win.obj
 0002:0001127c       ??_C@_0N@NHGLKGEC@KERNEL32?4DLL?$AA@ 1005827c     libeay32120:rand_win.obj
 0002:0001128c       ??_C@_0L@NDEGIDAG@USER32?4DLL?$AA@ 1005828c     libeay32120:rand_win.obj
 0002:00011298       ??_C@_0N@HNENINMF@NETAPI32?4DLL?$AA@ 10058298     libeay32120:rand_win.obj
 0002:000112a8       ??_C@_0BB@NIBHPBJM@NetStatisticsGet?$AA@ 100582a8     libeay32120:rand_win.obj
 0002:000112bc       ??_C@_0BB@EODNGDFL@NetApiBufferFree?$AA@ 100582bc     libeay32120:rand_win.obj
 0002:000112d0       ??_C@_1CE@MINGJEKI@?$AAL?$AAa?$AAn?$AAm?$AAa?$AAn?$AAW?$AAo?$AAr?$AAk?$AAs?$AAt?$AAa?$AAt?$AAi?$AAo?$AAn?$AA?$AA@ 100582d0     libeay32120:rand_win.obj
 0002:000112f4       ??_C@_1BK@FJCAAMNP@?$AAL?$AAa?$AAn?$AAm?$AAa?$AAn?$AAS?$AAe?$AAr?$AAv?$AAe?$AAr?$AA?$AA@ 100582f4     libeay32120:rand_win.obj
 0002:00011310       ??_C@_0BF@ILOJAFDL@CryptAcquireContextA?$AA@ 10058310     libeay32120:rand_win.obj
 0002:00011328       ??_C@_0P@HGPEDCEI@CryptGenRandom?$AA@ 10058328     libeay32120:rand_win.obj
 0002:00011338       ??_C@_0BE@FBIJLPPP@CryptReleaseContext?$AA@ 10058338     libeay32120:rand_win.obj
 0002:0001134c       ??_C@_0CO@LCIEOFAN@Intel?5Hardware?5Cryptographic?5Ser@ 1005834c     libeay32120:rand_win.obj
 0002:0001137c       ??_C@_0BE@IIKKNMMA@GetForegroundWindow?$AA@ 1005837c     libeay32120:rand_win.obj
 0002:00011390       ??_C@_0O@IGNBKOOJ@GetCursorInfo?$AA@ 10058390     libeay32120:rand_win.obj
 0002:000113a0       ??_C@_0P@KCBGCFMP@GetQueueStatus?$AA@ 100583a0     libeay32120:rand_win.obj
 0002:000113b0       ??_C@_0BJ@JEFKDHMD@CreateToolhelp32Snapshot?$AA@ 100583b0     libeay32120:rand_win.obj
 0002:000113cc       ??_C@_0BI@GJJDGJIM@CloseToolhelp32Snapshot?$AA@ 100583cc     libeay32120:rand_win.obj
 0002:000113e4       ??_C@_0M@PIAPHADL@Heap32First?$AA@ 100583e4     libeay32120:rand_win.obj
 0002:000113f0       ??_C@_0L@CMGAAJA@Heap32Next?$AA@ 100583f0     libeay32120:rand_win.obj
 0002:000113fc       ??_C@_0BA@FIEIGOLO@Heap32ListFirst?$AA@ 100583fc     libeay32120:rand_win.obj
 0002:0001140c       ??_C@_0P@EPDKPNHA@Heap32ListNext?$AA@ 1005840c     libeay32120:rand_win.obj
 0002:0001141c       ??_C@_0P@ILGHDLOE@Process32First?$AA@ 1005841c     libeay32120:rand_win.obj
 0002:0001142c       ??_C@_0O@LGJLFMBH@Process32Next?$AA@ 1005842c     libeay32120:rand_win.obj
 0002:0001143c       ??_C@_0O@DHAEEPDO@Thread32First?$AA@ 1005843c     libeay32120:rand_win.obj
 0002:0001144c       ??_C@_0N@LDGMJMKG@Thread32Next?$AA@ 1005844c     libeay32120:rand_win.obj
 0002:0001145c       ??_C@_0O@CNMFJJGO@Module32First?$AA@ 1005845c     libeay32120:rand_win.obj
 0002:0001146c       ??_C@_0N@KIGOLBLC@Module32Next?$AA@ 1005846c     libeay32120:rand_win.obj
 0002:00011480       __real@4000000000000000    10058480     libeay32120:rand_win.obj
 0002:00011488       __real@4008000000000000    10058488     libeay32120:rand_win.obj
 0002:00011490       __real@4014000000000000    10058490     libeay32120:rand_win.obj
 0002:00011498       __real@4018000000000000    10058498     libeay32120:rand_win.obj
 0002:000114a0       __real@4022000000000000    100584a0     libeay32120:rand_win.obj
 0002:000114a8       __real@4031000000000000    100584a8     libeay32120:rand_win.obj
 0002:000114b0       __real@4046800000000000    100584b0     libeay32120:rand_win.obj
 0002:000114b8       __real@4050000000000000    100584b8     libeay32120:rand_win.obj
 0002:000114c0       ??_C@_0BG@COGMIJJG@?4?2crypto?2evp?2digest?4c?$AA@ 100584c0     libeay32120:digest.obj
 0002:000114d8       ??_C@_0CI@KPJFNDOF@ctx?9?$DOdigest?9?$DOmd_size?5?$DM?$DN?5EVP_MAX_@ 100584d8     libeay32120:digest.obj
 0002:000115d8       ??_C@_0BF@GGICFINI@?4?2crypto?2bn?2bn_exp?4c?$AA@ 100585d8     libeay32120:bn_exp.obj
 0002:000115f0       ??_C@_0BM@LJNAPALK@?4?2crypto?2engine?2tb_digest?4c?$AA@ 100585f0     libeay32120:tb_digest.obj
 0002:0001160c       ??_C@_0BI@PEDEDAKL@?4?2crypto?2rsa?2rsa_sign?4c?$AA@ 1005860c     libeay32120:rsa_sign.obj
 0002:00011624       ??_C@_0DF@DGNAAHIE@signature?5has?5problems?0?5re?9make?5@ 10058624     libeay32120:rsa_sign.obj
 0002:0001165c       ??_C@_0CI@GEALJIKM@SHA1?5part?5of?5OpenSSL?50?49?47c?530?5S@ 1005865c     libeay32120:sha1dgst.obj
 0002:00011684       ??_C@_0BG@KPFPNIIP@?4?2crypto?2bn?2bn_recp?4c?$AA@ 10058684     libeay32120:bn_recp.obj
 0002:000116e0       ??_C@_05CJCEEADM@algor?$AA@ 100586e0     libeay32120:x_sig.obj
 0002:000116e8       ??_C@_06IJPNAHC@digest?$AA@ 100586e8     libeay32120:x_sig.obj
 0002:000116f0       ??_C@_08DFMPDBMK@X509_SIG?$AA@ 100586f0     libeay32120:x_sig.obj
 0002:00011770       ??_C@_09DAGAJHIH@parameter?$AA@ 10058770     libeay32120:x_algor.obj
 0002:0001177c       ??_C@_0L@BFHONDPK@X509_ALGOR?$AA@ 1005877c     libeay32120:x_algor.obj
 0002:00011788       ??_C@_0L@BNOBMJFK@algorithms?$AA@ 10058788     libeay32120:x_algor.obj
 0002:00011794       ??_C@_0M@MMOLGLEG@X509_ALGORS?$AA@ 10058794     libeay32120:x_algor.obj
 0002:000117a0       __sys_errlist              100587a0     LIBCMT:syserr.obj
 0002:00011850       ??_C@_08INEPGKHH@No?5error?$AA@ 10058850     LIBCMT:syserr.obj
 0002:0001185c       ??_C@_0BI@BJFCGOHL@Operation?5not?5permitted?$AA@ 1005885c     LIBCMT:syserr.obj
 0002:00011874       ??_C@_0BK@FMDHKPNF@No?5such?5file?5or?5directory?$AA@ 10058874     LIBCMT:syserr.obj
 0002:00011890       ??_C@_0BA@FKIAIBGA@No?5such?5process?$AA@ 10058890     LIBCMT:syserr.obj
 0002:000118a0       ??_C@_0BK@FJBOAFDK@Interrupted?5function?5call?$AA@ 100588a0     LIBCMT:syserr.obj
 0002:000118bc       ??_C@_0BD@KKNFOBBD@Input?1output?5error?$AA@ 100588bc     LIBCMT:syserr.obj
 0002:000118d0       ??_C@_0BK@DPKMCKJ@No?5such?5device?5or?5address?$AA@ 100588d0     LIBCMT:syserr.obj
 0002:000118ec       ??_C@_0BC@MFFGCDFL@Arg?5list?5too?5long?$AA@ 100588ec     LIBCMT:syserr.obj
 0002:00011900       ??_C@_0BC@HKPNECK@Exec?5format?5error?$AA@ 10058900     LIBCMT:syserr.obj
 0002:00011914       ??_C@_0BE@NFGDDCEF@Bad?5file?5descriptor?$AA@ 10058914     LIBCMT:syserr.obj
 0002:00011928       ??_C@_0BD@LOHELEP@No?5child?5processes?$AA@ 10058928     LIBCMT:syserr.obj
 0002:0001193c       ??_C@_0CB@EPFKGNAK@Resource?5temporarily?5unavailable@ 1005893c     LIBCMT:syserr.obj
 0002:00011960       ??_C@_0BB@IMDKMPFB@Not?5enough?5space?$AA@ 10058960     LIBCMT:syserr.obj
 0002:00011974       ??_C@_0BC@HFNFNKAI@Permission?5denied?$AA@ 10058974     LIBCMT:syserr.obj
 0002:00011988       ??_C@_0M@LOEHLCJD@Bad?5address?$AA@ 10058988     LIBCMT:syserr.obj
 0002:00011994       ??_C@_0O@NIPGCINC@Unknown?5error?$AA@ 10058994     LIBCMT:syserr.obj
 0002:000119a4       ??_C@_0BA@BIBLIOEK@Resource?5device?$AA@ 100589a4     LIBCMT:syserr.obj
 0002:000119b4       ??_C@_0M@NAAJNNGH@File?5exists?$AA@ 100589b4     LIBCMT:syserr.obj
 0002:000119c0       ??_C@_0O@OAMDNOCP@Improper?5link?$AA@ 100589c0     LIBCMT:syserr.obj
 0002:000119d0       ??_C@_0P@NLEIANHE@No?5such?5device?$AA@ 100589d0     LIBCMT:syserr.obj
 0002:000119e0       ??_C@_0BA@CJBACOOL@Not?5a?5directory?$AA@ 100589e0     LIBCMT:syserr.obj
 0002:000119f0       ??_C@_0P@NDHGCGKE@Is?5a?5directory?$AA@ 100589f0     LIBCMT:syserr.obj
 0002:00011a00       ??_C@_0BB@HMGGCEBG@Invalid?5argument?$AA@ 10058a00     LIBCMT:syserr.obj
 0002:00011a14       ??_C@_0BO@IIFBODJE@Too?5many?5open?5files?5in?5system?$AA@ 10058a14     LIBCMT:syserr.obj
 0002:00011a34       ??_C@_0BE@INBJMKGG@Too?5many?5open?5files?$AA@ 10058a34     LIBCMT:syserr.obj
 0002:00011a48       ??_C@_0CE@ONOKNLPF@Inappropriate?5I?1O?5control?5operat@ 10058a48     LIBCMT:syserr.obj
 0002:00011a6c       ??_C@_0P@LFMMIPAE@File?5too?5large?$AA@ 10058a6c     LIBCMT:syserr.obj
 0002:00011a7c       ??_C@_0BI@FEALHKLD@No?5space?5left?5on?5device?$AA@ 10058a7c     LIBCMT:syserr.obj
 0002:00011a94       ??_C@_0N@FEHLOILP@Invalid?5seek?$AA@ 10058a94     LIBCMT:syserr.obj
 0002:00011aa4       ??_C@_0BG@DDBFNKBH@Read?9only?5file?5system?$AA@ 10058aa4     LIBCMT:syserr.obj
 0002:00011abc       ??_C@_0P@PKCJJLLM@Too?5many?5links?$AA@ 10058abc     LIBCMT:syserr.obj
 0002:00011acc       ??_C@_0M@LHEPIIOM@Broken?5pipe?$AA@ 10058acc     LIBCMT:syserr.obj
 0002:00011ad8       ??_C@_0N@MMJPGLJK@Domain?5error?$AA@ 10058ad8     LIBCMT:syserr.obj
 0002:00011ae8       ??_C@_0BB@FCBJFCAJ@Result?5too?5large?$AA@ 10058ae8     LIBCMT:syserr.obj
 0002:00011afc       ??_C@_0BK@JAEBMJJM@Resource?5deadlock?5avoided?$AA@ 10058afc     LIBCMT:syserr.obj
 0002:00011b18       ??_C@_0BC@BEDIHIDK@Filename?5too?5long?$AA@ 10058b18     LIBCMT:syserr.obj
 0002:00011b2c       ??_C@_0BD@CLHBCGPB@No?5locks?5available?$AA@ 10058b2c     LIBCMT:syserr.obj
 0002:00011b40       ??_C@_0BJ@IHEHINLI@Function?5not?5implemented?$AA@ 10058b40     LIBCMT:syserr.obj
 0002:00011b5c       ??_C@_0BE@ICMCHPHH@Directory?5not?5empty?$AA@ 10058b5c     LIBCMT:syserr.obj
 0002:00011b70       ??_C@_0BG@KLEAJEFJ@Illegal?5byte?5sequence?$AA@ 10058b70     LIBCMT:syserr.obj
 0002:00011ba8       ___dnames                  10058ba8     LIBCMT:timeset.obj
 0002:00011bc0       ___mnames                  10058bc0     LIBCMT:timeset.obj
 0002:00011be8       ??_C@_0M@HHGEPIBF@CreateFile2?$AA@ 10058be8     LIBCMT:wopen.obj
 0002:00011bf4       ??_C@_1DC@DEGGFONF@?$AAS?$AAO?$AAF?$AAT?$AAW?$AAA?$AAR?$AAE?$AA?2?$AAB?$AAr?$AAo?$AAa?$AAd?$AAc?$AAo?$AAm?$AA?2?$AA8?$AA0?$AA2?$AA?4?$AA1?$AA1?$AA?$AA@ 10058bf4     ihv_common.obj
 0002:00011c28       ??_C@_1BG@EKMJHKHH@?$AAE?$AAn?$AAa?$AAb?$AAl?$AAe?$AAW?$AAa?$AAp?$AAi?$AA?$AA@ 10058c28     ihv_common.obj
 0002:00011c40       ??_C@_1BE@NANFONAM@?$AAE?$AAn?$AAa?$AAb?$AAl?$AAe?$AAC?$AAC?$AAX?$AA?$AA@ 10058c40     ihv_common.obj
 0002:00011c54       ??_C@_1O@CFHDMFPL@?$AAV?$AA4?$AAO?$AAn?$AAl?$AAy?$AA?$AA@ 10058c54     ihv_common.obj
 0002:00011c64       ??_C@_1CK@MPCHFKIH@?$AAI?$AAs?$AAI?$AAe?$AAC?$AAo?$AAl?$AAl?$AAe?$AAc?$AAt?$AAo?$AAr?$AAE?$AAn?$AAa?$AAb?$AAl?$AAe?$AAd?$AA?$AA@ 10058c64     cihvs.obj
 0002:00011c90       ??_C@_11LOCGONAA@?$AA?$AA@ 10058c90     cihvs.obj
 0002:00011c92       ??_C@_00CNPNBAHC@?$AA@     10058c92     cihvs.obj
 0002:00011c94       ??_C@_08GDGCOGHB@dpt_wsec?$AA@ 10058c94     cihvs.obj
 0002:00011ca0       ??_C@_07KFNNADLC@dpt_pmk?$AA@ 10058ca0     cihvs.obj
 0002:00011cac       ??_7CIhvIeCollector@@6B@   10058cac     cihvs.obj
 0002:00011cd4       ?szXmlEmptyConnDoc@@3PBGB  10058cd4     CCXProfile.obj
 0002:00012540       _Sbox                      10059540     waiprot:sms4c.obj
 0002:00012640       _CK                        10059640     waiprot:sms4c.obj
 0002:000126e4       ??_C@_05DBLJEJPC@UNDEF?$AA@ 100596e4     bcmutils.obj
 0002:000126ec       ??_C@_19KLMLHLJG@?$AAN?$AAo?$AAn?$AAe?$AA?$AA@ 100596ec     DPTProfile.obj
 0002:000126f8       ??_C@_17PJMHNJHG@?$AAA?$AAE?$AAS?$AA?$AA@ 100596f8     DPTProfile.obj
 0002:00012700       ??_C@_1CC@KENOEFHJ@?$AAu?$AAs?$AAe?$AAD?$AAP?$AAT?$AAP?$AAr?$AAi?$AAv?$AAa?$AAt?$AAe?$AAK?$AAe?$AAy?$AA?$AA@ 10059700     DPTProfile.obj
 0002:00012724       ??_C@_19FKLFLPMF@?$AAt?$AAr?$AAu?$AAe?$AA?$AA@ 10059724     DPTProfile.obj
 0002:00012730       ??_C@_1BM@IEDNOGHI@?$AAD?$AAP?$AAT?$AAP?$AAr?$AAi?$AAv?$AAa?$AAt?$AAe?$AAK?$AAe?$AAy?$AA?$AA@ 10059730     DPTProfile.obj
 0002:0001274c       ??_C@_1BM@NKIAJOKH@?$AAD?$AAP?$AAT?$AAE?$AAn?$AAc?$AAr?$AAy?$AAp?$AAt?$AAi?$AAo?$AAn?$AA?$AA@ 1005974c     DPTProfile.obj
 0002:00012768       ??_C@_17HPOLHMID@?$AAD?$AAP?$AAT?$AA?$AA@ 10059768     DPTProfile.obj
 0002:00012770       ??_C@_19EHBFJDMB@?$AA?1?$AAD?$AAP?$AAT?$AA?$AA@ 10059770     DPTProfile.obj
 0002:0001277c       ??_C@_1M@HLGKFCJM@?$AAf?$AAa?$AAl?$AAs?$AAe?$AA?$AA@ 1005977c     DPTProfile.obj
 0002:00012788       ??_C@_1M@EOEFJFPG@?$AAx?$AAm?$AAl?$AAn?$AAs?$AA?$AA@ 10059788     DPTProfile.obj
 0002:00012794       ??_C@_19HHMHINIL@?$AA?$CF?$AA0?$AA2?$AAX?$AA?$AA@ 10059794     DPTProfile.obj
 0002:000127a0       ??_C@_1CO@MGCOKNGF@?$AA1?$AA2?$AA3?$AA4?$AA5?$AA6?$AA7?$AA8?$AA9?$AA0?$AAa?$AAb?$AAc?$AAd?$AAe?$AAf?$AAA?$AAB?$AAC?$AAD?$AAE?$AAF?$AA?$AA@ 100597a0     DPTProfile.obj
 0002:000127d0       ??_C@_15MFNECGOC@?$AA?$DM?$AA?1?$AA?$AA@ 100597d0     DPTProfile.obj
 0002:000127d8       ??_C@_13MOEPKPHB@?$AA?$DO?$AA?$AA@ 100597d8     DPTProfile.obj
 0002:000127dc       __GUID_2933bf81_7b36_11d2_b20e_00c04f983e60 100597dc     DPTProfile.obj
 0002:000127ec       __GUID_2933bf90_7b36_11d2_b20e_00c04f983e60 100597ec     DPTProfile.obj
 0002:000127fc       ??_C@_1BK@GPLBLCAF@?$AAD?$AAP?$AAT?$AAG?$AAl?$AAo?$AAb?$AAa?$AAl?$AAK?$AAe?$AAy?$AA?$AA@ 100597fc     DPTUtils.obj
 0002:00012818       ??_C@_17JPEHGDF@?$AAP?$AAS?$AAK?$AA?$AA@ 10059818     CCXProfile.obj
 0002:00012820       ??_C@_1BG@CEPBJHAK@?$AAC?$AAe?$AAr?$AAt?$AAH?$AAa?$AAs?$AAh?$AAI?$AAd?$AA?$AA@ 10059820     CCXProfile.obj
 0002:00012838       ??_C@_19BDAJEHDN@?$AAo?$AAp?$AAe?$AAn?$AA?$AA@ 10059838     CCXProfile.obj
 0002:00012844       ??_C@_19NDLOFPOF@?$AAc?$AAc?$AAk?$AAm?$AA?$AA@ 10059844     CCXProfile.obj
 0002:00012850       ??_C@_17LEPACFLI@?$AAw?$AAp?$AAa?$AA?$AA@ 10059850     CCXProfile.obj
 0002:00012858       ??_C@_19DNDKHECN@?$AAw?$AAp?$AAa?$AA2?$AA?$AA@ 10059858     CCXProfile.obj
 0002:00012864       ??_C@_19FJKNBMAF@?$AAw?$AAa?$AAp?$AAi?$AA?$AA@ 10059864     CCXProfile.obj
 0002:00012870       ??_C@_1BA@OEHAKBCK@?$AAw?$AAa?$AAp?$AAi?$AAp?$AAs?$AAk?$AA?$AA@ 10059870     CCXProfile.obj
 0002:00012880       ??_C@_17FBKGEODE@?$AAW?$AAE?$AAP?$AA?$AA@ 10059880     CCXProfile.obj
 0002:00012888       ??_C@_19DLCHDLAG@?$AAT?$AAK?$AAI?$AAP?$AA?$AA@ 10059888     CCXProfile.obj
 0002:00012894       ??_C@_19JJNGIFB@?$AAS?$AAM?$AAS?$AA4?$AA?$AA@ 10059894     CCXProfile.obj
 0002:000128a0       ??_C@_1BI@EGLGMNII@?$AA?$DM?$AAB?$AAr?$AAo?$AAa?$AAd?$AAc?$AAo?$AAm?$AA?1?$AA?$DO?$AA?$AA@ 100598a0     CCXProfile.obj
 0002:000128b8       ??_C@_1O@PNNKFKAA@?$AA?$DM?$AAC?$AAC?$AAX?$AA?1?$AA?$DO?$AA?$AA@ 100598b8     CCXProfile.obj
 0002:000128c8       ??_C@_1BC@KAEDDHJA@?$AAB?$AAr?$AAo?$AAa?$AAd?$AAc?$AAo?$AAm?$AA?$AA@ 100598c8     CCXProfile.obj
 0002:000128dc       ??_C@_17LKLKLKBH@?$AAC?$AAC?$AAX?$AA?$AA@ 100598dc     CCXProfile.obj
 0002:000128e4       ??_C@_1BI@OADCJAOH@?$AAo?$AAp?$AAe?$AAn?$AAN?$AAe?$AAt?$AAw?$AAo?$AAr?$AAk?$AA?$AA@ 100598e4     CCXProfile.obj
 0002:000128fc       ??_C@_1CM@LGDGFNDJ@?$AAa?$AAu?$AAt?$AAh?$AAe?$AAn?$AAt?$AAi?$AAc?$AAa?$AAt?$AAi?$AAn?$AAg?$AAN?$AAe?$AAt?$AAw?$AAo?$AAr?$AAk?$AA?$AA@ 100598fc     CCXProfile.obj
 0002:00012928       ??_C@_1CC@NPADAOEA@?$AAs?$AAh?$AAa?$AAr?$AAe?$AAd?$AAK?$AAe?$AAy?$AAN?$AAe?$AAt?$AAw?$AAo?$AAr?$AAk?$AA?$AA@ 10059928     CCXProfile.obj
 0002:0001294c       ??_C@_1BG@EPNHFONF@?$AAe?$AAn?$AAc?$AAr?$AAy?$AAp?$AAt?$AAi?$AAo?$AAn?$AA?$AA@ 1005994c     CCXProfile.obj
 0002:00012964       ??_C@_1BG@IMHBEDDM@?$AAc?$AAr?$AAe?$AAd?$AAe?$AAn?$AAt?$AAi?$AAa?$AAl?$AA?$AA@ 10059964     CCXProfile.obj
 0002:0001297c       ??_C@_1BE@PJHKNDNO@?$AAp?$AAr?$AAo?$AAt?$AAe?$AAc?$AAt?$AAe?$AAd?$AA?$AA@ 1005997c     CCXProfile.obj
 0002:00012990       ??_C@_19FHBCDCCA@?$AAt?$AAy?$AAp?$AAe?$AA?$AA@ 10059990     CCXProfile.obj
 0002:0001299c       ??_C@_19MLBBEMBH@?$AAd?$AAa?$AAt?$AAa?$AA?$AA@ 1005999c     CCXProfile.obj
 0002:000129a8       ??_C@_17KCFFABIP@?$AAa?$AAn?$AAy?$AA?$AA@ 100599a8     CCXProfile.obj
 0002:000129b0       ??_C@_1CG@JIGKPIAM@?$AAD?$AAi?$AAa?$AAg?$AAn?$AAo?$AAs?$AAt?$AAi?$AAc?$AA?5?$AAC?$AAh?$AAa?$AAn?$AAn?$AAe?$AAl?$AA?$AA@ 100599b0     CCXProfile.obj
 0002:000129d8       ??_C@_19ICEEFFFF@?$AA?1?$AAC?$AAC?$AAX?$AA?$AA@ 100599d8     CCXProfile.obj
 0002:000129e4       ??_C@_1CE@HFDBFCLM@?$AA?1?$AAR?$AAa?$AAd?$AAi?$AAo?$AAM?$AAe?$AAa?$AAs?$AAu?$AAr?$AAe?$AAm?$AAe?$AAn?$AAt?$AA?$AA@ 100599e4     CCXProfile.obj
 0002:00012a08       ??_C@_1CC@GLBFNMPN@?$AAR?$AAa?$AAd?$AAi?$AAo?$AAM?$AAe?$AAa?$AAs?$AAu?$AAr?$AAe?$AAm?$AAe?$AAn?$AAt?$AA?$AA@ 10059a08     CCXProfile.obj
 0002:00012a2c       ??_C@_1BC@LGPIFEA@?$AAd?$AAi?$AAs?$AAa?$AAb?$AAl?$AAe?$AAd?$AA?$AA@ 10059a2c     CCXProfile.obj
 0002:00012a40       ??_C@_1BA@BKMGIBPB@?$AAe?$AAn?$AAa?$AAb?$AAl?$AAe?$AAd?$AA?$AA@ 10059a40     CCXProfile.obj
 0002:00012a50       ??_C@_1DK@HFGNELOO@?$AAd?$AAi?$AAs?$AAa?$AAb?$AAl?$AAe?$AAL?$AAo?$AAc?$AAa?$AAt?$AAi?$AAo?$AAn?$AAB?$AAa?$AAs?$AAe?$AAd?$AAS?$AAe?$AAr?$AAv?$AAi?$AAc?$AAe?$AAs?$AA?$AA@ 10059a50     CCXProfile.obj
 0002:00012a8c       ??_C@_1CI@FMHKELII@?$AAM?$AAa?$AAx?$AAO?$AAf?$AAf?$AAC?$AAh?$AAa?$AAn?$AAn?$AAe?$AAl?$AAT?$AAi?$AAm?$AAe?$AAM?$AAs?$AA?$AA@ 10059a8c     CCXProfile.obj
 0002:00012ab4       ??_C@_1CG@BKLHHPEF@?$AAM?$AAi?$AAn?$AAO?$AAn?$AAC?$AAh?$AAa?$AAn?$AAn?$AAe?$AAl?$AAT?$AAi?$AAm?$AAe?$AAM?$AAs?$AA?$AA@ 10059ab4     CCXProfile.obj
 0002:00012adc       ??_C@_1CA@OEOOIBBJ@?$AA?1?$AAK?$AAe?$AAe?$AAp?$AAA?$AAl?$AAi?$AAv?$AAe?$AAT?$AAi?$AAm?$AAe?$AAr?$AA?$AA@ 10059adc     CCXProfile.obj
 0002:00012afc       ??_C@_1BO@JMNDBBBC@?$AAK?$AAe?$AAe?$AAp?$AAA?$AAl?$AAi?$AAv?$AAe?$AAT?$AAi?$AAm?$AAe?$AAr?$AA?$AA@ 10059afc     CCXProfile.obj
 0002:00012b1c       ??_C@_1O@MJEAGFFD@?$AAP?$AAe?$AAr?$AAi?$AAo?$AAd?$AA?$AA@ 10059b1c     CCXProfile.obj
 0002:00012b2c       ??_C@_1CK@PHPPAOBG@?$AA?1?$AAD?$AAi?$AAa?$AAg?$AAn?$AAo?$AAs?$AAt?$AAi?$AAc?$AAs?$AA?1?$AAC?$AAh?$AAa?$AAn?$AAn?$AAe?$AAl?$AA?$AA@ 10059b2c     CCXProfile.obj
 0002:00012b58       ??_C@_1BC@GJMLKOJP@?$AAS?$AAS?$AAI?$AAD?$AA?1?$AAH?$AAe?$AAx?$AA?$AA@ 10059b58     CCXProfile.obj
 0002:00012b6c       ??_C@_1BE@BBAAJLFF@?$AAS?$AAS?$AAI?$AAD?$AA?1?$AAN?$AAa?$AAm?$AAe?$AA?$AA@ 10059b6c     CCXProfile.obj
 0002:00012b80       ??_C@_1CM@HIDJEJNH@?$AAE?$AAn?$AAa?$AAb?$AAl?$AAe?$AAC?$AAl?$AAi?$AAe?$AAn?$AAt?$AAR?$AAe?$AAp?$AAo?$AAr?$AAt?$AAi?$AAn?$AAg?$AA?$AA@ 10059b80     CCXProfile.obj
 0002:00012bac       ??_C@_1DO@OABJNOHB@?$AA?1?$AAD?$AAi?$AAa?$AAg?$AAn?$AAo?$AAs?$AAt?$AAi?$AAc?$AAs?$AA?1?$AAA?$AAu?$AAt?$AAh?$AAo?$AAr?$AAi?$AAz?$AAe?$AAd?$AAP?$AAr?$AAo?$AAf?$AAi?$AAl?$AAe?$AA?$AA@ 10059bac     CCXProfile.obj
 0002:00012bec       ??_C@_1CE@NPLKMCGI@?$AAA?$AAu?$AAt?$AAh?$AAo?$AAr?$AAi?$AAz?$AAe?$AAd?$AAP?$AAr?$AAo?$AAf?$AAi?$AAl?$AAe?$AA?$AA@ 10059bec     CCXProfile.obj
 0002:00012c10       ??_C@_1BI@OEGKFEJN@?$AAD?$AAi?$AAa?$AAg?$AAn?$AAo?$AAs?$AAt?$AAi?$AAc?$AAs?$AA?$AA@ 10059c10     CCXProfile.obj
 0002:00012c28       ??_C@_1BA@DLAHBHMC@?$AAC?$AAh?$AAa?$AAn?$AAn?$AAe?$AAl?$AA?$AA@ 10059c28     CCXProfile.obj
 0002:00012c38       ??_C@_19KJNOMKCJ@?$AAS?$AAS?$AAI?$AAD?$AA?$AA@ 10059c38     CCXProfile.obj
 0002:00012c44       ??_C@_17JGBHOPFE@?$AAH?$AAe?$AAx?$AA?$AA@ 10059c44     CCXProfile.obj
 0002:00012c6c       ??_C@_19EIBINHIL@?$AAW?$AAA?$AAP?$AAI?$AA?$AA@ 10059c6c     ihvwapi.obj
 0002:00012c78       ??_C@_1EK@GBOJGIFA@?$AAA?$AAF?$AA1?$AA8?$AA8?$AA9?$AA5?$AA9?$AA?9?$AAC?$AAF?$AAF?$AAC?$AA?9?$AA4?$AA9?$AA8?$AAc?$AA?9?$AA9?$AAE?$AA7?$AA8?$AA?9?$AAF?$AA5?$AA6?$AAC?$AAC?$AA6?$AA3?$AA8@ 10059c78     ihvwapi.obj
 0002:00012cc4       ??_C@_08BOIACOOE@wsec_key?$AA@ 10059cc4     ihvwapi.obj
 0002:00012cd0       ??_C@_06GIIECFNA@wapiie?$AA@ 10059cd0     ihvwapi.obj
 0002:00012cd8       ??_C@_1O@HECGKAIN@?$AAS?$AAH?$AAA?$AA2?$AA5?$AA6?$AA?$AA@ 10059cd8     wapiwin.obj
 0002:00012ce8       ??_C@_1BK@GPNIFMAA@?$AAO?$AAb?$AAj?$AAe?$AAc?$AAt?$AAL?$AAe?$AAn?$AAg?$AAt?$AAh?$AA?$AA@ 10059ce8     wapiwin.obj
 0002:00012d04       ??_C@_1CC@DMMMEHOM@?$AAH?$AAa?$AAs?$AAh?$AAD?$AAi?$AAg?$AAe?$AAs?$AAt?$AAL?$AAe?$AAn?$AAg?$AAt?$AAh?$AA?$AA@ 10059d04     wapiwin.obj
 0002:00012d28       ??_C@_0BE@DMFHOLLM@1?42?4156?411235?41?41?41?$AA@ 10059d28     wapiwin.obj
 0002:00012d3c       ??_C@_1CA@KDLJPMJH@?$AAS?$AAH?$AAA?$AA2?$AA5?$AA6?$AA_?$AAE?$AAC?$AAD?$AAS?$AAA?$AA1?$AA9?$AA2?$AA?$AA@ 10059d3c     wapiwin.obj
 0002:00012d5c       ??_C@_1BM@HFKJNGID@?$AAE?$AAC?$AAC?$AAP?$AAU?$AAB?$AAL?$AAI?$AAC?$AAB?$AAL?$AAO?$AAB?$AA?$AA@ 10059d5c     wapiwin.obj
 0002:00012d78       ??_C@_1BO@FJIIMLFF@?$AAS?$AAH?$AAA?$AA2?$AA5?$AA6?$AA_?$AAE?$AAC?$AAD?$AAH?$AA1?$AA9?$AA2?$AA?$AA@ 10059d78     wapiwin.obj
 0002:00012d98       ??_C@_1BO@NKCKBDL@?$AAE?$AAC?$AAC?$AAP?$AAR?$AAI?$AAV?$AAA?$AAT?$AAE?$AAB?$AAL?$AAO?$AAB?$AA?$AA@ 10059d98     wapiwin.obj
 0002:00012db8       _DEVPKEY_Broadcom_IeInfoBlob 10059db8     IeCollector.obj
 0002:00012dcc       __DEVPKEY_WiFiDirect_DeviceAddress 10059dcc     IeCollector.obj
 0002:00012dcc       __PKEY_WiFiDirect_DeviceAddress 10059dcc     NotifyWfdDevicePaired.obj
 0002:00012de0       ??_C@_07DLCNOHEJ@p2p_dev?$AA@ 10059de0     IhvIeCollector.obj
 0002:00012de8       ??_C@_0L@CJGEPCNA@event_msgs?$AA@ 10059de8     IhvIeCollector.obj
 0002:00012df8       ??_7CFDWfdDevicePaired@@6B@ 10059df8     IhvIeCollector.obj
 0002:00012e14       __GUID_00000000_0000_0000_c000_000000000046 10059e14     IhvIeCollector.obj
 0002:00012e24       __GUID_5f6c1ba8_5330_422e_a368_572b244d3f87 10059e24     IhvIeCollector.obj
 0002:00012e34       ??_C@_1DI@KKHDNHI@?$AAP?$AAr?$AAo?$AAv?$AAi?$AAd?$AAe?$AAr?$AA?2?$AAM?$AAi?$AAc?$AAr?$AAo?$AAs?$AAo?$AAf?$AAt?$AA?4?$AAB?$AAa?$AAs?$AAe?$AA?4?$AAP?$AAn?$AAP?$AA?$AA@ 10059e34     NotifyWfdDevicePaired.obj
 0002:00012e6c       ??_C@_19ELAAHEEL@?$AAT?$AAR?$AAU?$AAE?$AA?$AA@ 10059e6c     NotifyWfdDevicePaired.obj
 0002:00012e78       ??_C@_1BG@CNGGOABK@?$AAN?$AAo?$AAt?$AAi?$AAf?$AAy?$AAO?$AAn?$AAl?$AAy?$AA?$AA@ 10059e78     NotifyWfdDevicePaired.obj
 0002:00012e90       ??_C@_06GCJDCAIB@?$AA?$AA?$AA?$AA?$AA?$AA?$AA@ 10059e90     waiprot:interface.obj
 0002:00012e98       ??_C@_0DP@OEHPIDIO@preshared?5key?5expansion?5for?5auth@ 10059e98     waiprot:interface.obj
 0002:00012ed8       ??_C@_0BC@BDFNABHD@1?42?4840?410045?42?41?$AA@ 10059ed8     waiprot:cert.obj
 0002:00012eec       ??_C@_0CE@KLFDJGOI@?4?4?2?4?4?2?4?4?2asue?2libiwnwai_asue?2cer@ 10059eec     waiprot:cert.obj
 0002:00012f10       ??_C@_0CB@INNEPKBA@iwn_x509_get_pubkey?3?5?8?$CFs?8?0?5?8?$CFd?8?5@ 10059f10     waiprot:cert.obj
 0002:00012f34       ??_C@_0CN@OAFJACNF@iwn_x509_get_pubkey?3?5tmp?5?$DN?5?8?$CFd?8?0@ 10059f34     waiprot:cert.obj
 0002:00012f64       ??_C@_0BO@IGHODCAL@iwn_x509_get_sign_inlen?3?5?8?$CFd?8?$AA@ 10059f64     waiprot:cert.obj
 0002:00012f84       ??_C@_0BC@IOJLPAEH@cert_obj_register?$AA@ 10059f84     waiprot:cert.obj
 0002:00012f98       ??_C@_0DB@NJCPNDPD@?$CFs?3?5certificate?5?$CFs?5has?5an?5invali@ 10059f98     waiprot:cert.obj
 0002:00012fd0       ??_C@_0EA@JKEKPBHK@?$CFs?3?5certificate?5object?5?$CFs?5regist@ 10059fd0     waiprot:cert.obj
 0002:00013010       ??_C@_0BE@NHKBNPJJ@cert_obj_unregister?$AA@ 1005a010     waiprot:cert.obj
 0002:00013024       ??_C@_0BG@OHDIPMDJ@cert_obj?5address?5?7?$CFp?6?$AA@ 1005a024     waiprot:cert.obj
 0002:0001303c       ??_C@_0BC@DJFDIDAA@obj?5address?5?7?7?$CFp?6?$AA@ 1005a03c     waiprot:cert.obj
 0002:00013050       ??_C@_0BB@GMEABPIJ@x509_verify_cert?$AA@ 1005a050     waiprot:cert.obj
 0002:00013064       ??_C@_0CF@LADMOLAF@in?5?$CFs?5X509_verify?$CIasu_cert?$CJ?5fail@ 1005a064     waiprot:cert.obj
 0002:0001308c       ??_C@_0CG@FGMHIBOJ@in?5?$CFs?5X509_verify?$CIuser_cert?$CJ?5fai@ 1005a08c     waiprot:cert.obj
 0002:000130b4       ??_C@_09EBDBBNOP@init_cert?$AA@ 1005a0b4     waiprot:cert.obj
 0002:000130c0       ??_C@_0BI@NHPOHMMF@WPA?3?5in?5?$CFs?3?$CFd?0length?$DN?$CFd?$AA@ 1005a0c0     waiprot:cert.obj
 0002:000130d8       ??_C@_06GBLGFGKM@x509v3?$AA@ 1005a0d8     waiprot:cert.obj
 0002:000130e0       ??_C@_0P@FMFLFCHF@iwn_wpa_defrag?$AA@ 1005a0e0     waiprot:wapi.obj
 0002:000130f0       ??_C@_0O@PINILLNO@WPA?3?5in?5?$CFs?3?$CFd?$AA@ 1005a0f0     waiprot:wapi.obj
 0002:00013100       ??_C@_0CB@JNGMABLJ@WPA?3?5WAI?5frame?5too?5short?0?5len?5?$CFd@ 1005a100     waiprot:wapi.obj
 0002:00013124       ??_C@_0CE@FDNCMENG@WPA?3?5WAI?5frame?5Version?$CI?$CFu?$CJ?5is?5wr@ 1005a124     waiprot:wapi.obj
 0002:00013148       ??_C@_0CB@JAPJMGAO@WPA?3?5WAI?5frame?5type?$CI?$CFu?$CJ?5is?5wrong@ 1005a148     waiprot:wapi.obj
 0002:0001316c       ??_C@_0CD@CPAOCIJD@WPA?3?5WAI?5frame?5stype?$CI?$CFu?$CJ?5is?5wron@ 1005a16c     waiprot:wapi.obj
 0002:00013190       ??_C@_0CD@FHDDMBOO@WPA?3?5WAI?5frame?5length?$CI?$CFu?$CJ?5is?5wro@ 1005a190     waiprot:wapi.obj
 0002:000131b4       ??_C@_0CH@FAGNNKBB@WPA?3?5WAI?5frame?5packets_sc?$CI?$CFu?$CJ?5is@ 1005a1b4     waiprot:wapi.obj
 0002:000131dc       ??_C@_05BDPEGNHG@addid?$AA@ 1005a1dc     waiprot:wapi.obj
 0002:000131e8       ??_C@_0EK@EFPOPCHK@bssid?$DN?$CF02x?3?$CF02x?3?$CF02x?3?$CF02x?3?$CF02x?3?$CF@ 1005a1e8     waiprot:wapi.obj
 0002:00013234       ??_C@_0BM@CEOAAEMP@iwn_wai_fixdata_id_by_ident?$AA@ 1005a234     waiprot:wapi.obj
 0002:00013250       ??_C@_0DA@EBDPEOCK@base?5key?5expansion?5for?5key?5and?5a@ 1005a250     waiprot:wapi.obj
 0002:00013280       ??_C@_0BL@GEFNHNNE@asue_certauthbk_derivation?$AA@ 1005a280     waiprot:wapi.obj
 0002:0001329c       ??_C@_0DA@NKANDACI@asue_certauthbk_derivation?5ECHD?5@ 1005a29c     waiprot:wapi.obj
 0002:000132cc       ??_C@_0CD@BNINKMDE@wpa_s?9?$DOwapi_state?5?$DMWAPISM_AL_ASS@ 1005a2cc     waiprot:wapi.obj
 0002:000132f0       ??_C@_07BCNEMDBD@No?5cert?$AA@ 1005a2f0     waiprot:wapi.obj
 0002:000132f8       ??_C@_0BI@GDGJGLGE@WPA?3?5WAI?5frame?5is?5wrong?$AA@ 1005a2f8     waiprot:wapi.obj
 0002:00013310       ??_C@_0DH@LDLNDJM@iwn_wapi_sm_rx_wai?5?5plen?5?$DN?5?8?$CFd?8?0@ 1005a310     waiprot:wapi.obj
 0002:00013348       ??_C@_0CD@OFHNNNHG@WPA?3?5receive?5ignore?5frame?5stype?5@ 1005a348     waiprot:wapi.obj
 0002:0001336c       ??_C@_0CC@DFBHFFCE@WPA?3?5receive?5error?5frame?5stype?5?$CF@ 1005a36c     waiprot:wapi.obj
 0002:00013390       ??_C@_0CE@INDBCDMP@WPA?3?5receive?5unknown?5frame?5stype@ 1005a390     waiprot:wapi.obj
 0002:000133b4       ??_C@_0BC@CGEMKMCK@waigroup_cert_1_3?$AA@ 1005a3b4     waiprot:wapi.obj
 0002:000133c8       ??_C@_0CB@FJEKEKCP@WPA?3?5WAI?5frame?5payload?5too?5short@ 1005a3c8     waiprot:wapi.obj
 0002:000133ec       ??_C@_0BN@MHHCFLGB@WPA?3?5ae_auth_flag?5not?5same?$CB?6?$AA@ 1005a3ec     waiprot:wapi.obj
 0002:0001340c       ??_C@_0BH@DJFDFNI@waigroup_cert_2_3_send?$AA@ 1005a40c     waiprot:wapi.obj
 0002:00013424       ??_C@_0BN@BFNJJIEP@WPA?3?5in?5?$CFs?3?$CFd?0wpa_s?9?$DOflag?$DN?$CFd?$AA@ 1005a424     waiprot:wapi.obj
 0002:00013444       ??_C@_0BL@FHIDGHBF@WPA?3?5in?5?$CFs?3?$CFd?0used_cert?$DN?$CFd?$AA@ 1005a444     waiprot:wapi.obj
 0002:00013460       ??_C@_0CE@MGNCPPNL@fail?5to?5sign?5data?5and?5will?5exit?5@ 1005a460     waiprot:wapi.obj
 0002:00013484       ??_C@_0BC@IMEFGEKB@waigroup_cert_3_3?$AA@ 1005a484     waiprot:wapi.obj
 0002:00013498       ??_C@_0BG@FMHHHJMG@WPA?3?5in?5?$CFs?3?$CFd?0flag?$DN?$CFd?$AA@ 1005a498     waiprot:wapi.obj
 0002:000134b0       ??_C@_0DB@CNAEMNEH@WPA?3?5in?5?$CFs?3?$CFd?0wpa_s?9?$DOflag?$DN?$CFd?0?$CIfl@ 1005a4b0     waiprot:wapi.obj
 0002:000134e4       ??_C@_0DB@OBKOMNNJ@WPA?3?5in?5?$CFs?3?$CFd?0wpa_s?9?$DOflag?$DN?$CFd?0?$CIfl@ 1005a4e4     waiprot:wapi.obj
 0002:00013518       ??_C@_0BN@KMCMBKBB@WPA?3?5not?5same?5flag?5bit?50?01?$CB?6?$AA@ 1005a518     waiprot:wapi.obj
 0002:00013538       ??_C@_0BG@JHOLFDEL@WPA?3?5not?5same?5Nasue?$CB?6?$AA@ 1005a538     waiprot:wapi.obj
 0002:00013550       ??_C@_0EK@DOLNEOJC@WPA?3?5not?5same?5asue?5key?5data?$CB?0asu@ 1005a550     waiprot:wapi.obj
 0002:0001359c       ??_C@_0BG@NEEEGABN@WPA?3?5not?5same?5ae?5id?$CB?6?$AA@ 1005a59c     waiprot:wapi.obj
 0002:000135b4       ??_C@_05JLODLGG@ae_id?$AA@ 1005a5b4     waiprot:wapi.obj
 0002:000135bc       ??_C@_0N@NOIBOFMK@wpa_s?9?$DOae_id?$AA@ 1005a5bc     waiprot:wapi.obj
 0002:000135cc       ??_C@_0DE@PLPMJFJM@WPA?3?5in?5?$CFs?3?$CFd?0request_len?$DN?$CFd?0wpa@ 1005a5cc     waiprot:wapi.obj
 0002:00013600       ??_C@_0BI@FDLBGKLC@WPA?3?5not?5same?5asue?5id?$CB?6?$AA@ 1005a600     waiprot:wapi.obj
 0002:00013618       ??_C@_0DG@NOJODAHH@WPA?3?5in?5?$CFs?3?$CFd?0request_len?$DN?$CFd?0wpa@ 1005a618     waiprot:wapi.obj
 0002:00013650       ??_C@_0CK@GAACLFGD@WPA?3?5in?5?$CFs?3?$CFd?0iwn_eloop?4asue_id?4@ 1005a650     waiprot:wapi.obj
 0002:0001367c       ??_C@_0BM@HEJBIGGD@cert?5result?5flag?5is?5not?52?$CB?6?$AA@ 1005a67c     waiprot:wapi.obj
 0002:00013698       ??_C@_0BJ@HHHGMPDM@cert?5result?5?5is?5not?5ok?$CB?6?$AA@ 1005a698     waiprot:wapi.obj
 0002:000136b4       ??_C@_0N@CCOOEIDD@pubkey?9?$DOdata?$AA@ 1005a6b4     waiprot:wapi.obj
 0002:000136c4       ??_C@_08DOCMGFMJ@cert_res?$AA@ 1005a6c4     waiprot:wapi.obj
 0002:000136d0       ??_C@_08HNADBEHB@asu_sign?$AA@ 1005a6d0     waiprot:wapi.obj
 0002:000136dc       ??_C@_0BD@HCFDMEAH@ASU?5sign?5error?$CB?$CB?$CB?6?$AA@ 1005a6dc     waiprot:wapi.obj
 0002:000136f0       ??_C@_0CE@CBALMNAD@WPA?3?5in?5?$CFs?3?$CFd?0request_len?$DN?$CFd?0len@ 1005a6f0     waiprot:wapi.obj
 0002:00013714       ??_C@_0CE@LNGIOJEE@WPA?3?5in?5?$CFs?3?$CFd?0wpa_s?9?$DOae_cert?4len@ 1005a714     waiprot:wapi.obj
 0002:00013738       ??_C@_0BC@GJIMAALD@AE?5sign?5error?$CB?$CB?$CB?6?$AA@ 1005a738     waiprot:wapi.obj
 0002:0001374c       ??_C@_0BF@DGIPHOGO@waigroup_unicast_1_3?$AA@ 1005a74c     waiprot:wapi.obj
 0002:00013764       ??_C@_0CK@OFGKDHKH@WPA?3?5WAI?5frame?5payload?5too?5short@ 1005a764     waiprot:wapi.obj
 0002:00013790       ??_C@_0BD@PJBDKDG@WPA?3?5BKID?5is?5wrong?$AA@ 1005a790     waiprot:wapi.obj
 0002:000137a4       ??_C@_07OLANFFFG@AE?5BKID?$AA@ 1005a7a4     waiprot:wapi.obj
 0002:000137ac       ??_C@_09KPPDMMLF@ASUE?5BKID?$AA@ 1005a7ac     waiprot:wapi.obj
 0002:000137b8       ??_C@_07GBCGDPOM@ASUE?5BK?$AA@ 1005a7b8     waiprot:wapi.obj
 0002:000137c0       ??_C@_0BL@PHNHJJHK@WPA?3?5USKID?5?5is?5not?5invalid?$AA@ 1005a7c0     waiprot:wapi.obj
 0002:000137dc       ??_C@_0N@FFGKGHEM@ae_challenge?$AA@ 1005a7dc     waiprot:wapi.obj
 0002:000137ec       ??_C@_0BE@OFLIMKKB@WPA?3?5malloc?5failure?$AA@ 1005a7ec     waiprot:wapi.obj
 0002:00013800       ??_C@_0EB@FIKGLGCJ@pairwise?5key?5expansion?5for?5unica@ 1005a800     waiprot:wapi.obj
 0002:00013844       ??_C@_0BK@PLJAIAAL@waigroup_unicast_2_3_send?$AA@ 1005a844     waiprot:wapi.obj
 0002:00013860       ??_C@_0BF@JMIGLGOF@waigroup_unicast_3_3?$AA@ 1005a860     waiprot:wapi.obj
 0002:00013878       ??_C@_08PCMGBLNL@AE?8s?5IE?5?$AA@ 1005a878     waiprot:wapi.obj
 0002:00013884       ??_C@_0L@MLIBFGIA@ASUE?8s?5IE?5?$AA@ 1005a884     waiprot:wapi.obj
 0002:00013890       ??_C@_0BL@KAJPFEBO@in?5?$CFs?5install?5usk?5failure?6?$AA@ 1005a890     waiprot:wapi.obj
 0002:000138ac       ??_C@_0BH@KJNFLBGM@waigroup_multicast_1_2?$AA@ 1005a8ac     waiprot:wapi.obj
 0002:000138c4       ??_C@_0CK@JKAJNPBI@WPA?3?5STAKEY_NEG?5?5is?5not?5supptabl@ 1005a8c4     waiprot:wapi.obj
 0002:000138f0       ??_C@_0BF@LDBBOHKC@WPA?3?5ADDID?5?5is?5wrong?$AA@ 1005a8f0     waiprot:wapi.obj
 0002:00013908       ??_C@_0CJ@HJHDIBLF@WPA?3?5Key?5annoucement?5identfier?5?5@ 1005a908     waiprot:wapi.obj
 0002:00013934       ??_C@_0CF@COIEDDHI@WPA?3?5Key?5annoucement?5uskid?5?5is?5w@ 1005a934     waiprot:wapi.obj
 0002:0001395c       ??_C@_0DC@PAKAIBKF@WPA?3?5Multicast?5?5announcement?5pac@ 1005a95c     waiprot:wapi.obj
 0002:00013990       ??_C@_0FD@HHMGDLDH@multicast?5or?5station?5key?5expansi@ 1005a990     waiprot:wapi.obj
 0002:000139e4       ??_C@_0BM@DIIMBAII@waigroup_multicast_2_2_send?$AA@ 1005a9e4     waiprot:wapi.obj
 0002:00013a00       ??_C@_0BL@EOJLCBKJ@in?5?$CFs?5install?5msk?5failure?6?$AA@ 1005aa00     waiprot:wapi.obj
 0002:00013a1c       ??_C@_0CF@OPCGLKFF@WPA?3?5Failed?5to?5set?5PTK?5to?5the?5dr@ 1005aa1c     waiprot:wapi.obj
 0002:00013a44       ??_C@_0CG@NFKOCLLM@WPA?3?5Failed?5to?5set?5MSK?5to?5the?5dr@ 1005aa44     waiprot:wapi.obj
 0002:00013a6c       ??_C@_01EEMJAFIK@?6?$AA@   1005aa6c     waiprot:common.obj
 0002:00013a70       ??_C@_0BC@PFDMEHPK@?6?$CFs?$CIlen?$DN?$CFd?00x?$CFX?$CJ?6?$AA@ 1005aa70     waiprot:common.obj
 0002:00013a84       ??_C@_06DFGBAJLF@?$CF?44X?5?5?$AA@ 1005aa84     waiprot:common.obj
 0002:00013a8c       ??_C@_04CFJMJGDJ@?$CF?42X?$AA@ 1005aa8c     waiprot:common.obj
 0002:00013a94       ??_C@_02KNHHEEKP@?5?5?$AA@ 1005aa94     waiprot:common.obj
 0002:00013a98       ??_C@_01CLKCMJKC@?5?$AA@   1005aa98     waiprot:common.obj
 0002:00013a9c       ??_C@_02PHMGELLB@?6?6?$AA@ 1005aa9c     waiprot:common.obj
 0002:00013aa0       ??_C@_0L@FBKEPNLA@123456abcd?$AA@ 1005aaa0     waiprot:common.obj
 0002:00013aac       ??_C@_0BI@LAOGADOI@ecc192_sign?5call?5fail?5?6?$AA@ 1005aaac     waiprot:common.obj
 0002:00013ac4       ??_C@_0BK@IBABMCNF@ecc192_verify?5call?5fail?5?6?$AA@ 1005aac4     waiprot:common.obj
 0002:00013ae0       ??_C@_1BE@EMELPOLH@?$AAI?$AAm?$AAp?$AAl?$AA?5?$AAT?$AAy?$AAp?$AAe?$AA?$AA@ 1005aae0     IHVCngLib:bwcgksp.obj
 0002:00013af4       ??_C@_1CA@MLJKCPHF@?$AAM?$AAa?$AAx?$AA?5?$AAN?$AAa?$AAm?$AAe?$AA?5?$AAL?$AAe?$AAn?$AAg?$AAt?$AAh?$AA?$AA@ 1005aaf4     IHVCngLib:bwcgksp.obj
 0002:00013b14       ??_C@_19DINFBLAK@?$AAN?$AAa?$AAm?$AAe?$AA?$AA@ 1005ab14     IHVCngLib:bwcgksp.obj
 0002:00013b20       ??_C@_1BA@LIACFDLB@?$AAV?$AAe?$AAr?$AAs?$AAi?$AAo?$AAn?$AA?$AA@ 1005ab20     IHVCngLib:bwcgksp.obj
 0002:00013b30       ??_C@_1BI@BOCFHAID@?$AAU?$AAs?$AAe?$AA?5?$AAC?$AAo?$AAn?$AAt?$AAe?$AAx?$AAt?$AA?$AA@ 1005ab30     IHVCngLib:bwcgksp.obj
 0002:00013b48       ??_C@_1CO@LLCOGFAC@?$AAS?$AAe?$AAc?$AAu?$AAr?$AAi?$AAt?$AAy?$AA?5?$AAD?$AAe?$AAs?$AAc?$AAr?$AA?5?$AAS?$AAu?$AAp?$AAp?$AAo?$AAr?$AAt?$AA?$AA@ 1005ab48     IHVCngLib:bwcgksp.obj
 0002:00013b78       ??_C@_1BO@PJKBACG@?$AAS?$AAe?$AAc?$AAu?$AAr?$AAi?$AAt?$AAy?$AA?5?$AAD?$AAe?$AAs?$AAc?$AAr?$AA?$AA@ 1005ab78     IHVCngLib:bwcgksp.obj
 0002:00013b98       ??_C@_1BO@LONLFJGG@?$AAA?$AAl?$AAg?$AAo?$AAr?$AAi?$AAt?$AAh?$AAm?$AA?5?$AAN?$AAa?$AAm?$AAe?$AA?$AA@ 1005ab98     IHVCngLib:bwcgksp.obj
 0002:00013bb8       ??_C@_1BM@KJNKFFDA@?$AAE?$AAx?$AAp?$AAo?$AAr?$AAt?$AA?5?$AAP?$AAo?$AAl?$AAi?$AAc?$AAy?$AA?$AA@ 1005abb8     IHVCngLib:bwcgksp.obj
 0002:00013bd4       ??_C@_1BE@IHAGLIMF@?$AAK?$AAe?$AAy?$AA?5?$AAU?$AAs?$AAa?$AAg?$AAe?$AA?$AA@ 1005abd4     IHVCngLib:bwcgksp.obj
 0002:00013be8       ??_C@_1BC@MEJEFCKJ@?$AAK?$AAe?$AAy?$AA?5?$AAT?$AAy?$AAp?$AAe?$AA?$AA@ 1005abe8     IHVCngLib:bwcgksp.obj
 0002:00013bfc       ??_C@_1O@IONIPGKG@?$AAL?$AAe?$AAn?$AAg?$AAt?$AAh?$AA?$AA@ 1005abfc     IHVCngLib:bwcgksp.obj
 0002:00013c0c       ??_C@_1BA@NFAJMNOM@?$AAL?$AAe?$AAn?$AAg?$AAt?$AAh?$AAs?$AA?$AA@ 1005ac0c     IHVCngLib:bwcgksp.obj
 0002:00013c1c       ??_C@_1CA@FKOMDOKK@?$AAA?$AAl?$AAg?$AAo?$AAr?$AAi?$AAt?$AAh?$AAm?$AA?5?$AAG?$AAr?$AAo?$AAu?$AAp?$AA?$AA@ 1005ac1c     IHVCngLib:bwcgksp.obj
 0002:00013c3c       ??_C@_1M@FNACMMMF@?$AAE?$AAC?$AAD?$AAS?$AAA?$AA?$AA@ 1005ac3c     IHVCngLib:bwcgksp.obj
 0002:00013c48       ??_C@_1BI@EJLGBNL@?$AAU?$AAn?$AAi?$AAq?$AAu?$AAe?$AA?5?$AAN?$AAa?$AAm?$AAe?$AA?$AA@ 1005ac48     IHVCngLib:bwcgksp.obj
 0002:00013c60       ??_C@_1BG@OOALDDHJ@?$AAK?$AAe?$AAy?$AAL?$AAe?$AAn?$AAg?$AAt?$AAh?$AAs?$AA?$AA@ 1005ac60     IHVCngLib:bwcgksp.obj
 0002:00013c78       ??_C@_1BG@HPKCIHOF@?$AAP?$AAU?$AAB?$AAL?$AAI?$AAC?$AAB?$AAL?$AAO?$AAB?$AA?$AA@ 1005ac78     IHVCngLib:bwcgksp.obj
 0002:00013c90       ??_C@_1BI@CCGJAGHD@?$AAP?$AAR?$AAI?$AAV?$AAA?$AAT?$AAE?$AAB?$AAL?$AAO?$AAB?$AA?$AA@ 1005ac90     IHVCngLib:bwcgksp.obj
 0002:00013ca8       ??_C@_1BO@NMBBFOKP@?$AAP?$AAK?$AAC?$AAS?$AA7?$AA_?$AAE?$AAN?$AAV?$AAE?$AAL?$AAO?$AAP?$AAE?$AA?$AA@ 1005aca8     IHVCngLib:bwcgksp.obj
 0002:00013cc8       ??_C@_1CC@BDCMACAP@?$AAP?$AAK?$AAC?$AAS?$AA8?$AA_?$AAP?$AAR?$AAI?$AAV?$AAA?$AAT?$AAE?$AAK?$AAE?$AAY?$AA?$AA@ 1005acc8     IHVCngLib:bwcgksp.obj
 0002:00013cec       ??_C@_1BI@HLPJMFNK@?$AAK?$AAe?$AAy?$AAS?$AAt?$AAr?$AAe?$AAn?$AAg?$AAt?$AAh?$AA?$AA@ 1005acec     IHVCngLib:bwcgksp.obj
 0002:00013d04       ??_C@_1CA@OBDAGJIG@?$AAS?$AAi?$AAg?$AAn?$AAa?$AAt?$AAu?$AAr?$AAe?$AAL?$AAe?$AAn?$AAg?$AAt?$AAh?$AA?$AA@ 1005ad04     IHVCngLib:bwcgksp.obj
 0002:00013d24       ??_C@_1BM@GMOELGKK@?$AAA?$AAl?$AAg?$AAo?$AAr?$AAi?$AAt?$AAh?$AAm?$AAN?$AAa?$AAm?$AAe?$AA?$AA@ 1005ad24     IHVCngLib:bwcgsap.obj
 0002:00013d40       ??_C@_1BE@FGBADLPC@?$AAK?$AAe?$AAy?$AAL?$AAe?$AAn?$AAg?$AAt?$AAh?$AA?$AA@ 1005ad40     IHVCngLib:bwcgsap.obj
 0002:00013d58       ??_C@_1EE@DIJMECIJ@?$AAB?$AAr?$AAo?$AAa?$AAd?$AAc?$AAo?$AAm?$AA?5?$AA?$CI?$AAW?$AAC?$AAG?$AA?$CJ?$AA?5?$AAP?$AAr?$AAi?$AAm?$AAi?$AAt?$AAi?$AAv?$AAe?$AA?5?$AAP?$AAr?$AAo?$AAv?$AAi?$AAd?$AAe@ 1005ad58     IHVCngLib:bwcgsap.obj
 0002:00013d9c       ??_C@_0BG@JJJDCFKF@1?42?4156?411235?41?41?42?41?$AA@ 1005ad9c     IHVCngLib:bwcgsapoid.obj
 0002:00013db4       ??_C@_1BE@EINMDOGG@?$AAE?$AAC?$AA1?$AA9?$AA2?$AAW?$AAA?$AAP?$AAI?$AA?$AA@ 1005adb4     IHVCngLib:bwcgsapoid.obj
 0002:00013dc8       ??_C@_1DE@BKNDOKKA@?$AAC?$AAr?$AAy?$AAp?$AAt?$AAO?$AAI?$AAD?$AAI?$AAn?$AAf?$AAo?$AAE?$AAC?$AAC?$AAP?$AAa?$AAr?$AAa?$AAm?$AAe?$AAt?$AAe?$AAr?$AAs?$AA?$AA@ 1005adc8     IHVCngLib:bwcgsapoid.obj
 0002:00013dfc       ??_C@_1CO@PBCCKMEC@?$AAS?$AAH?$AAA?$AA2?$AA5?$AA6?$AA_?$AAE?$AAC?$AAD?$AAS?$AAA?$AA1?$AA9?$AA2?$AA?5?$AA?$CI?$AAW?$AAA?$AAP?$AAI?$AA?$CJ?$AA?$AA@ 1005adfc     IHVCngLib:bwcgsapoid.obj
 0002:00013e2c       ??_C@_1BI@EFGFPGGA@?$AAK?$AAE?$AAY?$AA_?$AAS?$AAT?$AAO?$AAR?$AAA?$AAG?$AAE?$AA?$AA@ 1005ae2c     IHVCngLib:bwcgkspreg.obj
 0002:00013e48       ??_C@_1FK@JLCDCDPA@?$AAB?$AAr?$AAo?$AAa?$AAd?$AAc?$AAo?$AAm?$AA?5?$AA?$CI?$AAW?$AAC?$AAG?$AA?$CJ?$AA?5?$AAS?$AAo?$AAf?$AAt?$AAw?$AAa?$AAr?$AAe?$AA?5?$AAK?$AAe?$AAy?$AA?5?$AAS?$AAt?$AAo?$AAr@ 1005ae48     IHVCngLib:bwcgkspreg.obj
 0002:00013ea4       ??_C@_1BI@HBOMCAHC@?$AAP?$AAr?$AAi?$AAv?$AAa?$AAt?$AAe?$AA?5?$AAK?$AAe?$AAy?$AA?$AA@ 1005aea4     IHVCngLib:bwcgksphlp.obj
 0002:00013ebc       ??_C@_1BI@NMDAIEK@?$AAH?$AAW?$AAN?$AAD?$AA?5?$AAH?$AAa?$AAn?$AAd?$AAl?$AAe?$AA?$AA@ 1005aebc     IHVCngLib:bwcgksphlp.obj
 0002:00013ed4       ??_C@_1BE@LKMKFJMG@?$AAU?$AAI?$AA?5?$AAP?$AAo?$AAl?$AAi?$AAc?$AAy?$AA?$AA@ 1005aed4     IHVCngLib:bwcgksphlp.obj
 0002:00013ee8       ??_C@_13BBDEGPLJ@?$AA?$CK?$AA?$AA@ 1005aee8     IHVCngLib:bwcgksphlp.obj
 0002:00013f10       ??_C@_1FE@PBJCGAMD@?$AA?2?$AAA?$AAp?$AAp?$AAD?$AAa?$AAt?$AAa?$AA?2?$AAR?$AAo?$AAa?$AAm?$AAi?$AAn?$AAg?$AA?2?$AAB?$AAr?$AAo?$AAa?$AAd?$AAc?$AAo?$AAm?$AA?2?$AAC?$AAr?$AAy?$AAp?$AAt?$AAo@ 1005af10     IHVCngLib:bwcgkspstorage.obj
 0002:00013f64       ??_C@_0DB@ONKGCNBH@BDB6F4FE3E8B1D9E0DA8C0D46F4C318C@ 1005af64     IHVCngLib:ecc_openssl.obj
 0002:00013f98       ??_C@_0DB@JIBIKCIF@BB8E5E8FBC115E139FE6A814FE48AAA6@ 1005af98     IHVCngLib:ecc_openssl.obj
 0002:00013fcc       ??_C@_0DB@NGIECMAD@1854BEBDC31B21B7AEFC80AB0ECD10D5@ 1005afcc     IHVCngLib:ecc_openssl.obj
 0002:00014000       ??_C@_0DB@HBAFCDHN@4AD5F7048DE709AD51236DE65E4D4B48@ 1005b000     IHVCngLib:ecc_openssl.obj
 0002:00014034       ??_C@_0DB@EFOHGBOI@02BB3A02D4AAADACAE24817A4CA3A1B0@ 1005b034     IHVCngLib:ecc_openssl.obj
 0002:00014068       ??_C@_0DB@KDKAEKDL@BDB6F4FE3E8B1D9E0DA8C0D40FC96219@ 1005b068     IHVCngLib:ecc_openssl.obj
 0002:0001409c       __pDestructExceptionObject 1005b09c     LIBCMT:frame.obj
 0002:000140a4       ??_7bad_exception@std@@6B@ 1005b0a4     LIBCMT:frame.obj
 0002:000140ac       ??_C@_0O@DPKOEFFH@bad?5exception?$AA@ 1005b0ac     LIBCMT:frame.obj
 0002:000140c0       __load_config_used         1005b0c0     LIBCMT:loadcfg.obj
 0002:000141a8       ??_R4type_info@@6B@        1005b1a8     LIBCMT:typinfo.obj
 0002:000141bc       ??_R3type_info@@8          1005b1bc     LIBCMT:typinfo.obj
 0002:000141cc       ??_R2type_info@@8          1005b1cc     LIBCMT:typinfo.obj
 0002:000141d4       ??_R1A@?0A@EA@type_info@@8 1005b1d4     LIBCMT:typinfo.obj
 0002:000141f0       ??_R1A@?0A@EA@exception@std@@8 1005b1f0     LIBCMT:new.obj
 0002:0001420c       ??_R3exception@std@@8      1005b20c     LIBCMT:new.obj
 0002:0001421c       ??_R2exception@std@@8      1005b21c     LIBCMT:new.obj
 0002:00014224       ??_R4bad_alloc@std@@6B@    1005b224     LIBCMT:new.obj
 0002:00014238       ??_R3bad_alloc@std@@8      1005b238     LIBCMT:new.obj
 0002:00014248       ??_R2bad_alloc@std@@8      1005b248     LIBCMT:new.obj
 0002:00014254       ??_R1A@?0A@EA@bad_alloc@std@@8 1005b254     LIBCMT:new.obj
 0002:00014270       ??_R4exception@std@@6B@    1005b270     LIBCMT:stdexcpt.obj
 0002:00014284       ??_R1A@?0A@EA@CIhvIeCollector@@8 1005b284     cihvs.obj
 0002:000142a0       ??_R3CIhvIeCollector@@8    1005b2a0     cihvs.obj
 0002:000142b0       ??_R4CIhvIeCollector@@6B@  1005b2b0     cihvs.obj
 0002:000142c4       ??_R2CIhvIeCollector@@8    1005b2c4     cihvs.obj
 0002:000142cc       ??_R1A@?0A@EA@CFDWfdDevicePaired@@8 1005b2cc     IhvIeCollector.obj
 0002:000142e8       ??_R3CFDWfdDevicePaired@@8 1005b2e8     IhvIeCollector.obj
 0002:000142f8       ??_R2IFunctionDiscoveryNotification@@8 1005b2f8     IhvIeCollector.obj
 0002:00014304       ??_R1A@?0A@EA@IUnknown@@8  1005b304     IhvIeCollector.obj
 0002:00014320       ??_R3IUnknown@@8           1005b320     IhvIeCollector.obj
 0002:00014330       ??_R4CFDWfdDevicePaired@@6B@ 1005b330     IhvIeCollector.obj
 0002:00014344       ??_R2IUnknown@@8           1005b344     IhvIeCollector.obj
 0002:0001434c       ??_R2CFunctionDiscoveryNotificationWrapper@@8 1005b34c     IhvIeCollector.obj
 0002:0001435c       ??_R1A@?0A@EA@IFunctionDiscoveryNotification@@8 1005b35c     IhvIeCollector.obj
 0002:00014378       ??_R2CFDWfdDevicePaired@@8 1005b378     IhvIeCollector.obj
 0002:0001438c       ??_R3IFunctionDiscoveryNotification@@8 1005b38c     IhvIeCollector.obj
 0002:0001439c       ??_R3CFunctionDiscoveryNotificationWrapper@@8 1005b39c     IhvIeCollector.obj
 0002:000143ac       ??_R1A@?0A@EA@CFunctionDiscoveryNotificationWrapper@@8 1005b3ac     IhvIeCollector.obj
 0002:000143c8       ??_R4bad_exception@std@@6B@ 1005b3c8     LIBCMT:frame.obj
 0002:000143dc       ??_R3bad_exception@std@@8  1005b3dc     LIBCMT:frame.obj
 0002:000143ec       ??_R2bad_exception@std@@8  1005b3ec     LIBCMT:frame.obj
 0002:000143f8       ??_R1A@?0A@EA@bad_exception@std@@8 1005b3f8     LIBCMT:frame.obj
 0002:00014420       ___safe_se_handler_table   1005b420     <linker-defined>
 0002:00014474       ___rtc_iaa                 1005b474     LIBCMT:initsect.obj
 0002:00014478       ___rtc_izz                 1005b478     LIBCMT:initsect.obj
 0002:0001447c       ___rtc_taa                 1005b47c     LIBCMT:initsect.obj
 0002:00014480       ___rtc_tzz                 1005b480     LIBCMT:initsect.obj
 0002:0001489c       __TI2?AVbad_alloc@std@@    1005b89c     LIBCMT:new.obj
 0002:000148ac       __CTA2?AVbad_alloc@std@@   1005b8ac     LIBCMT:new.obj
 0002:000148b8       __CT??_R0?AVbad_alloc@std@@@8??0bad_alloc@std@@QAE@ABV01@@Z12 1005b8b8     LIBCMT:new.obj
 0002:000148d4       __CT??_R0?AVexception@std@@@8??0exception@std@@QAE@ABV01@@Z12 1005b8d4     LIBCMT:new.obj
 0002:00014f54       __TI2?AVbad_exception@std@@ 1005bf54     LIBCMT:frame.obj
 0002:00014f64       __CTA2?AVbad_exception@std@@ 1005bf64     LIBCMT:frame.obj
 0002:00014f70       __CT??_R0?AVbad_exception@std@@@8??0bad_exception@std@@QAE@ABV01@@Z12 1005bf70     LIBCMT:frame.obj
 0002:00015074       __IMPORT_DESCRIPTOR_SETUPAPI 1005c074     setupapi:SETUPAPI.dll
 0002:00015088       __IMPORT_DESCRIPTOR_bcrypt 1005c088     bcrypt:bcrypt.dll
 0002:0001509c       __IMPORT_DESCRIPTOR_ncrypt 1005c09c     ncrypt:ncrypt.dll
 0002:000150b0       __IMPORT_DESCRIPTOR_ADVAPI32 1005c0b0     ssleay32120:ADVAPI32.dll
 0002:000150c4       __IMPORT_DESCRIPTOR_CRYPT32 1005c0c4     crypt32:CRYPT32.dll
 0002:000150d8       __IMPORT_DESCRIPTOR_RPCRT4 1005c0d8     rpcrt4:RPCRT4.dll
 0002:000150ec       __IMPORT_DESCRIPTOR_WTSAPI32 1005c0ec     wtsapi32:WTSAPI32.dll
 0002:00015100       __IMPORT_DESCRIPTOR_KERNEL32 1005c100     kernel32:KERNEL32.dll
 0002:00015114       __IMPORT_DESCRIPTOR_ole32  1005c114     ole32:ole32.dll
 0002:00015128       __IMPORT_DESCRIPTOR_OLEAUT32 1005c128     oleaut32:OLEAUT32.dll
 0002:0001513c       __IMPORT_DESCRIPTOR_USERENV 1005c13c     userenv:USERENV.dll
 0002:00015150       __NULL_IMPORT_DESCRIPTOR   1005c150     setupapi:SETUPAPI.dll
 0003:00000000       ___security_cookie         1005e000     LIBCMT:gs_cookie.obj
 0003:00000004       ___security_cookie_complement 1005e004     LIBCMT:gs_cookie.obj
 0003:00000010       ___nullstring              1005e010     LIBCMT:output.obj
 0003:00000014       ___wnullstring             1005e014     LIBCMT:output.obj
 0003:00000188       __iob                      1005e188     LIBCMT:_file.obj
 0003:00000408       ___isa_enabled             1005e408     LIBCMT:cpu_disp.obj
 0003:00000410       __mbctype                  1005e410     LIBCMT:mbctype.obj
 0003:00000518       __mbcasemap                1005e518     LIBCMT:mbctype.obj
 0003:00000618       ___initialmbcinfo          1005e618     LIBCMT:mbctype.obj
 0003:0000083c       ___ptmbcinfo               1005e83c     LIBCMT:mbctype.obj
 0003:00000930       ___flsindex                1005e930     LIBCMT:tidtable.obj
 0003:00000934       ___mb_cur_max              1005e934     LIBCMT:nlsdata.obj
 0003:00000938       ___wclocalestr             1005e938     LIBCMT:nlsdata.obj
 0003:00000940       ___lc_time_c               1005e940     LIBCMT:nlsdata.obj
 0003:00000aa4       ___ptlocinfo               1005eaa4     LIBCMT:nlsdata.obj
 0003:00000aa8       ___initiallocinfo          1005eaa8     LIBCMT:nlsdata.obj
 0003:00000b60       ___globallocalestatus      1005eb60     LIBCMT:glstatus.obj
 0003:00000b70       ___abort_behavior          1005eb70     LIBCMT:abort.obj
 0003:00000b78       ___badioinfo               1005eb78     LIBCMT:ioinit.obj
 0003:00000ce0       __cfltcvt_tab              1005ece0     LIBCMT:cmiscdat.obj
 0003:00000d10       __pctype                   1005ed10     LIBCMT:ctype.obj
 0003:00000d14       __pwctype                  1005ed14     LIBCMT:ctype.obj
 0003:00000d18       ___lconv                   1005ed18     LIBCMT:lconv.obj
 0003:00000d1c       ___lconv_static_decimal    1005ed1c     LIBCMT:lconv.obj
 0003:00000d20       ___lconv_c                 1005ed20     LIBCMT:lconv.obj
 0003:00000d70       ___lconv_static_W_decimal  1005ed70     LIBCMT:lconv.obj
 0003:00000d80       __fltused                  1005ed80     LIBCMT:fpinit.obj
 0003:00000d84       __ldused                   1005ed84     LIBCMT:fpinit.obj
 0003:00000d90       __NLG_Destination          1005ed90     LIBCMT:exsup.obj
 0003:00000da0       __HUGE                     1005eda0     LIBCMT:huge.obj
 0003:00000dd8       __confh                    1005edd8     LIBCMT:initcon.obj
 0003:00000de0       __pow10pos                 1005ede0     LIBCMT:constpow.obj
 0003:00000f40       __pow10neg                 1005ef40     LIBCMT:constpow.obj
 0003:0000143c       _STACK_version             1005f43c     libeay32120:stack.obj
 0003:00001440       _lh_version                1005f440     libeay32120:lhash.obj
 0003:0000a2ac       _RAND_version              100682ac     libeay32120:md_rand.obj
 0003:0000a2b0       _rand_ssleay_meth          100682b0     libeay32120:md_rand.obj
 0003:0000a2d0       _SHA1_version              100682d0     libeay32120:sha1dgst.obj
 0003:0000a2e0       __sys_nerr                 100682e0     LIBCMT:syserr.obj
 0003:0000a2e8       __lookuptrailbytes         100682e8     LIBCMT:read.obj
 0003:0000a3e8       __timezone                 100683e8     LIBCMT:timeset.obj
 0003:0000a3ec       __daylight                 100683ec     LIBCMT:timeset.obj
 0003:0000a3f0       __dstbias                  100683f0     LIBCMT:timeset.obj
 0003:0000a478       __tzname                   10068478     LIBCMT:timeset.obj
 0003:0000a4a0       __days                     100684a0     LIBCMT:days.obj
 0003:0000a4d4       __lpdays                   100684d4     LIBCMT:days.obj
 0003:0000a510       ?XmlEnumDPTCiphAlgo@@3PAU<unnamed-type-XmlEnumDPTCiphAlgo>@@A 10068510     DPTProfile.obj
 0003:0000a520       ?XmlElemAuthAlgo@@3PAUID_TO_TAG_TABLE2@@A 10068520     CCXProfile.obj
 0003:0000a670       ?XmlElemCiphAlgo@@3PAUID_TO_TAG_TABLE@@A 10068670     CCXProfile.obj
 0003:0000a6d0       ?BroadcomCredType@@3PAUID_TO_TAG_TABLE@@A 100686d0     CCXProfile.obj
 0003:0000a6e0       ?BwcgKspFunctionTable@@3U_NCRYPT_KEY_STORAGE_FUNCTION_TABLE@@A 100686e0     IHVCngLib:bwcgksp.obj
 0003:0000a8a0       ??_R0?AVtype_info@@@8      100688a0     LIBCMT:typinfo.obj
 0003:0000a8b8       ??_R0?AVbad_alloc@std@@@8  100688b8     LIBCMT:new.obj
 0003:0000a8d4       ??_R0?AVexception@std@@@8  100688d4     LIBCMT:new.obj
 0003:0000a8f0       ??_R0?AVCIhvIeCollector@@@8 100688f0     cihvs.obj
 0003:0000a910       ??_R0?AVCFDWfdDevicePaired@@@8 10068910     IhvIeCollector.obj
 0003:0000a934       ??_R0?AUIFunctionDiscoveryNotification@@@8 10068934     IhvIeCollector.obj
 0003:0000a964       ??_R0?AVCFunctionDiscoveryNotificationWrapper@@@8 10068964     IhvIeCollector.obj
 0003:0000a998       ??_R0?AUIUnknown@@@8       10068998     IhvIeCollector.obj
 0003:0000a9b0       ??_R0?AVbad_exception@std@@@8 100689b0     LIBCMT:frame.obj
 0003:0000ad0c       __aenvptr                  10068d0c     LIBCMT:dllcrt0.obj
 0003:0000ad10       __wenvptr                  10068d10     LIBCMT:dllcrt0.obj
 0003:0000ad14       ?__pInconsistency@@3P6AXXZA 10068d14     LIBCMT:hooks.obj
 0003:0000ad18       __C_Exit_Done              10068d18     LIBCMT:crt0dat.obj
 0003:0000ad1c       ___argc                    10068d1c     LIBCMT:crt0dat.obj
 0003:0000ad20       ___argv                    10068d20     LIBCMT:crt0dat.obj
 0003:0000ad24       ___wargv                   10068d24     LIBCMT:crt0dat.obj
 0003:0000ad28       __environ                  10068d28     LIBCMT:crt0dat.obj
 0003:0000ad2c       __wenviron                 10068d2c     LIBCMT:crt0dat.obj
 0003:0000ad30       __pgmptr                   10068d30     LIBCMT:crt0dat.obj
 0003:0000ad34       __wpgmptr                  10068d34     LIBCMT:crt0dat.obj
 0003:0000ad38       __umaskval                 10068d38     LIBCMT:crt0dat.obj
 0003:0000ad3c       __exitflag                 10068d3c     LIBCMT:crt0dat.obj
 0003:0000ad40       __C_Termination_Done       10068d40     LIBCMT:crt0dat.obj
 0003:0000ad44       ___winitenv                10068d44     LIBCMT:crt0dat.obj
 0003:0000ad48       ___initenv                 10068d48     LIBCMT:crt0dat.obj
 0003:0000ad4c       __maxwait                  10068d4c     LIBCMT:crtheap.obj
 0003:0000ad58       ?_pnhHeap@@3P6AHI@ZA       10068d58     LIBCMT:handler.obj
 0003:0000ad5c       ___pInvalidArgHandler      10068d5c     LIBCMT:invarg.obj
 0003:0000ad60       __cflush                   10068d60     LIBCMT:_file.obj
 0003:0000ad64       __stdbuf                   10068d64     LIBCMT:_sftbuf.obj
 0003:0000ad6c       ___isa_available           10068d6c     LIBCMT:cpu_disp.obj
 0003:0000ad70       ___favor                   10068d70     LIBCMT:cpu_disp.obj
 0003:0000ad74       ___mbcodepage              10068d74     LIBCMT:mbctype.obj
 0003:0000ad78       ___ismbcodepage            10068d78     LIBCMT:mbctype.obj
 0003:0000ad7c       ___mbulinfo                10068d7c     LIBCMT:mbctype.obj
 0003:0000ad88       ___mblocalename            10068d88     LIBCMT:mbctype.obj
 0003:0000ad90       ___locale_changed          10068d90     LIBCMT:wsetloca.obj
 0003:0000ad94       ___pPurecall               10068d94     LIBCMT:inithelp.obj
 0003:0000ad98       __crtheap                  10068d98     LIBCMT:heapinit.obj
 0003:0000ada0       ___pioinfo                 10068da0     LIBCMT:ioinit.obj
 0003:0000afa8       ___app_type                10068fa8     LIBCMT:crt0msg.obj
 0003:0000b5d8       __newmode                  100695d8     LIBCMT:_newmode.obj
 0003:0000b748       ?pArgList@UnDecorator@@0PAVReplicator@@A 10069748     LIBCMT:undname.obj
 0003:0000b74c       ?pZNameList@UnDecorator@@0PAVReplicator@@A 1006974c     LIBCMT:undname.obj
 0003:0000b750       ?pTemplateArgList@UnDecorator@@0PAVReplicator@@A 10069750     LIBCMT:undname.obj
 0003:0000b754       ?gName@UnDecorator@@0PBDB  10069754     LIBCMT:undname.obj
 0003:0000b758       ?name@UnDecorator@@0PBDB   10069758     LIBCMT:undname.obj
 0003:0000b75c       ?outputString@UnDecorator@@0PADA 1006975c     LIBCMT:undname.obj
 0003:0000b760       ?maxStringLength@UnDecorator@@0HA 10069760     LIBCMT:undname.obj
 0003:0000b764       ?disableFlags@UnDecorator@@0KA 10069764     LIBCMT:undname.obj
 0003:0000b768       ?fExplicitTemplateParams@UnDecorator@@0_NA 10069768     LIBCMT:undname.obj
 0003:0000b769       ?fGetTemplateArgumentList@UnDecorator@@0_NA 10069769     LIBCMT:undname.obj
 0003:0000b76c       ?m_pGetParameter@UnDecorator@@0P6APADJ@ZA 1006976c     LIBCMT:undname.obj
 0003:0000b784       ___lconv_static_null       10069784     LIBCMT:lconv.obj
 0003:0000b788       ___lconv_static_W_null     10069788     LIBCMT:lconv.obj
 0003:0000b790       ___fastflag                10069790     LIBCMT:fpinit.obj
 0003:0000b794       ___error_mode              10069794     LIBCMT:errmode.obj
 0003:0000b7ac       __outputformat             100697ac     LIBCMT:outputformat.obj
 0003:0000b83c       _cleanse_ctr               1006983c     libeay32120:mem_clr.obj
 0003:0000d33c       __fmode                    1006b33c     LIBCMT:txtmode.obj
 0003:0000d3fc       __commode                  1006b3fc     LIBCMT:ncommode.obj
 0003:0000d400       ?Dot11ExtSetDefaultKeyId@@3P6GKPAXK@ZA 1006b400     cihvs.obj
 0003:0000d404       ?Dot11ExtNicSpecificExtension@@3P6GKPAXK0PAK0@ZA 1006b404     cihvs.obj
 0003:0000d408       ?Dot11ExtSetEtherTypeHandling@@3P6GKPAXKKPAUDOT11_PRIVACY_EXEMPTION@@KPAG@ZA 1006b408     cihvs.obj
 0003:0000d40c       ?Dot11ExtFreeBuffer@@3P6GXPAX@ZA 1006b40c     cihvs.obj
 0003:0000d410       ?Dot11ExtSetAuthAlgorithm@@3P6GKPAXK@ZA 1006b410     cihvs.obj
 0003:0000d414       ?Dot11ExtPreAssociateCompletion@@3P6GKPAX0KK@ZA 1006b414     cihvs.obj
 0003:0000d418       ?Dot11ExtGetProfileCustomUserData@@3P6GKPAX0KPAKPAPAX@ZA 1006b418     cihvs.obj
 0003:0000d41c       ?Dot11ExtSetProfileCustomUserData@@3P6GKPAX0KK0@ZA 1006b41c     cihvs.obj
 0003:0000d420       ?Dot11ExtAllocateBuffer@@3P6GKKPAPAX@ZA 1006b420     cihvs.obj
 0003:0000d424       ?Dot11ExtProcessOneXPacket@@3P6GKPAXK0@ZA 1006b424     cihvs.obj
 0003:0000d428       ?g_AdaptersList@@3PAVCIHVS_ADAPTER_CONTEXT@@A 1006b428     cihvs.obj
 0003:0000d42c       ?Dot11ExtOneXStop@@3P6GKPAX@ZA 1006b42c     cihvs.obj
 0003:0000d430       ?Dot11ExtSetCurrentProfile@@3P6GKPAX0PAU_DOT11EXT_IHV_CONNECTIVITY_PROFILE@@PAU_DOT11EXT_IHV_SECURITY_PROFILE@@@ZA 1006b430     cihvs.obj
 0003:0000d434       ?g_csSynch@@3U_RTL_CRITICAL_SECTION@@A 1006b434     cihvs.obj
 0003:0000d44c       ?Dot11ExtSetMulticastCipherAlgorithm@@3P6GKPAXK@ZA 1006b44c     cihvs.obj
 0003:0000d450       ?_hinst@@3PAUHINSTANCE__@@A 1006b450     cihvs.obj
 0003:0000d454       ?Dot11ExtSetExcludeUnencrypted@@3P6GKPAXH@ZA 1006b454     cihvs.obj
 0003:0000d458       ?Dot11ExtOneXStart@@3P6GKPAXPAU_EAP_ATTRIBUTES@@@ZA 1006b458     cihvs.obj
 0003:0000d45c       ?Dot11ExtSendNotification@@3P6GKPAXPAU_L2_NOTIFICATION_DATA@@@ZA 1006b45c     cihvs.obj
 0003:0000d460       ?Dot11ExtSendUIRequest@@3P6GKPAXPAU_DOT11EXT_IHV_UI_REQUEST@@@ZA 1006b460     cihvs.obj
 0003:0000d464       ?verUsed@@3KA              1006b464     cihvs.obj
 0003:0000d468       ?wapiLibInit@@3HA          1006b468     cihvs.obj
 0003:0000d46c       ?Dot11ExtSetUnicastCipherAlgorithm@@3P6GKPAXK@ZA 1006b46c     cihvs.obj
 0003:0000d470       ?Dot11ExtSetDefaultKey@@3P6GKPAXPAUDOT11_CIPHER_DEFAULT_KEY_VALUE@@W4DOT11_DIRECTION@@@ZA 1006b470     cihvs.obj
 0003:0000d474       ?Dot11ExtSetKeyMappingKey@@3P6GKPAXPAUDOT11_CIPHER_KEY_MAPPING_KEY_VALUE@@@ZA 1006b474     cihvs.obj
 0003:0000d478       ?Dot11ExtPostAssociateCompletion@@3P6GKPAX0PAY05EKK@ZA 1006b478     cihvs.obj
 0003:0000d47c       ?Dot11ExtSendPacket@@3P6GKPAXK00@ZA 1006b47c     cihvs.obj
 0003:0000d480       ?g_pWapiSession@@3PAU_WAPI_SESSION@@A 1006b480     ihvwapi.obj
 0003:0000d484       ?IeCacheHead@@3PAU_LIST_ENTRY@@A 1006b484     IeCollector.obj
 0003:0000d498       ?g_BwcgKspEnumStateList@@3U_LIST_ENTRY@@A 1006b498     IHVCngLib:bwcgksp.obj
 0003:0000d4a0       ?_iecollector@@3PAVCIhvIeCollector@@A 1006b4a0     cihvs.obj
 0003:0000ed44       ?g_OutOfMemoryExceptionCallback@@3P6GPAXXZA 1006cd44     LIBCMT:frame.obj
 0003:0000ed48       __nhandle                  1006cd48     <common>
 0003:0000ed60       _encodedKERNEL32Functions  1006cd60     <common>
 0003:0000ede4       __debugger_hook_dummy      1006cde4     <common>
 0003:0000ee00       __bufin                    1006ce00     <common>
 0003:0000fe00       ___piob                    1006de00     <common>
 0003:0000fe04       __nstream                  1006de04     <common>
 0003:0000fe08       ___dyn_tls_init_callback   1006de08     <common>
 0003:0000fe0c       ___onexitend               1006de0c     <common>
 0003:0000fe10       ___onexitbegin             1006de10     <common>
 0003:0000fe14       ___mbctype_initialized     1006de14     <common>
 0003:0000fe18       ___env_initialized         1006de18     <common>
 0003:0000fe1c       __acmdln                   1006de1c     <common>
 0003:0000fe20       _iwn_eloop                 1006de20     <common>

 entry point at        0001:00016b72

 Static symbols

 0000:ffc23000       .debug$S                   10000000     kernel32:KERNEL32.dll
 0000:ffc23000       .debug$S                   10000000     setupapi:SETUPAPI.dll
 0000:ffc23000       .debug$S                   10000000     setupapi:SETUPAPI.dll
 0000:ffc23000       .debug$S                   10000000     setupapi:SETUPAPI.dll
 0000:ffc23000       .debug$S                   10000000     setupapi:SETUPAPI.dll
 0000:ffc23000       .debug$S                   10000000     bcrypt:bcrypt.dll
 0000:ffc23000       .debug$S                   10000000     bcrypt:bcrypt.dll
 0000:ffc23000       .debug$S                   10000000     bcrypt:bcrypt.dll
 0000:ffc23000       .debug$S                   10000000     bcrypt:bcrypt.dll
 0000:ffc23000       .debug$S                   10000000     bcrypt:bcrypt.dll
 0000:ffc23000       .debug$S                   10000000     bcrypt:bcrypt.dll
 0000:ffc23000       .debug$S                   10000000     bcrypt:bcrypt.dll
 0000:ffc23000       .debug$S                   10000000     bcrypt:bcrypt.dll
 0000:ffc23000       .debug$S                   10000000     bcrypt:bcrypt.dll
 0000:ffc23000       .debug$S                   10000000     bcrypt:bcrypt.dll
 0000:ffc23000       .debug$S                   10000000     bcrypt:bcrypt.dll
 0000:ffc23000       .debug$S                   10000000     bcrypt:bcrypt.dll
 0000:ffc23000       .debug$S                   10000000     bcrypt:bcrypt.dll
 0000:ffc23000       .debug$S                   10000000     bcrypt:bcrypt.dll
 0000:ffc23000       .debug$S                   10000000     bcrypt:bcrypt.dll
 0000:ffc23000       .debug$S                   10000000     bcrypt:bcrypt.dll
 0000:ffc23000       .debug$S                   10000000     bcrypt:bcrypt.dll
 0000:ffc23000       .debug$S                   10000000     bcrypt:bcrypt.dll
 0000:ffc23000       .debug$S                   10000000     bcrypt:bcrypt.dll
 0000:ffc23000       .debug$S                   10000000     bcrypt:bcrypt.dll
 0000:ffc23000       .debug$S                   10000000     bcrypt:bcrypt.dll
 0000:ffc23000       .debug$S                   10000000     bcrypt:bcrypt.dll
 0000:ffc23000       .debug$S                   10000000     bcrypt:bcrypt.dll
 0000:ffc23000       .debug$S                   10000000     bcrypt:bcrypt.dll
 0000:ffc23000       .debug$S                   10000000     bcrypt:bcrypt.dll
 0000:ffc23000       .debug$S                   10000000     ncrypt:ncrypt.dll
 0000:ffc23000       .debug$S                   10000000     ncrypt:ncrypt.dll
 0000:ffc23000       .debug$S                   10000000     ssleay32120:ADVAPI32.dll
 0000:ffc23000       .debug$S                   10000000     ssleay32120:ADVAPI32.dll
 0000:ffc23000       .debug$S                   10000000     ssleay32120:ADVAPI32.dll
 0000:ffc23000       .debug$S                   10000000     ssleay32120:ADVAPI32.dll
 0000:ffc23000       .debug$S                   10000000     ssleay32120:ADVAPI32.dll
 0000:ffc23000       .debug$S                   10000000     ssleay32120:ADVAPI32.dll
 0000:ffc23000       .debug$S                   10000000     ssleay32120:ADVAPI32.dll
 0000:ffc23000       .debug$S                   10000000     ssleay32120:ADVAPI32.dll
 0000:ffc23000       .debug$S                   10000000     ssleay32120:ADVAPI32.dll
 0000:ffc23000       .debug$S                   10000000     ssleay32120:ADVAPI32.dll
 0000:ffc23000       .debug$S                   10000000     ssleay32120:ADVAPI32.dll
 0000:ffc23000       .debug$S                   10000000     ssleay32120:ADVAPI32.dll
 0000:ffc23000       .debug$S                   10000000     ssleay32120:ADVAPI32.dll
 0000:ffc23000       .debug$S                   10000000     ssleay32120:ADVAPI32.dll
 0000:ffc23000       .debug$S                   10000000     ssleay32120:ADVAPI32.dll
 0000:ffc23000       .debug$S                   10000000     ssleay32120:ADVAPI32.dll
 0000:ffc23000       .debug$S                   10000000     ssleay32120:ADVAPI32.dll
 0000:ffc23000       .debug$S                   10000000     ssleay32120:ADVAPI32.dll
 0000:ffc23000       .debug$S                   10000000     ssleay32120:ADVAPI32.dll
 0000:ffc23000       .debug$S                   10000000     ssleay32120:ADVAPI32.dll
 0000:ffc23000       .debug$S                   10000000     ssleay32120:ADVAPI32.dll
 0000:ffc23000       .debug$S                   10000000     ssleay32120:ADVAPI32.dll
 0000:ffc23000       .debug$S                   10000000     ssleay32120:ADVAPI32.dll
 0000:ffc23000       .debug$S                   10000000     ssleay32120:ADVAPI32.dll
 0000:ffc23000       .debug$S                   10000000     ssleay32120:ADVAPI32.dll
 0000:ffc23000       .debug$S                   10000000     ssleay32120:ADVAPI32.dll
 0000:ffc23000       .debug$S                   10000000     ssleay32120:ADVAPI32.dll
 0000:ffc23000       .debug$S                   10000000     userenv:USERENV.dll
 0000:ffc23000       .debug$S                   10000000     userenv:USERENV.dll
 0000:ffc23000       .debug$S                   10000000     crypt32:CRYPT32.dll
 0000:ffc23000       .debug$S                   10000000     crypt32:CRYPT32.dll
 0000:ffc23000       .debug$S                   10000000     crypt32:CRYPT32.dll
 0000:ffc23000       .debug$S                   10000000     crypt32:CRYPT32.dll
 0000:ffc23000       .debug$S                   10000000     crypt32:CRYPT32.dll
 0000:ffc23000       .debug$S                   10000000     crypt32:CRYPT32.dll
 0000:ffc23000       .debug$S                   10000000     crypt32:CRYPT32.dll
 0000:ffc23000       .debug$S                   10000000     crypt32:CRYPT32.dll
 0000:ffc23000       .debug$S                   10000000     crypt32:CRYPT32.dll
 0000:ffc23000       .debug$S                   10000000     crypt32:CRYPT32.dll
 0000:ffc23000       .debug$S                   10000000     crypt32:CRYPT32.dll
 0000:ffc23000       .debug$S                   10000000     crypt32:CRYPT32.dll
 0000:ffc23000       .debug$S                   10000000     crypt32:CRYPT32.dll
 0000:ffc23000       .debug$S                   10000000     crypt32:CRYPT32.dll
 0000:ffc23000       .debug$S                   10000000     crypt32:CRYPT32.dll
 0000:ffc23000       .debug$S                   10000000     crypt32:CRYPT32.dll
 0000:ffc23000       .debug$S                   10000000     crypt32:CRYPT32.dll
 0000:ffc23000       .debug$S                   10000000     crypt32:CRYPT32.dll
 0000:ffc23000       .debug$S                   10000000     crypt32:CRYPT32.dll
 0000:ffc23000       .debug$S                   10000000     crypt32:CRYPT32.dll
 0000:ffc23000       .debug$S                   10000000     rpcrt4:RPCRT4.dll
 0000:ffc23000       .debug$S                   10000000     wtsapi32:WTSAPI32.dll
 0000:ffc23000       .debug$S                   10000000     wtsapi32:WTSAPI32.dll
 0000:ffc23000       .debug$S                   10000000     wtsapi32:WTSAPI32.dll
 0000:ffc23000       .debug$S                   10000000     kernel32:KERNEL32.dll
 0000:ffc23000       .debug$S                   10000000     kernel32:KERNEL32.dll
 0000:ffc23000       .debug$S                   10000000     kernel32:KERNEL32.dll
 0000:ffc23000       .debug$S                   10000000     kernel32:KERNEL32.dll
 0000:ffc23000       .debug$S                   10000000     kernel32:KERNEL32.dll
 0000:ffc23000       .debug$S                   10000000     kernel32:KERNEL32.dll
 0000:ffc23000       .debug$S                   10000000     kernel32:KERNEL32.dll
 0000:ffc23000       .debug$S                   10000000     kernel32:KERNEL32.dll
 0000:ffc23000       .debug$S                   10000000     kernel32:KERNEL32.dll
 0000:ffc23000       .debug$S                   10000000     kernel32:KERNEL32.dll
 0000:ffc23000       .debug$S                   10000000     kernel32:KERNEL32.dll
 0000:ffc23000       .debug$S                   10000000     kernel32:KERNEL32.dll
 0000:ffc23000       .debug$S                   10000000     kernel32:KERNEL32.dll
 0000:ffc23000       .debug$S                   10000000     kernel32:KERNEL32.dll
 0000:ffc23000       .debug$S                   10000000     kernel32:KERNEL32.dll
 0000:ffc23000       .debug$S                   10000000     kernel32:KERNEL32.dll
 0000:ffc23000       .debug$S                   10000000     kernel32:KERNEL32.dll
 0000:ffc23000       .debug$S                   10000000     kernel32:KERNEL32.dll
 0000:ffc23000       .debug$S                   10000000     kernel32:KERNEL32.dll
 0000:ffc23000       .debug$S                   10000000     kernel32:KERNEL32.dll
 0000:ffc23000       .debug$S                   10000000     kernel32:KERNEL32.dll
 0000:ffc23000       .debug$S                   10000000     kernel32:KERNEL32.dll
 0000:ffc23000       .debug$S                   10000000     kernel32:KERNEL32.dll
 0000:ffc23000       .debug$S                   10000000     kernel32:KERNEL32.dll
 0000:ffc23000       .debug$S                   10000000     kernel32:KERNEL32.dll
 0000:ffc23000       .debug$S                   10000000     kernel32:KERNEL32.dll
 0000:ffc23000       .debug$S                   10000000     kernel32:KERNEL32.dll
 0000:ffc23000       .debug$S                   10000000     kernel32:KERNEL32.dll
 0000:ffc23000       .debug$S                   10000000     kernel32:KERNEL32.dll
 0000:ffc23000       .debug$S                   10000000     kernel32:KERNEL32.dll
 0000:ffc23000       .debug$S                   10000000     kernel32:KERNEL32.dll
 0000:ffc23000       .debug$S                   10000000     kernel32:KERNEL32.dll
 0000:ffc23000       .debug$S                   10000000     kernel32:KERNEL32.dll
 0000:ffc23000       .debug$S                   10000000     kernel32:KERNEL32.dll
 0000:ffc23000       .debug$S                   10000000     kernel32:KERNEL32.dll
 0000:ffc23000       .debug$S                   10000000     kernel32:KERNEL32.dll
 0000:ffc23000       .debug$S                   10000000     kernel32:KERNEL32.dll
 0000:ffc23000       .debug$S                   10000000     kernel32:KERNEL32.dll
 0000:ffc23000       .debug$S                   10000000     kernel32:KERNEL32.dll
 0000:ffc23000       .debug$S                   10000000     kernel32:KERNEL32.dll
 0000:ffc23000       .debug$S                   10000000     kernel32:KERNEL32.dll
 0000:ffc23000       .debug$S                   10000000     kernel32:KERNEL32.dll
 0000:ffc23000       .debug$S                   10000000     kernel32:KERNEL32.dll
 0000:ffc23000       .debug$S                   10000000     kernel32:KERNEL32.dll
 0000:ffc23000       .debug$S                   10000000     setupapi:SETUPAPI.dll
 0000:ffc23000       .debug$S                   10000000     kernel32:KERNEL32.dll
 0000:ffc23000       .debug$S                   10000000     kernel32:KERNEL32.dll
 0000:ffc23000       .debug$S                   10000000     kernel32:KERNEL32.dll
 0000:ffc23000       .debug$S                   10000000     kernel32:KERNEL32.dll
 0000:ffc23000       .debug$S                   10000000     kernel32:KERNEL32.dll
 0000:ffc23000       .debug$S                   10000000     kernel32:KERNEL32.dll
 0000:ffc23000       .debug$S                   10000000     kernel32:KERNEL32.dll
 0000:ffc23000       .debug$S                   10000000     kernel32:KERNEL32.dll
 0000:ffc23000       .debug$S                   10000000     kernel32:KERNEL32.dll
 0000:ffc23000       .debug$S                   10000000     kernel32:KERNEL32.dll
 0000:ffc23000       .debug$S                   10000000     kernel32:KERNEL32.dll
 0000:ffc23000       .debug$S                   10000000     kernel32:KERNEL32.dll
 0000:ffc23000       .debug$S                   10000000     kernel32:KERNEL32.dll
 0000:ffc23000       .debug$S                   10000000     kernel32:KERNEL32.dll
 0000:ffc23000       .debug$S                   10000000     kernel32:KERNEL32.dll
 0000:ffc23000       .debug$S                   10000000     kernel32:KERNEL32.dll
 0000:ffc23000       .debug$S                   10000000     kernel32:KERNEL32.dll
 0000:ffc23000       .debug$S                   10000000     kernel32:KERNEL32.dll
 0000:ffc23000       .debug$S                   10000000     kernel32:KERNEL32.dll
 0000:ffc23000       .debug$S                   10000000     kernel32:KERNEL32.dll
 0000:ffc23000       .debug$S                   10000000     kernel32:KERNEL32.dll
 0000:ffc23000       .debug$S                   10000000     kernel32:KERNEL32.dll
 0000:ffc23000       .debug$S                   10000000     kernel32:KERNEL32.dll
 0000:ffc23000       .debug$S                   10000000     kernel32:KERNEL32.dll
 0000:ffc23000       .debug$S                   10000000     kernel32:KERNEL32.dll
 0000:ffc23000       .debug$S                   10000000     kernel32:KERNEL32.dll
 0000:ffc23000       .debug$S                   10000000     kernel32:KERNEL32.dll
 0000:ffc23000       .debug$S                   10000000     kernel32:KERNEL32.dll
 0000:ffc23000       .debug$S                   10000000     kernel32:KERNEL32.dll
 0000:ffc23000       .debug$S                   10000000     kernel32:KERNEL32.dll
 0000:ffc23000       .debug$S                   10000000     kernel32:KERNEL32.dll
 0000:ffc23000       .debug$S                   10000000     kernel32:KERNEL32.dll
 0000:ffc23000       .debug$S                   10000000     kernel32:KERNEL32.dll
 0000:ffc23000       .debug$S                   10000000     kernel32:KERNEL32.dll
 0000:ffc23000       .debug$S                   10000000     kernel32:KERNEL32.dll
 0000:ffc23000       .debug$S                   10000000     kernel32:KERNEL32.dll
 0000:ffc23000       .debug$S                   10000000     kernel32:KERNEL32.dll
 0000:ffc23000       .debug$S                   10000000     kernel32:KERNEL32.dll
 0000:ffc23000       .debug$S                   10000000     kernel32:KERNEL32.dll
 0000:ffc23000       .debug$S                   10000000     kernel32:KERNEL32.dll
 0000:ffc23000       .debug$S                   10000000     kernel32:KERNEL32.dll
 0000:ffc23000       .debug$S                   10000000     kernel32:KERNEL32.dll
 0000:ffc23000       .debug$S                   10000000     kernel32:KERNEL32.dll
 0000:ffc23000       .debug$S                   10000000     kernel32:KERNEL32.dll
 0000:ffc23000       .debug$S                   10000000     kernel32:KERNEL32.dll
 0000:ffc23000       .debug$S                   10000000     kernel32:KERNEL32.dll
 0000:ffc23000       .debug$S                   10000000     kernel32:KERNEL32.dll
 0000:ffc23000       .debug$S                   10000000     kernel32:KERNEL32.dll
 0000:ffc23000       .debug$S                   10000000     kernel32:KERNEL32.dll
 0000:ffc23000       .debug$S                   10000000     kernel32:KERNEL32.dll
 0000:ffc23000       .debug$S                   10000000     kernel32:KERNEL32.dll
 0000:ffc23000       .debug$S                   10000000     kernel32:KERNEL32.dll
 0000:ffc23000       .debug$S                   10000000     kernel32:KERNEL32.dll
 0000:ffc23000       .debug$S                   10000000     kernel32:KERNEL32.dll
 0000:ffc23000       .debug$S                   10000000     kernel32:KERNEL32.dll
 0000:ffc23000       .debug$S                   10000000     kernel32:KERNEL32.dll
 0000:ffc23000       .debug$S                   10000000     kernel32:KERNEL32.dll
 0000:ffc23000       .debug$S                   10000000     kernel32:KERNEL32.dll
 0000:ffc23000       .debug$S                   10000000     kernel32:KERNEL32.dll
 0000:ffc23000       .debug$S                   10000000     kernel32:KERNEL32.dll
 0000:ffc23000       .debug$S                   10000000     kernel32:KERNEL32.dll
 0000:ffc23000       .debug$S                   10000000     kernel32:KERNEL32.dll
 0000:ffc23000       .debug$S                   10000000     kernel32:KERNEL32.dll
 0000:ffc23000       .debug$S                   10000000     kernel32:KERNEL32.dll
 0000:ffc23000       .debug$S                   10000000     kernel32:KERNEL32.dll
 0000:ffc23000       .debug$S                   10000000     kernel32:KERNEL32.dll
 0000:ffc23000       .debug$S                   10000000     kernel32:KERNEL32.dll
 0000:ffc23000       .debug$S                   10000000     kernel32:KERNEL32.dll
 0000:ffc23000       .debug$S                   10000000     user32:USER32.dll
 0002:fffb9000       .idata$6                   10000000     user32:USER32.dll
 0000:ffc23000       .debug$S                   10000000     gdi32:GDI32.dll
 0000:ffc23000       .debug$S                   10000000     gdi32:GDI32.dll
 0000:ffc23000       .debug$S                   10000000     gdi32:GDI32.dll
 0000:ffc23000       .debug$S                   10000000     gdi32:GDI32.dll
 0000:ffc23000       .debug$S                   10000000     gdi32:GDI32.dll
 0000:ffc23000       .debug$S                   10000000     gdi32:GDI32.dll
 0000:ffc23000       .debug$S                   10000000     gdi32:GDI32.dll
 0000:ffc23000       .debug$S                   10000000     gdi32:GDI32.dll
 0000:ffc23000       .debug$S                   10000000     gdi32:GDI32.dll
 0000:ffc23000       .debug$S                   10000000     gdi32:GDI32.dll
 0002:fffb9000       .idata$6                   10000000     gdi32:GDI32.dll
 0000:ffc23000       .debug$S                   10000000     ole32:ole32.dll
 0000:ffc23000       .debug$S                   10000000     ole32:ole32.dll
 0000:ffc23000       .debug$S                   10000000     ole32:ole32.dll
 0000:ffc23000       .debug$S                   10000000     ole32:ole32.dll
 0000:ffc23000       .debug$S                   10000000     oleaut32:OLEAUT32.dll
 0000:ffc23000       .debug$S                   10000000     oleaut32:OLEAUT32.dll
 0000:ffc23000       .debug$S                   10000000     oleaut32:OLEAUT32.dll
 0000:ffc23000       .debug$S                   10000000     oleaut32:OLEAUT32.dll
 0000:ffc23000       .debug$S                   10000000     oleaut32:OLEAUT32.dll
 0000:ffc23000       .debug$S                   10000000     oleaut32:OLEAUT32.dll
 0001:00000000       ??__E_iecollector@@YAXXZ   10001000 f   * CIL library *:* CIL module *
 0001:00000030       ??__Efd@@YAXXZ             10001030 f   * CIL library *:* CIL module *
 0001:00000447       __catch$??0CIHVS_ADAPTER_CONTEXT@@QAE@PAU_DOT11_ADAPTER@@PAX@Z$0 10001447 f i * CIL library *:* CIL module *
 0001:00003410       ?IsHexStringConversionNeeded@@YAHPBU_IHV_CREDENTIAL@@@Z 10004410 f   * CIL library *:* CIL module *
 0001:00005760       ?SendUIRequestToReceiveCredential@@YAKPAVCIHVS_ADAPTER_CONTEXT@@KPAPAU_IHV_CREDENTIAL@@@Z 10006760 f   * CIL library *:* CIL module *
 0001:00005930       ?DoWapiPreAssociate@@YAKPAVCIHVS_ADAPTER_CONTEXT@@PAK@Z 10006930 f   * CIL library *:* CIL module *
 0001:00005a30       ?wapi_psk_init_params@@YAKPAU_WAPI_SESSION@@PBEKPAUCNTAP_PARA@@PAK@Z 10006a30 f   * CIL library *:* CIL module *
 0001:00005aa0       ?wapi_cert_init_params@@YAKPAU_WAPI_SESSION@@PBEKPAUCNTAP_PARA@@PAK@Z 10006aa0 f   * CIL library *:* CIL module *
 0001:00005bb0       ?DoWapiPreAssociateParams@@YGKPAVCIHVS_ADAPTER_CONTEXT@@PAU_WAPI_PRE_ASSOCIATE_PARAMS@@PAK@Z 10006bb0 f   * CIL library *:* CIL module *
 0001:00006050       ?WapiSetCurrentProfile@@YAKPAX0PBU_PROFILE_PARAMS_@@PBU_IHV_CREDENTIAL@@@Z 10007050 f   * CIL library *:* CIL module *
 0001:00006210       ?wlc_parse_wapi_ie@@YAHPAUwlc_info@@PAUbcm_tlv@@PAUwlc_bss_info@@@Z 10007210 f   * CIL library *:* CIL module *
 0001:00006c30       ?crypt_init@@YAKPAK@Z      10007c30 f   * CIL library *:* CIL module *
 0001:00006cc0       ?timerFunc@@YGXPAXE@Z      10007cc0 f   * CIL library *:* CIL module *
 0001:000070e0       ?cng_setup_hash@@YAHPBGKPAPAXPAPAEPAK3@Z 100080e0 f   * CIL library *:* CIL module *
 0001:000071f0       ?cng_compute_hash@@YAHPAXPAEK1K1K1K@Z 100081f0 f   * CIL library *:* CIL module *
 0001:00007280       ?ecc192_hash_message@@YAHPBEKPAPAEPAK@Z 10008280 f   * CIL library *:* CIL module *
 0001:000080c0       $LN18                      100090c0     * CIL library *:* CIL module *
 0001:000080c8       $LN15                      100090c8     * CIL library *:* CIL module *
 0001:00008fc0       ?InitializeBcmEvent@@YAHPAUBCMEVENT@@PBXK@Z 10009fc0 f   * CIL library *:* CIL module *
 0001:00009080       ?GetBcnPrbData@@YAPAXPAVCIHVS_ADAPTER_CONTEXT@@QBEPAUIECOLLECTORBCNPRBDATA@@@Z 1000a080 f   * CIL library *:* CIL module *
 0001:00009200       ?WFDDeviceAddedThreadProc@@YGKPAX@Z 1000a200 f   * CIL library *:* CIL module *
 0001:000092c0       ?OnWfdDevicePaired@@YAXPAXPBE@Z 1000a2c0 f   * CIL library *:* CIL module *
 0001:00009350       ?OnBcmEvent@@YAXPAUBCMEVENT@@@Z 1000a350 f   * CIL library *:* CIL module *
 0001:00009420       $LN12                      1000a420     * CIL library *:* CIL module *
 0001:00009430       $LN10                      1000a430     * CIL library *:* CIL module *
 0001:00009490       ?OnNdisIndication@@YAXKPBXK@Z 1000a490 f   * CIL library *:* CIL module *
 0001:00009980       _wlan_deauth               1000a980 f   * CIL library *:* CIL module *
 0001:00009a10       _wai_timer_run             1000aa10 f   * CIL library *:* CIL module *
 0001:00009ac0       _wai_timer_create          1000aac0 f   * CIL library *:* CIL module *
 0001:00009af0       _wai_timer_destory         1000aaf0 f   * CIL library *:* CIL module *
 0001:00009c70       _str2byte                  1000ac70 f   * CIL library *:* CIL module *
 0001:00009d30       _iwn_password_bk_derivation 1000ad30 f   * CIL library *:* CIL module *
 0001:0000a440       _ParseLength               1000b440 f   * CIL library *:* CIL module *
 0001:0000a4a0       _ParseSequence             1000b4a0 f   * CIL library *:* CIL module *
 0001:0000a520       _ParseOID                  1000b520 f   * CIL library *:* CIL module *
 0001:0000a5d0       _ParseString               1000b5d0 f   * CIL library *:* CIL module *
 0001:0000a66c       $LN28                      1000b66c     * CIL library *:* CIL module *
 0001:0000a674       $LN26                      1000b674     * CIL library *:* CIL module *
 0001:0000a690       _ParseValidity             1000b690 f   * CIL library *:* CIL module *
 0001:0000a750       _hlpCheckOIDAndParam       1000b750 f   * CIL library *:* CIL module *
 0001:0000baf0       _X509_wapi_get_subject_name 1000caf0 f   * CIL library *:* CIL module *
 0001:0000bb00       _X509_wapi_get_issuer_name 1000cb00 f   * CIL library *:* CIL module *
 0001:0000bb10       _X509_wapi_get_serial_number 1000cb10 f   * CIL library *:* CIL module *
 0001:0000bb20       _X509_wapi_get_pubkey      1000cb20 f   * CIL library *:* CIL module *
 0001:0000bb30       _init_struct_x509          1000cb30 f   * CIL library *:* CIL module *
 0001:0000bbc0       _malloc_rxfrag             1000cbc0 f   * CIL library *:* CIL module *
 0001:0000be60       _check_wai_frame           1000ce60 f   * CIL library *:* CIL module *
 0001:0000bf70       _check_addid               1000cf70 f   * CIL library *:* CIL module *
 0001:0000c000       _check_iv                  1000d000 f   * CIL library *:* CIL module *
 0001:0000c050       _cmp_var_struct            1000d050 f   * CIL library *:* CIL module *
 0001:0000c0e0       _asue_initialize_alg       1000d0e0 f   * CIL library *:* CIL module *
 0001:0000c310       _asue_x_x_p_derivation     1000d310 f   * CIL library *:* CIL module *
 0001:0000c380       _asue_certauthbk_derivation 1000d380 f   * CIL library *:* CIL module *
 0001:0000c7d0       $LN40                      1000d7d0     * CIL library *:* CIL module *
 0001:0000c800       _waigroup_cert_1_3         1000d800 f   * CIL library *:* CIL module *
 0001:0000ca80       _waigroup_cert_2_3_send    1000da80 f   * CIL library *:* CIL module *
 0001:0000ce60       _waigroup_cert_3_3         1000de60 f   * CIL library *:* CIL module *
 0001:0000d4c0       _waigroup_unicast_1_3      1000e4c0 f   * CIL library *:* CIL module *
 0001:0000d750       _waigroup_unicast_2_3_send 1000e750 f   * CIL library *:* CIL module *
 0001:0000d8d0       _waigroup_unicast_3_3      1000e8d0 f   * CIL library *:* CIL module *
 0001:0000dae0       _waigroup_multicast_1_2    1000eae0 f   * CIL library *:* CIL module *
 0001:0000dcf0       _waigroup_multicast_2_2_send 1000ecf0 f   * CIL library *:* CIL module *
 0001:0000deb0       _wapi_install_usk          1000eeb0 f   * CIL library *:* CIL module *
 0001:0000f1d8       $LN88                      100101d8     * CIL library *:* CIL module *
 0001:0000f1f4       $LN84                      100101f4     * CIL library *:* CIL module *
 0001:0000f7a8       $LN160                     100107a8     * CIL library *:* CIL module *
 0001:00010b80       ?_EC192GetAlgProperty@@YGJPAU_EC192_ALG_OBJECT@@PB_WPAEKPAKK@Z 10011b80 f   * CIL library *:* CIL module *
 0001:00010d00       ?_EC192GetKeyProperty@@YGJPAU_EC192_KEY_OBJECT@@PB_WPAEKPAKK@Z 10011d00 f   * CIL library *:* CIL module *
 0001:00010ef4       $LN60                      10011ef4     * CIL library *:* CIL module *
 0001:00010f04       $LN57                      10011f04     * CIL library *:* CIL module *
 0001:00011a70       ?StringLengthWorkerW@@YGJPB_WIPAI@Z 10012a70 f   * CIL library *:* CIL module *
 0001:00011b3c       $LN18                      10012b3c     * CIL library *:* CIL module *
 0001:00011b50       $LN16                      10012b50     * CIL library *:* CIL module *
 0001:00013ac0       ?CreateDirectoryAndParents@@YAJPB_W@Z 10014ac0 f   * CIL library *:* CIL module *
 0001:00014ae0       _eckey_privkey2bin         10015ae0 f   * CIL library *:* CIL module *
 0001:00014b40       _eckey_pubkey2bin          10015b40 f   * CIL library *:* CIL module *
 0001:00014bb0       _eckey_bin2privkey         10015bb0 f   * CIL library *:* CIL module *
 0001:00014c40       _eckey_bin2pubkey          10015c40 f   * CIL library *:* CIL module *
 0001:00014cf0       _eckey_sha256_reduce       10015cf0 f   * CIL library *:* CIL module *
 0001:00014e10       _curve_get_ecgroup         10015e10 f   * CIL library *:* CIL module *
 0001:00015020       _get_eckey                 10016020 f   * CIL library *:* CIL module *
 0001:00015070       _bin2ecdsa_sig             10016070 f   * CIL library *:* CIL module *
 0001:000150d0       _ecdsa_sig2bin             100160d0 f   * CIL library *:* CIL module *
 0001:0001569b       __onexit_nolock            1001669b f   LIBCMT:onexit.obj
 0001:000158c0       $$000000                   100168c0     LIBCMT:strncpy.obj
 0001:00015c30       ?wcstoxl@@YAKPB_WPAPB_WHH@Z 10016c30 f   LIBCMT:wcstol.obj
 0001:00016722       _xtow@16                   10017722 f   LIBCMT:xtow.obj
 0001:00016b95       ___DllMainCRTStartup       10017b95 f   LIBCMT:dllcrt0.obj
 0001:00016fc0       $$000000                   10017fc0     LIBCMT:sehprolg4.obj
 0001:000174c5       __initterm                 100184c5 f   LIBCMT:crt0dat.obj
 0001:00017515       _doexit                    10018515 f   LIBCMT:crt0dat.obj
 0001:00017750       $$000000                   10018750     LIBCMT:strcmp.obj
 0001:00018851       $LN277                     10019851     LIBCMT:output.obj
 0001:00018871       _write_char                10019871 f   LIBCMT:output.obj
 0001:000188b7       _write_multi_char          100198b7 f   LIBCMT:output.obj
 0001:000188e3       _write_string              100198e3 f   LIBCMT:output.obj
 0001:00019451       ?CPtoLocaleName@@YAPB_WH@Z 1001a451 f   LIBCMT:mbctype.obj
 0001:0001948b       ?getSystemCP@@YAHH@Z       1001a48b f   LIBCMT:mbctype.obj
 0001:000194f7       ?setSBCS@@YAXPAUthreadmbcinfostruct@@@Z 1001a4f7 f   LIBCMT:mbctype.obj
 0001:00019560       ?setSBUpLow@@YAXPAUthreadmbcinfostruct@@@Z 1001a560 f   LIBCMT:mbctype.obj
 0001:0001a330       $$000000                   1001b330     LIBCMT:ulldvrm.obj
 0001:0001a962       _parse_cmdline             1001b962 f   LIBCMT:stdargv.obj
 0001:0001b090       $$000000                   1001c090     LIBCMT:exsup4.obj
 0001:0001b120       __unwind_handler4          1001c120 f   LIBCMT:exsup4.obj
 0001:0001b564       _siglookup                 1001c564 f   LIBCMT:winsig.obj
 0001:0001b730       $$000000                   1001c730     LIBCMT:strlen.obj
 0001:0001b7c0       $$000000                   1001c7c0     LIBCMT:memset.obj
 0001:0001c6fa       _flsall                    1001d6fa f   LIBCMT:fflush.obj
 0001:0001d3fa       $LN284                     1001e3fa     LIBCMT:woutputs.obj
 0001:0001d41a       _write_char                1001e41a f   LIBCMT:woutputs.obj
 0001:0001d450       _write_multi_char          1001e450 f   LIBCMT:woutputs.obj
 0001:0001d47c       _write_string              1001e47c f   LIBCMT:woutputs.obj
 0001:0001dc68       ?__crtLCMapStringA_stat@@YAHPAUlocaleinfo_struct@@PB_WKPBDHPADHHH@Z 1001ec68 f   LIBCMT:a_map.obj
 0001:0001decc       ?__crtGetStringTypeA_stat@@YAHPAUlocaleinfo_struct@@KPBDHPAGHH@Z 1001eecc f   LIBCMT:a_str.obj
 0001:0001e030       $$000000                   1001f030     LIBCMT:memcpy.obj
 0001:0001e280       LeadUpVec                  1001f280     LIBCMT:memcpy.obj
 0001:0001e2fc       UnwindUpVec                1001f2fc     LIBCMT:memcpy.obj
 0001:0001e368       TrailUpVec                 1001f368     LIBCMT:memcpy.obj
 0001:0001e40c       LeadDownVec                1001f40c     LIBCMT:memcpy.obj
 0001:0001e498       UnwindDownVec              1001f498     LIBCMT:memcpy.obj
 0001:0001e504       TrailDownVec               1001f504     LIBCMT:memcpy.obj
 0001:0001e900       $$000000                   1001f900     LIBCMT:llmul.obj
 0001:0001e9ab       ?x_ismbbtype_l@@YAHPAUlocaleinfo_struct@@IHH@Z 1001f9ab f   LIBCMT:ismbbyte.obj
 0001:0001ec40       $$000000                   1001fc40     LIBCMT:exsup.obj
 0001:0001ec60       __unwind_handler           1001fc60 f   LIBCMT:exsup.obj
 0001:0001f260       $$000000                   10020260     LIBCMT:chkstk.obj
 0001:0001f5c0       $$000000                   100205c0     LIBCMT:alloca16.obj
 0001:00020849       $LN319                     10021849     LIBCMT:strgtold.obj
 0001:00020c98       __cftoe2_l                 10021c98 f   LIBCMT:cvt.obj
 0001:00020eb3       __cftof2_l                 10021eb3 f   LIBCMT:cvt.obj
 0001:000212dd       __shift                    100222dd f   LIBCMT:cvt.obj
 0001:00021a00       $$000000                   10022a00     LIBCMT:memmove.obj
 0001:00021c50       LeadUpVec                  10022c50     LIBCMT:memmove.obj
 0001:00021ccc       UnwindUpVec                10022ccc     LIBCMT:memmove.obj
 0001:00021d38       TrailUpVec                 10022d38     LIBCMT:memmove.obj
 0001:00021ddc       LeadDownVec                10022ddc     LIBCMT:memmove.obj
 0001:00021e68       UnwindDownVec              10022e68     LIBCMT:memmove.obj
 0001:00021ed4       TrailDownVec               10022ed4     LIBCMT:memmove.obj
 0001:00022050       $$000000                   10023050     LIBCMT:strrchr.obj
 0001:00022390       $$000000                   10023390     LIBCMT:lldvrm.obj
 0001:00022470       $$000000                   10023470     LIBCMT:ullshr.obj
 0001:00022ebe       ___hw_cw_sse2              10023ebe f   LIBCMT:ieee87.obj
 0001:00023267       __hw_cw                    10024267 f   LIBCMT:ieee87.obj
 0001:00023ed0       _bn_expand_internal        10024ed0 f   libeay32120:bn_lib.obj
 0001:00025830       _BN_div_no_branch          10026830 f   libeay32120:bn_div.obj
 0001:000260b0       _sha256_block_data_order   100270b0 f   libeay32120:sha256.obj
 0001:00027390       _BN_POOL_finish            10028390 f   libeay32120:bn_ctx.obj
 0001:000273e0       _BN_POOL_get               100283e0 f   libeay32120:bn_ctx.obj
 0001:000274a0       _BN_POOL_release           100284a0 f   libeay32120:bn_ctx.obj
 0001:000274e0       _BN_STACK_push             100284e0 f   libeay32120:bn_ctx.obj
 0001:000277d0       _default_malloc_ex         100287d0 f   libeay32120:mem.obj
 0001:000277e0       _default_realloc_ex        100287e0 f   libeay32120:mem.obj
 0001:00027800       _default_malloc_locked_ex  10028800 f   libeay32120:mem.obj
 0001:00027ab0       _bn_rand_range             10028ab0 f   libeay32120:bn_rand.obj
 0001:00027c20       _bnrand                    10028c20 f   libeay32120:bn_rand.obj
 0001:00027dd0       _int_err_get               10028dd0 f   libeay32120:err.obj
 0001:00027e50       _int_err_del               10028e50 f   libeay32120:err.obj
 0001:00027ea0       _int_err_get_item          10028ea0 f   libeay32120:err.obj
 0001:00027f40       _int_err_set_item          10028f40 f   libeay32120:err.obj
 0001:00028000       _int_err_del_item          10029000 f   libeay32120:err.obj
 0001:000280a0       _int_thread_get            100290a0 f   libeay32120:err.obj
 0001:00028130       _int_thread_release        10029130 f   libeay32120:err.obj
 0001:00028170       _int_thread_get_item       10029170 f   libeay32120:err.obj
 0001:00028230       _int_thread_set_item       10029230 f   libeay32120:err.obj
 0001:000282f0       _int_thread_del_item       100292f0 f   libeay32120:err.obj
 0001:000283f0       _int_err_get_next_lib      100293f0 f   libeay32120:err.obj
 0001:00028430       _ERR_STATE_free            10029430 f   libeay32120:err.obj
 0001:00028920       _ex_cmp_cb                 10029920 f   libeay32120:err.obj
 0001:00028920       _pid_cmp                   10029920 f   libeay32120:err.obj
 0001:00028920       _err_cmp                   10029920 f   libeay32120:err.obj
 0001:00028930       _err_hash                  10029930 f   libeay32120:err.obj
 0001:00028970       _pid_hash                  10029970 f   libeay32120:err.obj
 0001:00028980       _ECDSA_DATA_new_method     10029980 f   libeay32120:ecs_lib.obj
 0001:00028aa0       _ecdsa_data_dup            10029aa0 f   libeay32120:ecs_lib.obj
 0001:00028ac0       _ecdsa_data_free           10029ac0 f   libeay32120:ecs_lib.obj
 0001:00028b00       _file_write                10029b00 f   libeay32120:bss_file.obj
 0001:00028b40       _file_read                 10029b40 f   libeay32120:bss_file.obj
 0001:00028bc0       _file_puts                 10029bc0 f   libeay32120:bss_file.obj
 0001:00028c10       _file_gets                 10029c10 f   libeay32120:bss_file.obj
 0001:00028c50       _file_ctrl                 10029c50 f   libeay32120:bss_file.obj
 0001:00028e74       $LN40                      10029e74     libeay32120:bss_file.obj
 0001:00028ea0       $LN32                      10029ea0     libeay32120:bss_file.obj
 0001:00028f30       _file_new                  10029f30 f   libeay32120:bss_file.obj
 0001:00028f50       _file_free                 10029f50 f   libeay32120:bss_file.obj
 0001:00029170       _compute_wNAF              1002a170 f   libeay32120:ec_mult.obj
 0001:00029360       _ec_pre_comp_clear_free    1002a360 f   libeay32120:ec_mult.obj
 0001:000293e0       _ec_pre_comp_dup           1002a3e0 f   libeay32120:ec_mult.obj
 0001:00029400       _ec_pre_comp_free          1002a400 f   libeay32120:ec_mult.obj
 0001:00029460       _ec_pre_comp_new           1002a460 f   libeay32120:ec_mult.obj
 0001:0002a370       _bn_new                    1002b370 f   libeay32120:x_bignum.obj
 0001:0002a390       _bn_free                   1002b390 f   libeay32120:x_bignum.obj
 0001:0002a3d0       _bn_i2c                    1002b3d0 f   libeay32120:x_bignum.obj
 0001:0002a430       _bn_c2i                    1002b430 f   libeay32120:x_bignum.obj
 0001:0002a5e4       $LN22                      1002b5e4     libeay32120:tasn_new.obj
 0001:0002a5f8       $LN19                      1002b5f8     libeay32120:tasn_new.obj
 0001:0002a6c0       _asn1_item_clear           1002b6c0 f   libeay32120:tasn_new.obj
 0001:0002a728       $LN25                      1002b728     libeay32120:tasn_new.obj
 0001:0002a750       _asn1_item_ex_combine_new  1002b750 f   libeay32120:tasn_new.obj
 0001:0002a944       $LN48                      1002b944     libeay32120:tasn_new.obj
 0001:0002aa94       $LN29                      1002ba94     libeay32120:tasn_fre.obj
 0001:0002aaa8       $LN22                      1002baa8     libeay32120:tasn_fre.obj
 0001:0002ab50       _asn1_item_combine_free    1002bb50 f   libeay32120:tasn_fre.obj
 0001:0002ad04       $LN43                      1002bd04     libeay32120:tasn_fre.obj
 0001:0002b47c       $LN101                     1002c47c     libeay32120:tasn_dec.obj
 0001:0002b4c0       _asn1_check_eoc            1002c4c0 f   libeay32120:tasn_dec.obj
 0001:0002b4f0       _asn1_check_tlen           1002c4f0 f   libeay32120:tasn_dec.obj
 0001:0002b6b0       _asn1_collect              1002c6b0 f   libeay32120:tasn_dec.obj
 0001:0002b930       _asn1_d2i_ex_primitive     1002c930 f   libeay32120:tasn_dec.obj
 0001:0002bed8       $LN40                      1002ced8     libeay32120:tasn_dec.obj
 0001:0002bef0       _asn1_find_end             1002cef0 f   libeay32120:tasn_dec.obj
 0001:0002c020       _asn1_template_ex_d2i      1002d020 f   libeay32120:tasn_dec.obj
 0001:0002c1a0       _asn1_template_noexp_d2i   1002d1a0 f   libeay32120:tasn_dec.obj
 0001:0002c744       $LN53                      1002d744     libeay32120:tasn_enc.obj
 0001:0002c8d0       $LN31                      1002d8d0     libeay32120:tasn_enc.obj
 0001:0002c8f0       _asn1_i2d_ex_primitive     1002d8f0 f   libeay32120:tasn_enc.obj
 0001:0002c9e0       _asn1_item_flags_i2d       1002d9e0 f   libeay32120:tasn_enc.obj
 0001:0002ca70       _asn1_set_seq_out          1002da70 f   libeay32120:tasn_enc.obj
 0001:0002cc70       _asn1_template_ex_i2d      1002dc70 f   libeay32120:tasn_enc.obj
 0001:0002cf50       _der_cmp                   1002df50 f   libeay32120:tasn_enc.obj
 0001:0002cfd0       _ECDH_DATA_new_method      1002dfd0 f   libeay32120:ech_lib.obj
 0001:0002d100       _ecdh_data_dup             1002e100 f   libeay32120:ech_lib.obj
 0001:0002d120       _ecdh_data_free            1002e120 f   libeay32120:ech_lib.obj
 0001:000311d0       _app_info_cmp              100321d0 f   libeay32120:mem_dbg.obj
 0001:000311f0       _app_info_hash             100321f0 f   libeay32120:mem_dbg.obj
 0001:00031220       _pop_info                  10032220 f   libeay32120:mem_dbg.obj
 0001:000312a0       _contract                  100322a0 f   libeay32120:lhash.obj
 0001:00031340       _expand                    10032340 f   libeay32120:lhash.obj
 0001:00031410       _getrn                     10032410 f   libeay32120:lhash.obj
 0001:000317c0       _int_new_class             100327c0 f   libeay32120:ex_data.obj
 0001:00031800       _int_cleanup               10032800 f   libeay32120:ex_data.obj
 0001:00031850       _int_get_new_index         10032850 f   libeay32120:ex_data.obj
 0001:00031870       _int_new_ex_data           10032870 f   libeay32120:ex_data.obj
 0001:000319b0       _int_dup_ex_data           100329b0 f   libeay32120:ex_data.obj
 0001:00031b30       _int_free_ex_data          10032b30 f   libeay32120:ex_data.obj
 0001:00031dd0       _def_add_index             10032dd0 f   libeay32120:ex_data.obj
 0001:00031ed0       _def_cleanup_cb            10032ed0 f   libeay32120:ex_data.obj
 0001:00031ef0       _def_cleanup_util_cb       10032ef0 f   libeay32120:ex_data.obj
 0001:00031f00       _def_get_class             10032f00 f   libeay32120:ex_data.obj
 0001:00031ff0       _ex_data_check             10032ff0 f   libeay32120:ex_data.obj
 0001:00032050       _ex_hash_cb                10033050 f   libeay32120:ex_data.obj
 0001:00032460       _asn1_get_length           10033460 f   libeay32120:asn1_lib.obj
 0001:00032500       _ecdsa_do_sign             10033500 f   libeay32120:ecs_ossl.obj
 0001:000327d0       _ecdsa_sign_setup          100337d0 f   libeay32120:ecs_ossl.obj
 0001:00032aa0       _ecdsa_do_verify           10033aa0 f   libeay32120:ecs_ossl.obj
 0001:00033be0       _ecdh_compute_key          10034be0 f   libeay32120:ech_ossl.obj
 0001:00037484       $LN58                      10038484     libeay32120:bn_mul.obj
 0001:00037898       $LN43                      10038898     libeay32120:bn_mul.obj
 0001:000390e0       _nist_cp_bn_0              1003a0e0 f   libeay32120:bn_nist.obj
 0001:00039120       _ec_GF2m_montgomery_point_multiply 1003a120 f   libeay32120:ec2_mult.obj
 0001:000395d0       _gf2m_Madd                 1003a5d0 f   libeay32120:ec2_mult.obj
 0001:00039700       _gf2m_Mdouble              1003a700 f   libeay32120:ec2_mult.obj
 0001:00039800       _gf2m_Mxy                  1003a800 f   libeay32120:ec2_mult.obj
 0001:0003a4e0       _bn_GF2m_mul_1x1           1003b4e0 f   libeay32120:bn_gf2m.obj
 0001:0003a690       _ssleay_rand_cleanup       1003b690 f   libeay32120:md_rand.obj
 0001:0003a6f0       _ssleay_rand_seed          1003b6f0 f   libeay32120:md_rand.obj
 0001:0003a720       _ssleay_rand_add           1003b720 f   libeay32120:md_rand.obj
 0001:0003aa60       _ssleay_rand_bytes         1003ba60 f   libeay32120:md_rand.obj
 0001:0003af30       _ssleay_rand_pseudo_bytes  1003bf30 f   libeay32120:md_rand.obj
 0001:0003af80       _ssleay_rand_status        1003bf80 f   libeay32120:md_rand.obj
 0001:0003b9b0       _BN_mod_inverse_no_branch  1003c9b0 f   libeay32120:bn_gcd.obj
 0001:0003cec0       _readtimer                 1003dec0 f   libeay32120:rand_win.obj
 0001:0003d210       _init                      1003e210 f   libeay32120:m_sha1.obj
 0001:0003d220       _update                    1003e220 f   libeay32120:m_sha1.obj
 0001:0003d240       _final                     1003e240 f   libeay32120:m_sha1.obj
 0001:0003d260       _init224                   1003e260 f   libeay32120:m_sha1.obj
 0001:0003d270       _init256                   1003e270 f   libeay32120:m_sha1.obj
 0001:0003d280       _update256                 1003e280 f   libeay32120:m_sha1.obj
 0001:0003d2a0       _final256                  1003e2a0 f   libeay32120:m_sha1.obj
 0001:0003e270       _MOD_EXP_CTIME_COPY_FROM_PREBUF 1003f270 f   libeay32120:bn_exp.obj
 0001:0003e2f0       _MOD_EXP_CTIME_COPY_TO_PREBUF 1003f2f0 f   libeay32120:bn_exp.obj
 0001:0003eb40       _sha1_block_data_order     1003fb40 f   libeay32120:sha1dgst.obj
 0001:000404f0       $$000000                   100414f0     LIBCMT:ulldiv.obj
 0001:00040670       $$000000                   10041670     LIBCMT:memchr.obj
 0001:00040770       $$000000                   10041770     LIBCMT:strchr.obj
 0001:00041620       $$000000                   10042620     LIBCMT:ullrem.obj
 0001:00041930       _shortsort                 10042930 f   LIBCMT:qsort.obj
 0001:000419a0       _swap                      100429a0 f   LIBCMT:qsort.obj
 0001:00042940       $$000000                   10043940     LIBCMT:lldiv.obj
 0001:000429f0       $$000000                   100439f0     LIBCMT:llrem.obj
 0001:00042ed3       ___createFile              10043ed3 f   LIBCMT:wopen.obj
 0001:000436b0       $$000000                   100446b0     LIBCMT:strncmp.obj
 0001:00043a00       $$000000                   10044a00     LIBCMT:_strnicm.obj
 0001:00043a61       ?CatchGuardHandler@@YA?AW4_EXCEPTION_DISPOSITION@@PAUEHExceptionRecord@@PAUCatchGuardRN@@PAX2@Z 10044a61 f   LIBCMT:_trnsctrl_.obj
 0001:00043a92       ?TranslatorGuardHandler@@YA?AW4_EXCEPTION_DISPOSITION@@PAUEHExceptionRecord@@PAUTranslatorGuardRN@@PAX2@Z 10044a92 f   LIBCMT:_trnsctrl_.obj
 0001:00043e50       $$000000                   10044e50     LIBCMT:lowhelpr.obj
 0001:00043f72       ?CallCatchBlock@@YAPAXPAUEHExceptionRecord@@PAUEHRegistrationNode@@PAU_CONTEXT@@PBU_s_FuncInfo@@PAXHK@Z 10044f72 f   LIBCMT:frame.obj
 0001:00044138       ?CallUnexpected@@YAXPBU_s_ESTypeList@@@Z 10045138 f   LIBCMT:frame.obj
 0001:00044160       __catch$?CallUnexpected@@YAXPBU_s_ESTypeList@@@Z$0 10045160 f   LIBCMT:frame.obj
 0001:00044178       ?CatchIt@@YAXPAUEHExceptionRecord@@PAUEHRegistrationNode@@PAU_CONTEXT@@PAXPBU_s_FuncInfo@@PBU_s_HandlerType@@PBU_s_CatchableType@@PBU_s_TryBlockMapEntry@@H1E@Z 10045178 f   LIBCMT:frame.obj
 0001:000441f3       ?ExFilterRethrow@@YAHPAU_EXCEPTION_POINTERS@@@Z 100451f3 f   LIBCMT:frame.obj
 0001:00044240       ?FindHandler@@YAXPAUEHExceptionRecord@@PAUEHRegistrationNode@@PAU_CONTEXT@@PAXPBU_s_FuncInfo@@EH1@Z 10045240 f   LIBCMT:frame.obj
 0001:000445db       ?FindHandlerForForeignException@@YAXPAUEHExceptionRecord@@PAUEHRegistrationNode@@PAU_CONTEXT@@PAXPBU_s_FuncInfo@@HH1@Z 100455db f   LIBCMT:frame.obj
 0001:000446f5       ?IsInExceptionSpec@@YAEPAUEHExceptionRecord@@PBU_s_ESTypeList@@@Z 100456f5 f   LIBCMT:frame.obj
 0001:00044cb0       __ehhandler$??0CIHVS_ADAPTER_CONTEXT@@QAE@PAU_DOT11_ADAPTER@@PAX@Z 10045cb0 f   * CIL library *:* CIL module *
 0001:00044cd0       __unwindfunclet$?Dot11ExtIhvInitAdapter@@YGKPAU_DOT11_ADAPTER@@PAXPAPAX@Z$0 10045cd0 f   * CIL library *:* CIL module *
 0001:00044cdb       __ehhandler$?Dot11ExtIhvInitAdapter@@YGKPAU_DOT11_ADAPTER@@PAXPAPAX@Z 10045cdb f   * CIL library *:* CIL module *
 0001:00044d00       __unwindfunclet$?Dot11ExtIhvPerformCapabilityMatch@@YGKPAXPAU_DOT11EXT_IHV_PROFILE_PARAMS@@PAU_DOT11EXT_IHV_CONNECTIVITY_PROFILE@@PAU_DOT11EXT_IHV_SECURITY_PROFILE@@PAU_DOT11_BSS_LIST@@PAK@Z$3 10045d00 f   * CIL library *:* CIL module *
 0001:00044d08       __ehhandler$?Dot11ExtIhvPerformCapabilityMatch@@YGKPAXPAU_DOT11EXT_IHV_PROFILE_PARAMS@@PAU_DOT11EXT_IHV_CONNECTIVITY_PROFILE@@PAU_DOT11EXT_IHV_SECURITY_PROFILE@@PAU_DOT11_BSS_LIST@@PAK@Z 10045d08 f   * CIL library *:* CIL module *
 0001:00044d30       __unwindfunclet$?Dot11ExtIhvValidateProfile@@YGKPAXPAU_DOT11EXT_IHV_PROFILE_PARAMS@@PAU_DOT11EXT_IHV_CONNECTIVITY_PROFILE@@PAU_DOT11EXT_IHV_SECURITY_PROFILE@@PAK@Z$2 10045d30 f   * CIL library *:* CIL module *
 0001:00044d38       __ehhandler$?Dot11ExtIhvValidateProfile@@YGKPAXPAU_DOT11EXT_IHV_PROFILE_PARAMS@@PAU_DOT11EXT_IHV_CONNECTIVITY_PROFILE@@PAU_DOT11EXT_IHV_SECURITY_PROFILE@@PAK@Z 10045d38 f   * CIL library *:* CIL module *
 0001:00044d60       __unwindfunclet$?readProfileSecurity@CIHVS_ADAPTER_CONTEXT@@QAEHPAU_DOT11EXT_IHV_SECURITY_PROFILE@@@Z$1 10045d60 f   * CIL library *:* CIL module *
 0001:00044d68       __ehhandler$?readProfileSecurity@CIHVS_ADAPTER_CONTEXT@@QAEHPAU_DOT11EXT_IHV_SECURITY_PROFILE@@@Z 10045d68 f   * CIL library *:* CIL module *
 0001:00044d90       __unwindfunclet$?xmlSet@DPTProfile@@QAEXPAUIXMLDOMDocument@@PAG@Z$0 10045d90 f   * CIL library *:* CIL module *
 0001:00044d98       __unwindfunclet$?xmlSet@DPTProfile@@QAEXPAUIXMLDOMDocument@@PAG@Z$1 10045d98 f   * CIL library *:* CIL module *
 0001:00044da0       __unwindfunclet$?xmlSet@DPTProfile@@QAEXPAUIXMLDOMDocument@@PAG@Z$2 10045da0 f   * CIL library *:* CIL module *
 0001:00044da8       __ehhandler$?xmlSet@DPTProfile@@QAEXPAUIXMLDOMDocument@@PAG@Z 10045da8 f   * CIL library *:* CIL module *
 0001:00044dd0       __unwindfunclet$?xmlSet@DPTProfile@@QAEXPBG@Z$0 10045dd0 f   * CIL library *:* CIL module *
 0001:00044dd8       __ehhandler$?xmlSet@DPTProfile@@QAEXPBG@Z 10045dd8 f   * CIL library *:* CIL module *
 0001:00044e00       __unwindfunclet$?IsValid@CProfileIHVSecurity@@QAEHXZ$1 10045e00 f   * CIL library *:* CIL module *
 0001:00044e08       __unwindfunclet$?IsValid@CProfileIHVSecurity@@QAEHXZ$2 10045e08 f   * CIL library *:* CIL module *
 0001:00044e10       __ehhandler$?IsValid@CProfileIHVSecurity@@QAEHXZ 10045e10 f   * CIL library *:* CIL module *
 0001:00044e40       __unwindfunclet$?xmlSet@CProfileIHVSecurity@@QAEXPBG@Z$0 10045e40 f   * CIL library *:* CIL module *
 0001:00044e48       __unwindfunclet$?xmlSet@CProfileIHVSecurity@@QAEXPBG@Z$1 10045e48 f   * CIL library *:* CIL module *
 0001:00044e50       __unwindfunclet$?xmlSet@CProfileIHVSecurity@@QAEXPBG@Z$2 10045e50 f   * CIL library *:* CIL module *
 0001:00044e58       __unwindfunclet$?xmlSet@CProfileIHVSecurity@@QAEXPBG@Z$3 10045e58 f   * CIL library *:* CIL module *
 0001:00044e60       __unwindfunclet$?xmlSet@CProfileIHVSecurity@@QAEXPBG@Z$4 10045e60 f   * CIL library *:* CIL module *
 0001:00044e68       __unwindfunclet$?xmlSet@CProfileIHVSecurity@@QAEXPBG@Z$5 10045e68 f   * CIL library *:* CIL module *
 0001:00044e70       __unwindfunclet$?xmlSet@CProfileIHVSecurity@@QAEXPBG@Z$6 10045e70 f   * CIL library *:* CIL module *
 0001:00044e78       __ehhandler$?xmlSet@CProfileIHVSecurity@@QAEXPBG@Z 10045e78 f   * CIL library *:* CIL module *
 0001:00044ea0       __unwindfunclet$?xmlGet@CProfileIHVSecurity@@QAEPAGXZ$0 10045ea0 f   * CIL library *:* CIL module *
 0001:00044ea8       __unwindfunclet$?xmlGet@CProfileIHVSecurity@@QAEPAGXZ$1 10045ea8 f   * CIL library *:* CIL module *
 0001:00044eb0       __unwindfunclet$?xmlGet@CProfileIHVSecurity@@QAEPAGXZ$2 10045eb0 f   * CIL library *:* CIL module *
 0001:00044eb8       __unwindfunclet$?xmlGet@CProfileIHVSecurity@@QAEPAGXZ$3 10045eb8 f   * CIL library *:* CIL module *
 0001:00044ec0       __unwindfunclet$?xmlGet@CProfileIHVSecurity@@QAEPAGXZ$4 10045ec0 f   * CIL library *:* CIL module *
 0001:00044ec8       __unwindfunclet$?xmlGet@CProfileIHVSecurity@@QAEPAGXZ$5 10045ec8 f   * CIL library *:* CIL module *
 0001:00044ed0       __ehhandler$?xmlGet@CProfileIHVSecurity@@QAEPAGXZ 10045ed0 f   * CIL library *:* CIL module *
 0001:00044f00       __unwindfunclet$?IsValid@CProfileIHVConnectivity@@QAEHXZ$0 10045f00 f   * CIL library *:* CIL module *
 0001:00044f08       __ehhandler$?IsValid@CProfileIHVConnectivity@@QAEHXZ 10045f08 f   * CIL library *:* CIL module *
 0001:00044f30       __unwindfunclet$?xmlSet@CProfileIHVConnectivity@@QAEXPBG@Z$0 10045f30 f   * CIL library *:* CIL module *
 0001:00044f3b       __unwindfunclet$?xmlSet@CProfileIHVConnectivity@@QAEXPBG@Z$1 10045f3b f   * CIL library *:* CIL module *
 0001:00044f46       __unwindfunclet$?xmlSet@CProfileIHVConnectivity@@QAEXPBG@Z$2 10045f46 f   * CIL library *:* CIL module *
 0001:00044f51       __unwindfunclet$?xmlSet@CProfileIHVConnectivity@@QAEXPBG@Z$3 10045f51 f   * CIL library *:* CIL module *
 0001:00044f5c       __unwindfunclet$?xmlSet@CProfileIHVConnectivity@@QAEXPBG@Z$4 10045f5c f   * CIL library *:* CIL module *
 0001:00044f67       __unwindfunclet$?xmlSet@CProfileIHVConnectivity@@QAEXPBG@Z$5 10045f67 f   * CIL library *:* CIL module *
 0001:00044f72       __unwindfunclet$?xmlSet@CProfileIHVConnectivity@@QAEXPBG@Z$6 10045f72 f   * CIL library *:* CIL module *
 0001:00044f7d       __unwindfunclet$?xmlSet@CProfileIHVConnectivity@@QAEXPBG@Z$7 10045f7d f   * CIL library *:* CIL module *
 0001:00044f88       __ehhandler$?xmlSet@CProfileIHVConnectivity@@QAEXPBG@Z 10045f88 f   * CIL library *:* CIL module *
 0001:00044fb0       __unwindfunclet$?xmlGet@CProfileIHVConnectivity@@QAEPAGXZ$0 10045fb0 f   * CIL library *:* CIL module *
 0001:00044fbb       __ehhandler$?xmlGet@CProfileIHVConnectivity@@QAEPAGXZ 10045fbb f   * CIL library *:* CIL module *
 0001:00044ff0       __unwindfunclet$?WapiSetCurrentProfile@@YAKPAX0PBU_PROFILE_PARAMS_@@PBU_IHV_CREDENTIAL@@@Z$3 10045ff0 f   * CIL library *:* CIL module *
 0001:00044ff8       __ehhandler$?WapiSetCurrentProfile@@YAKPAX0PBU_PROFILE_PARAMS_@@PBU_IHV_CREDENTIAL@@@Z 10045ff8 f   * CIL library *:* CIL module *
 0001:00045020       __unwindfunclet$?WapiCreateDiscoveryProfiles@@YAKPAU_DOT11EXT_IHV_PROFILE_PARAMS@@PAU_DOT11_BSS_LIST@@PAU_DOT11EXT_IHV_DISCOVERY_PROFILE_LIST@@@Z$5 10046020 f   * CIL library *:* CIL module *
 0001:00045033       __ehhandler$?WapiCreateDiscoveryProfiles@@YAKPAU_DOT11EXT_IHV_PROFILE_PARAMS@@PAU_DOT11_BSS_LIST@@PAU_DOT11EXT_IHV_DISCOVERY_PROFILE_LIST@@@Z 10046033 f   * CIL library *:* CIL module *
 0001:0004505b       __ehhandler$?CallUnexpected@@YAXPBU_s_ESTypeList@@@Z 1004605b f   LIBCMT:frame.obj
 0001:00045080       ??__F_iecollector@@YAXXZ   10046080 f   * CIL library *:* CIL module *
 0001:000450a0       ??__Ffd@@YAXXZ             100460a0 f   * CIL library *:* CIL module *
 0002:0000030c       __iecollector$initializer$ 1004730c     * CIL library *:* CIL module *
 0002:00000310       _fd$initializer$           10047310     * CIL library *:* CIL module *
 0002:0000031c       _pinit                     1004731c     LIBCMT:onexit.obj
 0002:00000320       _pinit                     10047320     LIBCMT:_file.obj
 0002:00000324       _pinit                     10047324     LIBCMT:cpu_disp.obj
 0002:00000328       _pinit                     10047328     LIBCMT:mbctype.obj
 0002:00000334       _pterm                     10047334     LIBCMT:wsetloca.obj
 0002:00000338       _pterm                     10047338     LIBCMT:initcon.obj
 0002:0000033c       _pterm                     1004733c     LIBCMT:_file.obj
 0002:000004bc       _GS_ExceptionPointers      100474bc     LIBCMT:gs_report.obj
 0002:00000510       ?ExceptionTemplate@?1??_CxxThrowException@@9@8@4UEHExceptionRecord@@B 10047510     LIBCMT:throw.obj
 0002:000005a4       __mb_locale_names          100475a4     LIBCMT:mbctype.obj
 0002:00000940       __first_127char            10047940     LIBCMT:wsetloca.obj
 0002:00000d40       _rterrs                    10047d40     LIBCMT:crt0msg.obj
 0002:00001808       _tokenTable                10048808     LIBCMT:undname.obj
 0002:00001840       _nameTable                 10048840     LIBCMT:undname.obj
 0002:00001980       _rttiTable                 10048980     LIBCMT:undname.obj
 0002:000048e8       ?bits@?1??BN_num_bits_word@@9@9 1004b8e8     libeay32120:bn_lib.obj
 0002:00004a00       _Hex                       1004ba00     libeay32120:bn_print.obj
 0002:00004a18       _EC_version                1004ba18     libeay32120:ec_lib.obj
 0002:00004a58       _ECDSA_SIG_seq_tt          1004ba58     libeay32120:ecs_asn1.obj
 0002:00004a80       ?local_it@?1??ECDSA_SIG_it@@9@9 1004ba80     libeay32120:ecs_asn1.obj
 0002:00004ac8       _K256                      1004bac8     libeay32120:sha256.obj
 0002:00004e38       __EC_NIST_CHAR2_163B_SEED  1004be38     libeay32120:ec_curve.obj
 0002:00004e4c       __EC_NIST_CHAR2_163B       1004be4c     libeay32120:ec_curve.obj
 0002:00004e78       __EC_SECG_CHAR2_193R1_SEED 1004be78     libeay32120:ec_curve.obj
 0002:00004e8c       __EC_SECG_CHAR2_193R1      1004be8c     libeay32120:ec_curve.obj
 0002:00004eb8       __EC_SECG_CHAR2_193R2_SEED 1004beb8     libeay32120:ec_curve.obj
 0002:00004ecc       __EC_SECG_CHAR2_193R2      1004becc     libeay32120:ec_curve.obj
 0002:00004ef8       __EC_NIST_CHAR2_233K       1004bef8     libeay32120:ec_curve.obj
 0002:00004f24       __EC_NIST_CHAR2_233B_SEED  1004bf24     libeay32120:ec_curve.obj
 0002:00004f38       __EC_NIST_CHAR2_233B       1004bf38     libeay32120:ec_curve.obj
 0002:00004f64       __EC_SECG_CHAR2_239K1      1004bf64     libeay32120:ec_curve.obj
 0002:00004f90       __EC_NIST_CHAR2_283K       1004bf90     libeay32120:ec_curve.obj
 0002:00004fbc       __EC_NIST_CHAR2_283B_SEED  1004bfbc     libeay32120:ec_curve.obj
 0002:00004fd0       __EC_NIST_CHAR2_283B       1004bfd0     libeay32120:ec_curve.obj
 0002:00004ffc       __EC_NIST_CHAR2_409K       1004bffc     libeay32120:ec_curve.obj
 0002:00005028       __EC_NIST_CHAR2_409B_SEED  1004c028     libeay32120:ec_curve.obj
 0002:0000503c       __EC_NIST_CHAR2_409B       1004c03c     libeay32120:ec_curve.obj
 0002:00005068       __EC_NIST_CHAR2_571K       1004c068     libeay32120:ec_curve.obj
 0002:00005094       __EC_NIST_CHAR2_571B_SEED  1004c094     libeay32120:ec_curve.obj
 0002:000050a8       __EC_NIST_CHAR2_571B       1004c0a8     libeay32120:ec_curve.obj
 0002:000050d4       __EC_X9_62_CHAR2_163V1_SEED 1004c0d4     libeay32120:ec_curve.obj
 0002:000050e8       __EC_X9_62_CHAR2_163V1     1004c0e8     libeay32120:ec_curve.obj
 0002:00005114       __EC_X9_62_CHAR2_163V2_SEED 1004c114     libeay32120:ec_curve.obj
 0002:00005128       __EC_X9_62_CHAR2_163V2     1004c128     libeay32120:ec_curve.obj
 0002:00005154       __EC_X9_62_CHAR2_163V3_SEED 1004c154     libeay32120:ec_curve.obj
 0002:00005168       __EC_X9_62_CHAR2_163V3     1004c168     libeay32120:ec_curve.obj
 0002:00005194       __EC_X9_62_CHAR2_176V1     1004c194     libeay32120:ec_curve.obj
 0002:000051c0       __EC_X9_62_CHAR2_191V1_SEED 1004c1c0     libeay32120:ec_curve.obj
 0002:000051d4       __EC_X9_62_CHAR2_191V1     1004c1d4     libeay32120:ec_curve.obj
 0002:00005200       __EC_X9_62_CHAR2_191V2_SEED 1004c200     libeay32120:ec_curve.obj
 0002:00005214       __EC_X9_62_CHAR2_191V2     1004c214     libeay32120:ec_curve.obj
 0002:00005240       __EC_X9_62_CHAR2_191V3_SEED 1004c240     libeay32120:ec_curve.obj
 0002:00005254       __EC_X9_62_CHAR2_191V3     1004c254     libeay32120:ec_curve.obj
 0002:00005280       __EC_X9_62_CHAR2_208W1     1004c280     libeay32120:ec_curve.obj
 0002:000052ac       __EC_X9_62_CHAR2_239V1_SEED 1004c2ac     libeay32120:ec_curve.obj
 0002:000052c0       __EC_X9_62_CHAR2_239V1     1004c2c0     libeay32120:ec_curve.obj
 0002:000052ec       __EC_X9_62_CHAR2_239V2_SEED 1004c2ec     libeay32120:ec_curve.obj
 0002:00005300       __EC_X9_62_CHAR2_239V2     1004c300     libeay32120:ec_curve.obj
 0002:0000532c       __EC_X9_62_CHAR2_239V3_SEED 1004c32c     libeay32120:ec_curve.obj
 0002:00005340       __EC_X9_62_CHAR2_239V3     1004c340     libeay32120:ec_curve.obj
 0002:0000536c       __EC_X9_62_CHAR2_272W1     1004c36c     libeay32120:ec_curve.obj
 0002:00005398       __EC_X9_62_CHAR2_304W1     1004c398     libeay32120:ec_curve.obj
 0002:000053c4       __EC_X9_62_CHAR2_359V1_SEED 1004c3c4     libeay32120:ec_curve.obj
 0002:000053d8       __EC_X9_62_CHAR2_359V1     1004c3d8     libeay32120:ec_curve.obj
 0002:00005404       __EC_X9_62_CHAR2_368W1     1004c404     libeay32120:ec_curve.obj
 0002:00005430       __EC_X9_62_CHAR2_431R1     1004c430     libeay32120:ec_curve.obj
 0002:0000545c       __EC_WTLS_1                1004c45c     libeay32120:ec_curve.obj
 0002:00005488       __EC_IPSEC_155_ID3         1004c488     libeay32120:ec_curve.obj
 0002:000054b4       __EC_IPSEC_185_ID4         1004c4b4     libeay32120:ec_curve.obj
 0002:000054e0       _curve_list                1004c4e0     libeay32120:ec_curve.obj
 0002:000056f8       __EC_NIST_PRIME_192_SEED   1004c6f8     libeay32120:ec_curve.obj
 0002:0000570c       __EC_NIST_PRIME_192        1004c70c     libeay32120:ec_curve.obj
 0002:00005738       __EC_NIST_PRIME_224_SEED   1004c738     libeay32120:ec_curve.obj
 0002:0000574c       __EC_NIST_PRIME_224        1004c74c     libeay32120:ec_curve.obj
 0002:00005778       __EC_NIST_PRIME_384_SEED   1004c778     libeay32120:ec_curve.obj
 0002:0000578c       __EC_NIST_PRIME_384        1004c78c     libeay32120:ec_curve.obj
 0002:000057b8       __EC_NIST_PRIME_521_SEED   1004c7b8     libeay32120:ec_curve.obj
 0002:000057cc       __EC_NIST_PRIME_521        1004c7cc     libeay32120:ec_curve.obj
 0002:000057f8       __EC_X9_62_PRIME_192V2_SEED 1004c7f8     libeay32120:ec_curve.obj
 0002:0000580c       __EC_X9_62_PRIME_192V2     1004c80c     libeay32120:ec_curve.obj
 0002:00005838       __EC_X9_62_PRIME_192V3_SEED 1004c838     libeay32120:ec_curve.obj
 0002:0000584c       __EC_X9_62_PRIME_192V3     1004c84c     libeay32120:ec_curve.obj
 0002:00005878       __EC_X9_62_PRIME_239V1_SEED 1004c878     libeay32120:ec_curve.obj
 0002:0000588c       __EC_X9_62_PRIME_239V1     1004c88c     libeay32120:ec_curve.obj
 0002:000058b8       __EC_X9_62_PRIME_239V2_SEED 1004c8b8     libeay32120:ec_curve.obj
 0002:000058cc       __EC_X9_62_PRIME_239V2     1004c8cc     libeay32120:ec_curve.obj
 0002:000058f8       __EC_X9_62_PRIME_239V3_SEED 1004c8f8     libeay32120:ec_curve.obj
 0002:0000590c       __EC_X9_62_PRIME_239V3     1004c90c     libeay32120:ec_curve.obj
 0002:00005938       __EC_X9_62_PRIME_256V1_SEED 1004c938     libeay32120:ec_curve.obj
 0002:0000594c       __EC_X9_62_PRIME_256V1     1004c94c     libeay32120:ec_curve.obj
 0002:00005978       __EC_SECG_PRIME_112R1_SEED 1004c978     libeay32120:ec_curve.obj
 0002:0000598c       __EC_SECG_PRIME_112R1      1004c98c     libeay32120:ec_curve.obj
 0002:000059b8       __EC_SECG_PRIME_112R2_SEED 1004c9b8     libeay32120:ec_curve.obj
 0002:000059cc       __EC_SECG_PRIME_112R2      1004c9cc     libeay32120:ec_curve.obj
 0002:000059f8       __EC_SECG_PRIME_128R1_SEED 1004c9f8     libeay32120:ec_curve.obj
 0002:00005a0c       __EC_SECG_PRIME_128R1      1004ca0c     libeay32120:ec_curve.obj
 0002:00005a38       __EC_SECG_PRIME_128R2_SEED 1004ca38     libeay32120:ec_curve.obj
 0002:00005a4c       __EC_SECG_PRIME_128R2      1004ca4c     libeay32120:ec_curve.obj
 0002:00005a78       __EC_SECG_PRIME_160K1      1004ca78     libeay32120:ec_curve.obj
 0002:00005aa4       __EC_SECG_PRIME_160R1_SEED 1004caa4     libeay32120:ec_curve.obj
 0002:00005ab8       __EC_SECG_PRIME_160R1      1004cab8     libeay32120:ec_curve.obj
 0002:00005ae4       __EC_SECG_PRIME_160R2_SEED 1004cae4     libeay32120:ec_curve.obj
 0002:00005af8       __EC_SECG_PRIME_160R2      1004caf8     libeay32120:ec_curve.obj
 0002:00005b24       __EC_SECG_PRIME_192K1      1004cb24     libeay32120:ec_curve.obj
 0002:00005b50       __EC_SECG_PRIME_224K1      1004cb50     libeay32120:ec_curve.obj
 0002:00005b7c       __EC_SECG_PRIME_256K1      1004cb7c     libeay32120:ec_curve.obj
 0002:00005ba8       __EC_WTLS_8                1004cba8     libeay32120:ec_curve.obj
 0002:00005bd4       __EC_WTLS_9                1004cbd4     libeay32120:ec_curve.obj
 0002:00005c00       __EC_WTLS_12               1004cc00     libeay32120:ec_curve.obj
 0002:00005c2c       __EC_SECG_CHAR2_113R1_SEED 1004cc2c     libeay32120:ec_curve.obj
 0002:00005c40       __EC_SECG_CHAR2_113R1      1004cc40     libeay32120:ec_curve.obj
 0002:00005c6c       __EC_SECG_CHAR2_113R2_SEED 1004cc6c     libeay32120:ec_curve.obj
 0002:00005c80       __EC_SECG_CHAR2_113R2      1004cc80     libeay32120:ec_curve.obj
 0002:00005cac       __EC_SECG_CHAR2_131R1_SEED 1004ccac     libeay32120:ec_curve.obj
 0002:00005cc0       __EC_SECG_CHAR2_131R1      1004ccc0     libeay32120:ec_curve.obj
 0002:00005cec       __EC_SECG_CHAR2_131R2_SEED 1004ccec     libeay32120:ec_curve.obj
 0002:00005d00       __EC_SECG_CHAR2_131R2      1004cd00     libeay32120:ec_curve.obj
 0002:00005d2c       __EC_NIST_CHAR2_163K       1004cd2c     libeay32120:ec_curve.obj
 0002:00005d58       __EC_SECG_CHAR2_163R1_SEED 1004cd58     libeay32120:ec_curve.obj
 0002:00005d6c       __EC_SECG_CHAR2_163R1      1004cd6c     libeay32120:ec_curve.obj
 0002:0000b01c       _err_defaults              1005201c     libeay32120:err.obj
 0002:0000b138       ?local_it@?1??BIGNUM_it@@9@9 10052138     libeay32120:x_bignum.obj
 0002:0000b154       ?local_it@?1??CBIGNUM_it@@9@9 10052154     libeay32120:x_bignum.obj
 0002:0000b198       _tag2bit                   10052198     libeay32120:tasn_dec.obj
 0002:0000b2a8       ?ret@?1??EC_GFp_mont_method@@9@9 100522a8     libeay32120:ecp_mont.obj
 0002:0000b358       ?ret@?1??EC_GFp_nist_method@@9@9 10052358     libeay32120:ecp_nist.obj
 0002:0000b408       ?ret@?1??EC_GF2m_simple_method@@9@9 10052408     libeay32120:ec2_smpl.obj
 0002:0000b5f0       ?local_it@?1??ASN1_SEQUENCE_it@@9@9 100525f0     libeay32120:tasn_typ.obj
 0002:0000b60c       ?local_it@?1??ASN1_PRINTABLE_it@@9@9 1005260c     libeay32120:tasn_typ.obj
 0002:0000b628       ?local_it@?1??DISPLAYTEXT_it@@9@9 10052628     libeay32120:tasn_typ.obj
 0002:0000b644       ?local_it@?1??DIRECTORYSTRING_it@@9@9 10052644     libeay32120:tasn_typ.obj
 0002:0000b660       ?local_it@?1??ASN1_BOOLEAN_it@@9@9 10052660     libeay32120:tasn_typ.obj
 0002:0000b67c       ?local_it@?1??ASN1_TBOOLEAN_it@@9@9 1005267c     libeay32120:tasn_typ.obj
 0002:0000b698       ?local_it@?1??ASN1_FBOOLEAN_it@@9@9 10052698     libeay32120:tasn_typ.obj
 0002:0000b6b4       ?local_it@?1??ASN1_OCTET_STRING_NDEF_it@@9@9 100526b4     libeay32120:tasn_typ.obj
 0002:0000b6d0       ?local_it@?1??ASN1_INTEGER_it@@9@9 100526d0     libeay32120:tasn_typ.obj
 0002:0000b6ec       ?local_it@?1??ASN1_ENUMERATED_it@@9@9 100526ec     libeay32120:tasn_typ.obj
 0002:0000b708       ?local_it@?1??ASN1_BIT_STRING_it@@9@9 10052708     libeay32120:tasn_typ.obj
 0002:0000b724       ?local_it@?1??ASN1_OCTET_STRING_it@@9@9 10052724     libeay32120:tasn_typ.obj
 0002:0000b740       ?local_it@?1??ASN1_NULL_it@@9@9 10052740     libeay32120:tasn_typ.obj
 0002:0000b75c       ?local_it@?1??ASN1_OBJECT_it@@9@9 1005275c     libeay32120:tasn_typ.obj
 0002:0000b778       ?local_it@?1??ASN1_UTF8STRING_it@@9@9 10052778     libeay32120:tasn_typ.obj
 0002:0000b794       ?local_it@?1??ASN1_PRINTABLESTRING_it@@9@9 10052794     libeay32120:tasn_typ.obj
 0002:0000b7b0       ?local_it@?1??ASN1_T61STRING_it@@9@9 100527b0     libeay32120:tasn_typ.obj
 0002:0000b7cc       ?local_it@?1??ASN1_IA5STRING_it@@9@9 100527cc     libeay32120:tasn_typ.obj
 0002:0000b7e8       ?local_it@?1??ASN1_GENERALSTRING_it@@9@9 100527e8     libeay32120:tasn_typ.obj
 0002:0000b804       ?local_it@?1??ASN1_UTCTIME_it@@9@9 10052804     libeay32120:tasn_typ.obj
 0002:0000b820       ?local_it@?1??ASN1_GENERALIZEDTIME_it@@9@9 10052820     libeay32120:tasn_typ.obj
 0002:0000b83c       ?local_it@?1??ASN1_VISIBLESTRING_it@@9@9 1005283c     libeay32120:tasn_typ.obj
 0002:0000b858       ?local_it@?1??ASN1_UNIVERSALSTRING_it@@9@9 10052858     libeay32120:tasn_typ.obj
 0002:0000b874       ?local_it@?1??ASN1_BMPSTRING_it@@9@9 10052874     libeay32120:tasn_typ.obj
 0002:0000b890       ?local_it@?1??ASN1_ANY_it@@9@9 10052890     libeay32120:tasn_typ.obj
 0002:0000bad4       _dummy_nid                 10052ad4     libeay32120:tb_ecdsa.obj
 0002:00010b30       _dummy_nid                 10057b30     libeay32120:tb_ecdh.obj
 0002:00010b38       ?ret@?1??EC_GFp_simple_method@@9@9 10057b38     libeay32120:ecp_smpl.obj
 0002:00010c00       ?_bignum_nist_p_256_sqr@?1??BN_nist_mod_256@@9@9 10057c00     libeay32120:bn_nist.obj
 0002:00010c14       ?_bignum_nist_p_384_sqr@?1??BN_nist_mod_384@@9@9 10057c14     libeay32120:bn_nist.obj
 0002:00010c28       ?_bignum_nist_p_521_sqr@?1??BN_nist_mod_521@@9@9 10057c28     libeay32120:bn_nist.obj
 0002:00010c3c       __bignum_nist_p_192        10057c3c     libeay32120:bn_nist.obj
 0002:00010c50       __nist_p_192               10057c50     libeay32120:bn_nist.obj
 0002:00010c98       __nist_p_192_sqr           10057c98     libeay32120:bn_nist.obj
 0002:00010cc8       __nist_p_224               10057cc8     libeay32120:bn_nist.obj
 0002:00010d00       __nist_p_224_sqr           10057d00     libeay32120:bn_nist.obj
 0002:00010d38       __nist_p_256               10057d38     libeay32120:bn_nist.obj
 0002:00010dd8       __nist_p_256_sqr           10057dd8     libeay32120:bn_nist.obj
 0002:00010e18       __nist_p_384               10057e18     libeay32120:bn_nist.obj
 0002:00010f08       __nist_p_384_sqr           10057f08     libeay32120:bn_nist.obj
 0002:00010f68       __nist_p_521               10057f68     libeay32120:bn_nist.obj
 0002:00010fac       __bignum_nist_p_224        10057fac     libeay32120:bn_nist.obj
 0002:00010fc0       __nist_p_521_sqr           10057fc0     libeay32120:bn_nist.obj
 0002:00011044       __bignum_nist_p_256        10058044     libeay32120:bn_nist.obj
 0002:00011058       __bignum_nist_p_384        10058058     libeay32120:bn_nist.obj
 0002:0001106c       __bignum_nist_p_521        1005806c     libeay32120:bn_nist.obj
 0002:00011080       ?_bignum_nist_p_192_sqr@?1??BN_nist_mod_192@@9@9 10058080     libeay32120:bn_nist.obj
 0002:00011094       ?_bignum_nist_p_224_sqr@?1??BN_nist_mod_224@@9@9 10058094     libeay32120:bn_nist.obj
 0002:000110c0       _SQR_tb                    100580c0     libeay32120:bn_gf2m.obj
 0002:000111c8       _dummy_nid                 100581c8     libeay32120:tb_rand.obj
 0002:00011234       ?tab@?1??BN_kronecker@@9@9 10058234     libeay32120:bn_kron.obj
 0002:00011500       _sha1_md                   10058500     libeay32120:m_sha1.obj
 0002:00011548       _sha224_md                 10058548     libeay32120:m_sha1.obj
 0002:00011590       _sha256_md                 10058590     libeay32120:m_sha1.obj
 0002:0001169c       _X509_SIG_seq_tt           1005869c     libeay32120:x_sig.obj
 0002:000116c4       ?local_it@?1??X509_SIG_it@@9@9 100586c4     libeay32120:x_sig.obj
 0002:000116fc       _X509_ALGOR_seq_tt         100586fc     libeay32120:x_algor.obj
 0002:00011724       ?local_it@?1??X509_ALGOR_it@@9@9 10058724     libeay32120:x_algor.obj
 0002:00011740       _X509_ALGORS_item_tt       10058740     libeay32120:x_algor.obj
 0002:00011754       ?local_it@?1??X509_ALGORS_it@@9@9 10058754     libeay32120:x_algor.obj
 0002:00011b88       ?ccsField@?P@??_openfile@@9@9 10058b88     LIBCMT:_open.obj
 0002:00011b8c       ?utf8encoding@?P@??_openfile@@9@9 10058b8c     LIBCMT:_open.obj
 0002:00011b94       ?utf16encoding@?P@??_openfile@@9@9 10058b94     LIBCMT:_open.obj
 0002:00011ba0       ?unicodeencoding@?P@??_openfile@@9@9 10058ba0     LIBCMT:_open.obj
 0002:00011cb0       _VENDOR_OUI                10058cb0     * CIL library *:* CIL module *
 0002:00011cb4       ?template@?1??bcm_ether_ntoa@@9@9 10058cb4     * CIL library *:* CIL module *
 0002:00011cd8       _iwn_debug_level           10058cd8     * CIL library *:* CIL module *
 0002:00011ce0       _gWOID                     10058ce0     * CIL library *:* CIL module *
 0002:000120e8       _g_EC192CngDSAAlgTable     100590e8     * CIL library *:* CIL module *
 0002:00012110       _gPubKeyOID                10059110     * CIL library *:* CIL module *
 0002:00012518       _g_EC192CngPubKeyAlgTable  10059518     * CIL library *:* CIL module *
 0002:000126c0       _EC192DSA_extraInfoData    100596c0     * CIL library *:* CIL module *
 0002:000126cc       ?data@?1??get_curve_x9_62_prime_192v4@@9@9 100596cc     * CIL library *:* CIL module *
 0002:00012c4c       ?s@?1??GetXmlElemRoot@@YAPBGW4XML_ELEM_ROOT_ENUM@@@Z@4PAPBGA 10059c4c     * CIL library *:* CIL module *
 0002:00012c54       ?rgBlobType@?1??IsHexStringConversionNeeded@@YAHPBU_IHV_CREDENTIAL@@@Z@4PAKA 10059c54     * CIL library *:* CIL module *
 0002:00012c58       ?s@?1??GetXmlEmptyDoc@@YAPBGW4XML_ELEM_ROOT_ENUM@@@Z@4PAPBGA 10059c58     * CIL library *:* CIL module *
 0002:00012c60       ?s@?1??GetXmlElemAuth@@YAPBGW4XML_ELEM_AUTH_ENUM@@@Z@4PAPBGA 10059c60     * CIL library *:* CIL module *
 0002:00013eec       ?rgbHashTestVector@?1??VerifyKey@@YAJPAU_BWCGKSP_KEY@@@Z@4QBEB 1005aeec     * CIL library *:* CIL module *
 0002:00014488       __catchsym$??0CIHVS_ADAPTER_CONTEXT@@QAE@PAU_DOT11_ADAPTER@@PAX@Z$4 1005b488     * CIL library *:* CIL module *
 0002:00014498       __tryblocktable$??0CIHVS_ADAPTER_CONTEXT@@QAE@PAU_DOT11_ADAPTER@@PAX@Z 1005b498     * CIL library *:* CIL module *
 0002:000144ac       __unwindtable$??0CIHVS_ADAPTER_CONTEXT@@QAE@PAU_DOT11_ADAPTER@@PAX@Z 1005b4ac     * CIL library *:* CIL module *
 0002:000144cc       __ehfuncinfo$??0CIHVS_ADAPTER_CONTEXT@@QAE@PAU_DOT11_ADAPTER@@PAX@Z 1005b4cc     * CIL library *:* CIL module *
 0002:000144f0       __unwindtable$?Dot11ExtIhvInitAdapter@@YGKPAU_DOT11_ADAPTER@@PAXPAPAX@Z 1005b4f0     * CIL library *:* CIL module *
 0002:000144f8       __ehfuncinfo$?Dot11ExtIhvInitAdapter@@YGKPAU_DOT11_ADAPTER@@PAXPAPAX@Z 1005b4f8     * CIL library *:* CIL module *
 0002:0001451c       __unwindtable$?Dot11ExtIhvPerformCapabilityMatch@@YGKPAXPAU_DOT11EXT_IHV_PROFILE_PARAMS@@PAU_DOT11EXT_IHV_CONNECTIVITY_PROFILE@@PAU_DOT11EXT_IHV_SECURITY_PROFILE@@PAU_DOT11_BSS_LIST@@PAK@Z 1005b51c     * CIL library *:* CIL module *
 0002:00014524       __ehfuncinfo$?Dot11ExtIhvPerformCapabilityMatch@@YGKPAXPAU_DOT11EXT_IHV_PROFILE_PARAMS@@PAU_DOT11EXT_IHV_CONNECTIVITY_PROFILE@@PAU_DOT11EXT_IHV_SECURITY_PROFILE@@PAU_DOT11_BSS_LIST@@PAK@Z 1005b524     * CIL library *:* CIL module *
 0002:00014548       __unwindtable$?Dot11ExtIhvValidateProfile@@YGKPAXPAU_DOT11EXT_IHV_PROFILE_PARAMS@@PAU_DOT11EXT_IHV_CONNECTIVITY_PROFILE@@PAU_DOT11EXT_IHV_SECURITY_PROFILE@@PAK@Z 1005b548     * CIL library *:* CIL module *
 0002:00014550       __ehfuncinfo$?Dot11ExtIhvValidateProfile@@YGKPAXPAU_DOT11EXT_IHV_PROFILE_PARAMS@@PAU_DOT11EXT_IHV_CONNECTIVITY_PROFILE@@PAU_DOT11EXT_IHV_SECURITY_PROFILE@@PAK@Z 1005b550     * CIL library *:* CIL module *
 0002:00014574       __unwindtable$?readProfileSecurity@CIHVS_ADAPTER_CONTEXT@@QAEHPAU_DOT11EXT_IHV_SECURITY_PROFILE@@@Z 1005b574     * CIL library *:* CIL module *
 0002:0001457c       __ehfuncinfo$?readProfileSecurity@CIHVS_ADAPTER_CONTEXT@@QAEHPAU_DOT11EXT_IHV_SECURITY_PROFILE@@@Z 1005b57c     * CIL library *:* CIL module *
 0002:000145a0       __sehtable$?InitCritSect@@YAKPAU_RTL_CRITICAL_SECTION@@@Z 1005b5a0     * CIL library *:* CIL module *
 0002:000145bc       __unwindtable$?xmlSet@DPTProfile@@QAEXPAUIXMLDOMDocument@@PAG@Z 1005b5bc     * CIL library *:* CIL module *
 0002:000145d4       __ehfuncinfo$?xmlSet@DPTProfile@@QAEXPAUIXMLDOMDocument@@PAG@Z 1005b5d4     * CIL library *:* CIL module *
 0002:000145f8       __unwindtable$?xmlSet@DPTProfile@@QAEXPBG@Z 1005b5f8     * CIL library *:* CIL module *
 0002:00014600       __ehfuncinfo$?xmlSet@DPTProfile@@QAEXPBG@Z 1005b600     * CIL library *:* CIL module *
 0002:00014624       __unwindtable$?IsValid@CProfileIHVSecurity@@QAEHXZ 1005b624     * CIL library *:* CIL module *
 0002:00014634       __ehfuncinfo$?IsValid@CProfileIHVSecurity@@QAEHXZ 1005b634     * CIL library *:* CIL module *
 0002:00014658       __ehfuncinfo$?xmlSet@CProfileIHVSecurity@@QAEXPBG@Z 1005b658     * CIL library *:* CIL module *
 0002:0001467c       __unwindtable$?xmlSet@CProfileIHVSecurity@@QAEXPBG@Z 1005b67c     * CIL library *:* CIL module *
 0002:000146b4       __ehfuncinfo$?xmlGet@CProfileIHVSecurity@@QAEPAGXZ 1005b6b4     * CIL library *:* CIL module *
 0002:000146d8       __unwindtable$?xmlGet@CProfileIHVSecurity@@QAEPAGXZ 1005b6d8     * CIL library *:* CIL module *
 0002:00014708       __unwindtable$?IsValid@CProfileIHVConnectivity@@QAEHXZ 1005b708     * CIL library *:* CIL module *
 0002:00014710       __ehfuncinfo$?IsValid@CProfileIHVConnectivity@@QAEHXZ 1005b710     * CIL library *:* CIL module *
 0002:00014734       __ehfuncinfo$?xmlSet@CProfileIHVConnectivity@@QAEXPBG@Z 1005b734     * CIL library *:* CIL module *
 0002:00014758       __unwindtable$?xmlSet@CProfileIHVConnectivity@@QAEXPBG@Z 1005b758     * CIL library *:* CIL module *
 0002:00014798       __unwindtable$?xmlGet@CProfileIHVConnectivity@@QAEPAGXZ 1005b798     * CIL library *:* CIL module *
 0002:000147a0       __ehfuncinfo$?xmlGet@CProfileIHVConnectivity@@QAEPAGXZ 1005b7a0     * CIL library *:* CIL module *
 0002:000147c4       __unwindtable$?WapiSetCurrentProfile@@YAKPAX0PBU_PROFILE_PARAMS_@@PBU_IHV_CREDENTIAL@@@Z 1005b7c4     * CIL library *:* CIL module *
 0002:000147cc       __ehfuncinfo$?WapiSetCurrentProfile@@YAKPAX0PBU_PROFILE_PARAMS_@@PBU_IHV_CREDENTIAL@@@Z 1005b7cc     * CIL library *:* CIL module *
 0002:000147f0       __unwindtable$?WapiCreateDiscoveryProfiles@@YAKPAU_DOT11EXT_IHV_PROFILE_PARAMS@@PAU_DOT11_BSS_LIST@@PAU_DOT11EXT_IHV_DISCOVERY_PROFILE_LIST@@@Z 1005b7f0     * CIL library *:* CIL module *
 0002:000147f8       __ehfuncinfo$?WapiCreateDiscoveryProfiles@@YAKPAU_DOT11EXT_IHV_PROFILE_PARAMS@@PAU_DOT11_BSS_LIST@@PAU_DOT11EXT_IHV_DISCOVERY_PROFILE_LIST@@@Z 1005b7f8     * CIL library *:* CIL module *
 0002:00014820       __sehtable$??_M@YGXPAXIHP6EX0@Z@Z 1005b820     LIBCMT:ehvecdtr.obj
 0002:00014840       __sehtable$?__ArrayUnwind@@YGXPAXIHP6EX0@Z@Z 1005b840     LIBCMT:ehvecdtr.obj
 0002:00014860       __sehtable$__onexit        1005b860     LIBCMT:onexit.obj
 0002:00014880       __sehtable$??_L@YGXPAXIHP6EX0@Z1@Z 1005b880     LIBCMT:ehvecctr.obj
 0002:000148f0       __sehtable$_printf         1005b8f0     LIBCMT:printf.obj
 0002:00014910       __sehtable$__CRT_INIT@12   1005b910     LIBCMT:dllcrt0.obj
 0002:00014930       __sehtable$___DllMainCRTStartup 1005b930     LIBCMT:dllcrt0.obj
 0002:00014950       __sehtable$_vprintf_helper 1005b950     LIBCMT:vprintf.obj
 0002:00014970       __sehtable$?terminate@@YAXXZ 1005b970     LIBCMT:hooks.obj
 0002:00014990       __sehtable$?_inconsistency@@YAXXZ 1005b990     LIBCMT:hooks.obj
 0002:000149b0       __sehtable$_doexit         1005b9b0     LIBCMT:crt0dat.obj
 0002:000149d0       __sehtable$?_Type_info_dtor@type_info@@CAXPAV1@@Z 1005b9d0     LIBCMT:typname.obj
 0002:000149f0       __sehtable$___updatetlocinfo 1005b9f0     LIBCMT:localref.obj
 0002:00014a10       __sehtable$___updatetmbcinfo 1005ba10     LIBCMT:mbctype.obj
 0002:00014a30       __sehtable$__setmbcp       1005ba30     LIBCMT:mbctype.obj
 0002:00014a50       __sehtable$__freefls@4     1005ba50     LIBCMT:tidtable.obj
 0002:00014a78       __sehtable$__initptd       1005ba78     LIBCMT:tidtable.obj
 0002:00014aa0       __sehtable$__locterm       1005baa0     LIBCMT:wsetloca.obj
 0002:00014ac0       __sehtable$__ioinit        1005bac0     LIBCMT:ioinit.obj
 0002:00014ae0       __sehtable$__IsNonwritableInCurrentImage 1005bae0     LIBCMT:pesect.obj
 0002:00014b00       __sehtable$__mtinitlocknum 1005bb00     LIBCMT:mlock.obj
 0002:00014b20       __sehtable$_raise          1005bb20     LIBCMT:winsig.obj
 0002:00014b40       __sehtable$__write         1005bb40     LIBCMT:write.obj
 0002:00014b60       __sehtable$__lseeki64      1005bb60     LIBCMT:lseeki64.obj
 0002:00014b80       __sehtable$__fcloseall     1005bb80     LIBCMT:closeall.obj
 0002:00014ba0       __sehtable$_fflush         1005bba0     LIBCMT:fflush.obj
 0002:00014bc0       __sehtable$_flsall         1005bbc0     LIBCMT:fflush.obj
 0002:00014be8       __sehtable$__alloc_osfhnd  1005bbe8     LIBCMT:osfinfo.obj
 0002:00014c10       __sehtable$___lock_fhandle 1005bc10     LIBCMT:osfinfo.obj
 0002:00014c30       __sehtable$_fclose         1005bc30     LIBCMT:fclose.obj
 0002:00014c50       __sehtable$__commit        1005bc50     LIBCMT:commit.obj
 0002:00014c70       __sehtable$__close         1005bc70     LIBCMT:close.obj
 0002:00014c90       __sehtable$___set_fpsr_sse2 1005bc90     LIBCMT:fpctrl.obj
 0002:00014cb0       __sehtable$_readtimer      1005bcb0     libeay32120:rand_win.obj
 0002:00014cd0       __sehtable$_fprintf        1005bcd0     LIBCMT:fprintf.obj
 0002:00014cf0       __sehtable$_fgets          1005bcf0     LIBCMT:fgets.obj
 0002:00014d10       __sehtable$__fsopen        1005bd10     LIBCMT:fopen.obj
 0002:00014d30       __sehtable$_fread_s        1005bd30     LIBCMT:fread.obj
 0002:00014d50       __sehtable$_fseek          1005bd50     LIBCMT:fseek.obj
 0002:00014d70       __sehtable$_ftell          1005bd70     LIBCMT:ftell.obj
 0002:00014d90       __sehtable$_fwrite         1005bd90     LIBCMT:fwrite.obj
 0002:00014db0       __sehtable$__setmode       1005bdb0     LIBCMT:setmode.obj
 0002:00014dd0       __sehtable$__getstream     1005bdd0     LIBCMT:stream.obj
 0002:00014df0       __sehtable$__read          1005bdf0     LIBCMT:read.obj
 0002:00014e10       __sehtable$__lseek         1005be10     LIBCMT:lseek.obj
 0002:00014e30       __sehtable$__sopen_helper  1005be30     LIBCMT:open.obj
 0002:00014e50       __sehtable$___FrameUnwindToState 1005be50     LIBCMT:frame.obj
 0002:00014e78       __sehtable$?CallCatchBlock@@YAPAXPAUEHExceptionRecord@@PAUEHRegistrationNode@@PAU_CONTEXT@@PBU_s_FuncInfo@@PAXHK@Z 1005be78     LIBCMT:frame.obj
 0002:00014ea0       __sehtable$___BuildCatchObject 1005bea0     LIBCMT:frame.obj
 0002:00014ec0       __sehtable$___DestructExceptionObject 1005bec0     LIBCMT:frame.obj
 0002:00014edc       __catchsym$?CallUnexpected@@YAXPBU_s_ESTypeList@@@Z$2 1005bedc     LIBCMT:frame.obj
 0002:00014eec       __unwindtable$?CallUnexpected@@YAXPBU_s_ESTypeList@@@Z 1005beec     LIBCMT:frame.obj
 0002:00014efc       __tryblocktable$?CallUnexpected@@YAXPBU_s_ESTypeList@@@Z 1005befc     LIBCMT:frame.obj
 0002:00014f10       __ehfuncinfo$?CallUnexpected@@YAXPBU_s_ESTypeList@@@Z 1005bf10     LIBCMT:frame.obj
 0002:00014f38       __sehtable$___BuildCatchObjectHelper 1005bf38     LIBCMT:frame.obj
 0002:00014f90       .edata                     1005bf90     bcmihvsrv.exp
 0002:00014fb8       rgpv                       1005bfb8     bcmihvsrv.exp
 0002:00014fcc       rgszName                   1005bfcc     bcmihvsrv.exp
 0002:00014fe0       rgwOrd                     1005bfe0     bcmihvsrv.exp
 0002:00014fea       szName                     1005bfea     bcmihvsrv.exp
 0002:00014ff8       $N00001                    1005bff8     bcmihvsrv.exp
 0002:00015012       $N00002                    1005c012     bcmihvsrv.exp
 0002:00015029       $N00003                    1005c029     bcmihvsrv.exp
 0002:00015040       $N00004                    1005c040     bcmihvsrv.exp
 0002:0001505c       $N00005                    1005c05c     bcmihvsrv.exp
 0002:000154f4       .idata$6                   1005c4f4     setupapi:SETUPAPI.dll
 0002:00015666       .idata$6                   1005c666     bcrypt:bcrypt.dll
 0002:00015698       .idata$6                   1005c698     ncrypt:ncrypt.dll
 0002:00015740       .idata$6                   1005c740     ssleay32120:ADVAPI32.dll
 0002:0001589e       .idata$6                   1005c89e     crypt32:CRYPT32.dll
 0002:000158b8       .idata$6                   1005c8b8     rpcrt4:RPCRT4.dll
 0002:00015900       .idata$6                   1005c900     wtsapi32:WTSAPI32.dll
 0002:00015b04       .idata$6                   1005cb04     kernel32:KERNEL32.dll
 0002:00015b5e       .idata$6                   1005cb5e     ole32:ole32.dll
 0002:00015b68       .idata$6                   1005cb68     oleaut32:OLEAUT32.dll
 0002:00015e30       .idata$6                   1005ce30     userenv:USERENV.dll
 0003:00000018       _errtable                  1005e018     LIBCMT:dosmap.obj
 0003:00000180       _ErrnoNoMem                1005e180     LIBCMT:dosmap.obj
 0003:00000184       _DoserrorNoMem             1005e184     LIBCMT:dosmap.obj
 0003:00000838       ___rgctypeflag             1005e838     LIBCMT:mbctype.obj
 0003:00000840       ___rgcode_page_info        1005e840     LIBCMT:mbctype.obj
 0003:00000b64       __ctype_loc_style          1005eb64     LIBCMT:wsetloca.obj
 0003:00000b68       ?isPackaged@?1??__crtIsPackagedApp@@9@9 1005eb68     LIBCMT:winapisupp.obj
 0003:00000bc0       __locktable                1005ebc0     LIBCMT:mlock.obj
 0003:00000da8       _DoubleFormat              1005eda8     LIBCMT:intrncvt.obj
 0003:00000dc0       _FloatFormat               1005edc0     LIBCMT:intrncvt.obj
 0003:000010a0       _over                      1005f0a0     LIBCMT:fpctrl.obj
 0003:000010ac       _under                     1005f0ac     LIBCMT:fpctrl.obj
 0003:000010b8       ?__DAZ_ENABLED@?1??__set_fpsr_sse2@@9@9 1005f0b8     LIBCMT:fpctrl.obj
 0003:000010bc       _bn_limit_num              1005f0bc     libeay32120:bn_lib.obj
 0003:000010c0       _bn_limit_num_low          1005f0c0     libeay32120:bn_lib.obj
 0003:000010c4       _bn_limit_num_high         1005f0c4     libeay32120:bn_lib.obj
 0003:000010c8       _bn_limit_num_mont         1005f0c8     libeay32120:bn_lib.obj
 0003:000010cc       ?data_one@?1??BN_value_one@@9@9 1005f0cc     libeay32120:bn_lib.obj
 0003:000010d0       ?const_one@?1??BN_value_one@@9@9 1005f0d0     libeay32120:bn_lib.obj
 0003:000010e8       _lock_names                1005f0e8     libeay32120:cryptlib.obj
 0003:00001180       _allow_customize           1005f180     libeay32120:mem.obj
 0003:00001184       _allow_customize_debug     1005f184     libeay32120:mem.obj
 0003:00001188       _malloc_func               1005f188     libeay32120:mem.obj
 0003:0000118c       _malloc_ex_func            1005f18c     libeay32120:mem.obj
 0003:00001190       _realloc_func              1005f190     libeay32120:mem.obj
 0003:00001194       _realloc_ex_func           1005f194     libeay32120:mem.obj
 0003:00001198       _free_func                 1005f198     libeay32120:mem.obj
 0003:0000119c       _malloc_locked_func        1005f19c     libeay32120:mem.obj
 0003:000011a0       _malloc_locked_ex_func     1005f1a0     libeay32120:mem.obj
 0003:000011a4       _free_locked_func          1005f1a4     libeay32120:mem.obj
 0003:000011a8       _curve_list_length         1005f1a8     libeay32120:ec_curve.obj
 0003:000011b0       _ERR_str_libraries         1005f1b0     libeay32120:err.obj
 0003:00001278       _ERR_str_functs            1005f278     libeay32120:err.obj
 0003:000012d8       _ERR_str_reasons           1005f2d8     libeay32120:err.obj
 0003:000013f0       _int_err_library_number    1005f3f0     libeay32120:err.obj
 0003:000013f4       ?init@?1??build_SYS_str_reasons@@9@9 1005f3f4     libeay32120:err.obj
 0003:000013f8       _methods_filep             1005f3f8     libeay32120:bss_file.obj
 0003:00001420       _bignum_pf                 1005f420     libeay32120:x_bignum.obj
 0003:00001444       _impl_default              1005f444     libeay32120:ex_data.obj
 0003:0000145c       _ex_class                  1005f45c     libeay32120:ex_data.obj
 0003:00001460       _openssl_ecdsa_meth        1005f460     libeay32120:ecs_ossl.obj
 0003:00001478       _lvalues                   1005f478     libeay32120:obj_dat.obj
 0003:00002ad8       _nid_objs                  10060ad8     libeay32120:obj_dat.obj
 0003:00007b60       _sn_objs                   10065b60     libeay32120:obj_dat.obj
 0003:000088b0       _ln_objs                   100668b0     libeay32120:obj_dat.obj
 0003:00009600       _obj_objs                  10067600     libeay32120:obj_dat.obj
 0003:0000a298       _new_nid                   10068298     libeay32120:obj_dat.obj
 0003:0000a29c       _openssl_ecdh_meth         1006829c     libeay32120:ech_ossl.obj
 0003:0000a2c8       ?have_perfc@?1??readtimer@@9@9 100682c8     libeay32120:rand_win.obj
 0003:0000a2cc       ?have_tsc@?1??readtimer@@9@9 100682cc     libeay32120:rand_win.obj
 0003:0000a3f8       _tzstd                     100683f8     LIBCMT:timeset.obj
 0003:0000a438       _tzdst                     10068438     LIBCMT:timeset.obj
 0003:0000a480       _dststart                  10068480     LIBCMT:tzset.obj
 0003:0000a48c       _dstend                    1006848c     LIBCMT:tzset.obj
 0003:0000a698       _g_EC192SecretAgreementFunctionTable 10068698     * CIL library *:* CIL module *
 0003:0000a6cc       _g_rgszSecFunctions        100686cc     * CIL library *:* CIL module *
 0003:0000a74c       _g_EC192SignatureFunctionTable 1006874c     * CIL library *:* CIL module *
 0003:0000a77c       _g_rgpSapInterfaceReg      1006877c     * CIL library *:* CIL module *
 0003:0000a784       _g_rgszSigFunctions        10068784     * CIL library *:* CIL module *
 0003:0000a788       _g_rgSapImageReg           10068788     * CIL library *:* CIL module *
 0003:0000a794       _g_SapProviderReg          10068794     * CIL library *:* CIL module *
 0003:0000a7a4       _g_rgSapInterfaceReg       100687a4     * CIL library *:* CIL module *
 0003:0000a7c4       _g_rgwszKspAliases         100687c4     * CIL library *:* CIL module *
 0003:0000a7c8       _g_KspProviderReg          100687c8     * CIL library *:* CIL module *
 0003:0000a7d8       _g_rgKspImageReg           100687d8     * CIL library *:* CIL module *
 0003:0000a7e4       _g_rgKspInterfaceReg       100687e4     * CIL library *:* CIL module *
 0003:0000a7f4       _g_rgszKspFunctions        100687f4     * CIL library *:* CIL module *
 0003:0000a7f8       _g_rgpKspInterfaceReg      100687f8     * CIL library *:* CIL module *
 0003:0000a800       ?pszXmlFragmentIhvConnectivity@?4??CopySecurityProfilesToDiscoveryBuffer@@YAKPAVCProfileIHVSecurity@@PAU_DOT11EXT_IHV_DISCOVERY_PROFILE@@K@Z@4PAGA 10068800     * CIL library *:* CIL module *
 0003:0000a850       ?mgmt_info@?1??GetMgmtFrameRxInfo@@YAHIPBXIPAW4IEBLOBINFO_FC@@PAIPAPBX2@Z@4PAU0?1??1@YAHI0I1232@Z@A 10068850     * CIL library *:* CIL module *
 0003:0000a9e0       ___enable_percent_n        100689e0     LIBCMT:printf.obj
 0003:0000a9e8       _GS_ExceptionRecord        100689e8     LIBCMT:gs_report.obj
 0003:0000aa38       _GS_ContextRecord          10068a38     LIBCMT:gs_report.obj
 0003:0000ad04       _DebuggerWasPresent        10068d04     LIBCMT:gs_report.obj
 0003:0000ad08       ___proc_attached           10068d08     LIBCMT:dllcrt0.obj
 0003:0000ad50       ___type_info_root_node     10068d50     LIBCMT:typname.obj
 0003:0000ad8c       _fSystemSet                10068d8c     LIBCMT:mbctype.obj
 0003:0000aea0       ?_pgmname@?1??_setargv@@9@9 10068ea0     LIBCMT:stdargv.obj
 0003:0000afb0       ?outmsg@?8??_NMSG_WRITE@@9@9 10068fb0     LIBCMT:crt0msg.obj
 0003:0000b5e0       _lclcritsects              100695e0     LIBCMT:mlock.obj
 0003:0000b730       _ctrlc_action              10069730     LIBCMT:winsig.obj
 0003:0000b734       _ctrlbreak_action          10069734     LIBCMT:winsig.obj
 0003:0000b738       _abort_action              10069738     LIBCMT:winsig.obj
 0003:0000b73c       _term_action               1006973c     LIBCMT:winsig.obj
 0003:0000b740       _ConsoleCtrlHandler_Installed 10069740     LIBCMT:winsig.obj
 0003:0000b744       _g_pfnRtlGenRandom         10069744     LIBCMT:rand_s.obj
 0003:0000b770       _heap                      10069770     LIBCMT:undname.obj
 0003:0000b78c       ___crtCallProc             1006978c     LIBCMT:winapinls.obj
 0003:0000b798       ?pfnMessageBox@?1??__crtMessageBoxW@@9@9 10069798     LIBCMT:crtmboxw.obj
 0003:0000b79c       ?pfnGetActiveWindow@?1??__crtMessageBoxW@@9@9 1006979c     LIBCMT:crtmboxw.obj
 0003:0000b7a0       ?pfnGetLastActivePopup@?1??__crtMessageBoxW@@9@9 100697a0     LIBCMT:crtmboxw.obj
 0003:0000b7a4       ?pfnGetProcessWindowStation@?1??__crtMessageBoxW@@9@9 100697a4     LIBCMT:crtmboxw.obj
 0003:0000b7a8       ?pfnGetUserObjectInformation@?1??__crtMessageBoxW@@9@9 100697a8     LIBCMT:crtmboxw.obj
 0003:0000b7b0       _bn_limit_bits             100697b0     libeay32120:bn_lib.obj
 0003:0000b7b4       _bn_limit_bits_low         100697b4     libeay32120:bn_lib.obj
 0003:0000b7b8       _bn_limit_bits_high        100697b8     libeay32120:bn_lib.obj
 0003:0000b7bc       _bn_limit_bits_mont        100697bc     libeay32120:bn_lib.obj
 0003:0000b7c0       ?m@?1??SHA224@@9@9         100697c0     libeay32120:sha256.obj
 0003:0000b7dc       ?m@?1??SHA256@@9@9         100697dc     libeay32120:sha256.obj
 0003:0000b800       _SSLeay_MSVC5_hack         10069800     libeay32120:cryptlib.obj
 0003:0000b808       _app_locks                 10069808     libeay32120:cryptlib.obj
 0003:0000b80c       _dyn_locks                 1006980c     libeay32120:cryptlib.obj
 0003:0000b810       _locking_callback          10069810     libeay32120:cryptlib.obj
 0003:0000b814       _add_lock_callback         10069814     libeay32120:cryptlib.obj
 0003:0000b818       _id_callback               10069818     libeay32120:cryptlib.obj
 0003:0000b81c       _dynlock_create_callback   1006981c     libeay32120:cryptlib.obj
 0003:0000b820       _dynlock_lock_callback     10069820     libeay32120:cryptlib.obj
 0003:0000b824       _dynlock_destroy_callback  10069824     libeay32120:cryptlib.obj
 0003:0000b828       _malloc_debug_func         10069828     libeay32120:mem.obj
 0003:0000b82c       _realloc_debug_func        1006982c     libeay32120:mem.obj
 0003:0000b830       _free_debug_func           10069830     libeay32120:mem.obj
 0003:0000b834       _set_debug_options_func    10069834     libeay32120:mem.obj
 0003:0000b838       _get_debug_options_func    10069838     libeay32120:mem.obj
 0003:0000b840       _err_fns                   10069840     libeay32120:err.obj
 0003:0000b844       _int_error_hash            10069844     libeay32120:err.obj
 0003:0000b848       _int_thread_hash           10069848     libeay32120:err.obj
 0003:0000b84c       _int_thread_hash_references 1006984c     libeay32120:err.obj
 0003:0000b850       _SYS_str_reasons           10069850     libeay32120:err.obj
 0003:0000bc50       ?strerror_tab@?1??build_SYS_str_reasons@@9@9 10069c50     libeay32120:err.obj
 0003:0000cc30       ?buf@?1??ERR_error_string@@9@9 1006ac30     libeay32120:err.obj
 0003:0000cd30       ?fallback@?1??ERR_get_state@@9@9 1006ad30     libeay32120:err.obj
 0003:0000ce7c       _default_ECDSA_method      1006ae7c     libeay32120:ecs_lib.obj
 0003:0000ce80       _default_ECDH_method       1006ae80     libeay32120:ech_lib.obj
 0003:0000ce84       _funct_ref                 1006ae84     libeay32120:rand_lib.obj
 0003:0000ce88       _default_RAND_meth         1006ae88     libeay32120:rand_lib.obj
 0003:0000ce8c       _mh_mode                   1006ae8c     libeay32120:mem_dbg.obj
 0003:0000ce90       _order                     1006ae90     libeay32120:mem_dbg.obj
 0003:0000ce94       _mh                        1006ae94     libeay32120:mem_dbg.obj
 0003:0000ce98       _amih                      1006ae98     libeay32120:mem_dbg.obj
 0003:0000ce9c       _options                   1006ae9c     libeay32120:mem_dbg.obj
 0003:0000cea0       _num_disable               1006aea0     libeay32120:mem_dbg.obj
 0003:0000cea4       _disabling_thread          1006aea4     libeay32120:mem_dbg.obj
 0003:0000cea8       _break_order_num           1006aea8     libeay32120:mem_dbg.obj
 0003:0000ceac       _impl                      1006aeac     libeay32120:ex_data.obj
 0003:0000ceb0       _ex_data                   1006aeb0     libeay32120:ex_data.obj
 0003:0000ceb4       _ecdsa_table               1006aeb4     libeay32120:tb_ecdsa.obj
 0003:0000ceb8       _added                     1006aeb8     libeay32120:obj_dat.obj
 0003:0000cebc       _ecdh_table                1006aebc     libeay32120:tb_ecdh.obj
 0003:0000cec0       _state_num                 1006aec0     libeay32120:md_rand.obj
 0003:0000cec4       _state_index               1006aec4     libeay32120:md_rand.obj
 0003:0000cec8       _md_count                  1006aec8     libeay32120:md_rand.obj
 0003:0000ced0       _entropy                   1006aed0     libeay32120:md_rand.obj
 0003:0000ced8       _initialized               1006aed8     libeay32120:md_rand.obj
 0003:0000cedc       _crypto_lock_rand          1006aedc     libeay32120:md_rand.obj
 0003:0000cee0       _locking_thread            1006aee0     libeay32120:md_rand.obj
 0003:0000cee4       ?stirred_pool@?1??ssleay_rand_bytes@@9@9 1006aee4     libeay32120:md_rand.obj
 0003:0000cee8       _state                     1006aee8     libeay32120:md_rand.obj
 0003:0000d2fc       _md                        1006b2fc     libeay32120:md_rand.obj
 0003:0000d310       _rand_table                1006b310     libeay32120:tb_rand.obj
 0003:0000d314       _engine_list_head          1006b314     libeay32120:eng_list.obj
 0003:0000d318       _engine_list_tail          1006b318     libeay32120:eng_list.obj
 0003:0000d31c       _table_flags               1006b31c     libeay32120:eng_table.obj
 0003:0000d320       _cleanup_stack             1006b320     libeay32120:eng_lib.obj
 0003:0000d324       ?key@?3??RAND_event@@9@9   1006b324     libeay32120:rand_win.obj
 0003:0000d328       ?lastx@?4??RAND_event@@9@9 1006b328     libeay32120:rand_win.obj
 0003:0000d32c       ?lasty@?4??RAND_event@@9@9 1006b32c     libeay32120:rand_win.obj
 0003:0000d330       ?lastdx@?4??RAND_event@@9@9 1006b330     libeay32120:rand_win.obj
 0003:0000d334       ?lastdy@?4??RAND_event@@9@9 1006b334     libeay32120:rand_win.obj
 0003:0000d338       _digest_table              1006b338     libeay32120:tb_digest.obj
 0003:0000d340       _lastTZ                    1006b340     LIBCMT:tzset.obj
 0003:0000d344       ?first_time@?1??__tzset@@9@9 1006b344     LIBCMT:tzset.obj
 0003:0000d348       _tzapiused                 1006b348     LIBCMT:tzset.obj
 0003:0000d350       _tzinfo                    1006b350     LIBCMT:tzset.obj
 0003:0000d48c       _s_init                    1006b48c     * CIL library *:* CIL module *
 0003:0000d490       _s_l_endian                1006b490     * CIL library *:* CIL module *
 0003:0000d494       _s_asue                    1006b494     * CIL library *:* CIL module *
 0003:0000d4ac       _fd                        1006b4ac     * CIL library *:* CIL module *
 0003:0000d4c8       _SupportedAuthFeats        1006b4c8     * CIL library *:* CIL module *
 0003:0000d4cc       _cbIeCacheAllocated        1006b4cc     * CIL library *:* CIL module *
 0003:0000d4d0       _cs                        1006b4d0     * CIL library *:* CIL module *
 0003:0000d4e8       _cThread                   1006b4e8     * CIL library *:* CIL module *
 0003:0000d4ec       _cert_objs                 1006b4ec     * CIL library *:* CIL module *
 0003:0000d4f8       _cert_obj_x509             1006b4f8     * CIL library *:* CIL module *
 0003:0000d534       _g_hProvider               1006b534     * CIL library *:* CIL module *
 0003:0000d538       ?sign@?1??waigroup_cert_2_3_send@@9@9 1006b538     * CIL library *:* CIL module *
 0003:0000dd3c       _g_hProvider               1006bd3c     * CIL library *:* CIL module *
 0003:0000dd40       ?tbuf@?1??waigroup_cert_2_3_send@@9@9 1006bd40     * CIL library *:* CIL module *
 0003:0000e540       ?data_buff@?1??waigroup_cert_2_3_send@@9@9 1006c540     * CIL library *:* CIL module *
 0004:000177d0       $R000000                   100867d0     IHVService.res
 0004:00017b68       $R000398                   10086b68     IHVService.res
 0004:00017c90       $R0004C0                   10086c90     IHVService.res
 0004:00018b38       $R001368                   10087b38     IHVService.res
 0004:00018b60       $R001390                   10087b60     IHVService.res
 0004:000190c8       $R0018F8                   100880c8     IHVService.res
 0004:000190e0       $R001910                   100880e0     IHVService.res
 0004:00019648       $R001E78                   10088648     IHVService.res
 0004:00019660       $R001E90                   10088660     IHVService.res
 0004:00019bc8       $R0023F8                   10088bc8     IHVService.res
 0004:00019be0       $R002410                   10088be0     IHVService.res
 0004:0001a148       $R002978                   10089148     IHVService.res
 0004:0001a160       $R002990                   10089160     IHVService.res
 0004:0001a6c8       $R002EF8                   100896c8     IHVService.res
 0004:0001a6e0       $R002F10                   100896e0     IHVService.res
 0004:0001ac48       $R003478                   10089c48     IHVService.res
 0004:0001ac60       $R003490                   10089c60     IHVService.res
 0004:0001b1c8       $R0039F8                   1008a1c8     IHVService.res
 0004:0001b1e0       $R003A10                   1008a1e0     IHVService.res
 0004:0001b748       $R003F78                   1008a748     IHVService.res
 0004:0001b760       $R003F90                   1008a760     IHVService.res
 0004:0001bcc8       $R0044F8                   1008acc8     IHVService.res
 0004:0001bce0       $R004510                   1008ace0     IHVService.res
 0004:0001c248       $R004A78                   1008b248     IHVService.res
 0004:0001c260       $R004A90                   1008b260     IHVService.res
 0004:0001c7c8       $R004FF8                   1008b7c8     IHVService.res
 0004:0001c7e0       $R005010                   1008b7e0     IHVService.res
 0004:0001cd48       $R005578                   1008bd48     IHVService.res
 0004:0001cd60       $R005590                   1008bd60     IHVService.res
 0004:0001d2c8       $R005AF8                   1008c2c8     IHVService.res
 0004:0001d2e0       $R005B10                   1008c2e0     IHVService.res
 0004:0001d848       $R006078                   1008c848     IHVService.res
 0004:0001d860       $R006090                   1008c860     IHVService.res
 0004:0001ddc8       $R0065F8                   1008cdc8     IHVService.res
 0004:0001dde0       $R006610                   1008cde0     IHVService.res
 0004:0001e348       $R006B78                   1008d348     IHVService.res
 0004:0001e360       $R006B90                   1008d360     IHVService.res
 0004:0001e8c8       $R0070F8                   1008d8c8     IHVService.res
 0004:0001e8e0       $R007110                   1008d8e0     IHVService.res
 0004:0001ee48       $R007678                   1008de48     IHVService.res
 0004:0001ee60       $R007690                   1008de60     IHVService.res
 0004:0001f3c8       $R007BF8                   1008e3c8     IHVService.res
 0004:0001f3e0       $R007C10                   1008e3e0     IHVService.res
 0004:0001f948       $R008178                   1008e948     IHVService.res
 0004:0001f960       $R008190                   1008e960     IHVService.res
 0004:0001fec8       $R0086F8                   1008eec8     IHVService.res
 0004:0001fee0       $R008710                   1008eee0     IHVService.res
 0004:00020448       $R008C78                   1008f448     IHVService.res
 0004:00020460       $R008C90                   1008f460     IHVService.res
 0004:000209c8       $R0091F8                   1008f9c8     IHVService.res
 0004:000209e0       $R009210                   1008f9e0     IHVService.res
 0004:00020f48       $R009778                   1008ff48     IHVService.res
 0004:00020f60       $R009790                   1008ff60     IHVService.res
 0004:000214c8       $R009CF8                   100904c8     IHVService.res
 0004:000214e0       $R009D10                   100904e0     IHVService.res
 0004:00021a48       $R00A278                   10090a48     IHVService.res
 0004:00021a60       $R00A290                   10090a60     IHVService.res
 0004:00021fc8       $R00A7F8                   10090fc8     IHVService.res
 0004:00021fe0       $R00A810                   10090fe0     IHVService.res
 0004:00022548       $R00AD78                   10091548     IHVService.res
 0004:00022560       $R00AD90                   10091560     IHVService.res
 0004:00022ac8       $R00B2F8                   10091ac8     IHVService.res
 0004:00022ae0       $R00B310                   10091ae0     IHVService.res
 0004:00023048       $R00B878                   10092048     IHVService.res
 0004:00023060       $R00B890                   10092060     IHVService.res
 0004:000235c8       $R00BDF8                   100925c8     IHVService.res
 0004:000235e0       $R00BE10                   100925e0     IHVService.res
 0004:00023b48       $R00C378                   10092b48     IHVService.res
 0004:00023b60       $R00C390                   10092b60     IHVService.res
 0004:000240c8       $R00C8F8                   100930c8     IHVService.res
 0004:000240e0       $R00C910                   100930e0     IHVService.res
 0004:00024648       $R00CE78                   10093648     IHVService.res
 0004:00024660       $R00CE90                   10093660     IHVService.res
 0004:00024bc8       $R00D3F8                   10093bc8     IHVService.res
 0004:00024be0       $R00D410                   10093be0     IHVService.res
 0004:00025148       $R00D978                   10094148     IHVService.res
 0004:00025160       $R00D990                   10094160     IHVService.res
 0004:000256c8       $R00DEF8                   100946c8     IHVService.res
 0004:000256e0       $R00DF10                   100946e0     IHVService.res
 0004:00025c48       $R00E478                   10094c48     IHVService.res
 0004:00025c60       $R00E490                   10094c60     IHVService.res
 0004:000261c8       $R00E9F8                   100951c8     IHVService.res
 0004:000261e0       $R00EA10                   100951e0     IHVService.res
 0004:00026748       $R00EF78                   10095748     IHVService.res
 0004:00026760       $R00EF90                   10095760     IHVService.res
 0004:00026cc8       $R00F4F8                   10095cc8     IHVService.res
 0004:00026ce0       $R00F510                   10095ce0     IHVService.res
 0004:00027248       $R00FA78                   10096248     IHVService.res
 0004:00027260       $R00FA90                   10096260     IHVService.res
 0004:000277c8       $R00FFF8                   100967c8     IHVService.res
 0004:000277e0       $R010010                   100967e0     IHVService.res
 0004:00027d48       $R010578                   10096d48     IHVService.res
 0004:00027d60       $R010590                   10096d60     IHVService.res
 0004:000282c8       $R010AF8                   100972c8     IHVService.res
 0004:000282e0       $R010B10                   100972e0     IHVService.res
 0004:00028848       $R011078                   10097848     IHVService.res
 0004:00028860       $R011090                   10097860     IHVService.res
 0004:00028dc8       $R0115F8                   10097dc8     IHVService.res
 0004:00028de0       $R011610                   10097de0     IHVService.res
 0004:00029348       $R011B78                   10098348     IHVService.res
 0004:00029360       $R011B90                   10098360     IHVService.res
 0004:000298c8       $R0120F8                   100988c8     IHVService.res
 0004:000298e0       $R012110                   100988e0     IHVService.res
 0004:00029e48       $R012678                   10098e48     IHVService.res
 0004:00029e60       $R012690                   10098e60     IHVService.res
 0004:0002a3c8       $R012BF8                   100993c8     IHVService.res
 0004:0002a3e0       $R012C10                   100993e0     IHVService.res
 0004:0002a948       $R013178                   10099948     IHVService.res
 0004:0002a960       $R013190                   10099960     IHVService.res
 0004:0002aec8       $R0136F8                   10099ec8     IHVService.res
 0004:0002aee0       $R013710                   10099ee0     IHVService.res
 0004:0002b448       $R013C78                   1009a448     IHVService.res
 0004:0002b460       $R013C90                   1009a460     IHVService.res
 0004:0002b9c8       $R0141F8                   1009a9c8     IHVService.res
 0004:0002b9e0       $R014210                   1009a9e0     IHVService.res
 0004:0002bf48       $R014778                   1009af48     IHVService.res
 0004:0002bf60       $R014790                   1009af60     IHVService.res
 0004:0002c4c8       $R014CF8                   1009b4c8     IHVService.res
 0004:0002c4e0       $R014D10                   1009b4e0     IHVService.res
 0004:0002ca48       $R015278                   1009ba48     IHVService.res
 0004:0002ca60       $R015290                   1009ba60     IHVService.res
 0004:0002cfc8       $R0157F8                   1009bfc8     IHVService.res
 0004:0002cfe0       $R015810                   1009bfe0     IHVService.res
 0004:0002d548       $R015D78                   1009c548     IHVService.res
 0004:0002d560       $R015D90                   1009c560     IHVService.res
 0004:0002dac8       $R0162F8                   1009cac8     IHVService.res
 0004:0002dae0       $R016310                   1009cae0     IHVService.res
 0004:0002e048       $R016878                   1009d048     IHVService.res
 0004:0002e060       $R016890                   1009d060     IHVService.res
 0004:0002e5c8       $R016DF8                   1009d5c8     IHVService.res
 0004:0002e5e0       $R016E10                   1009d5e0     IHVService.res
 0004:0002eb48       $R017378                   1009db48     IHVService.res
 0004:0002eb60       $R017390                   1009db60     IHVService.res
 0004:0002f0c8       $R0178F8                   1009e0c8     IHVService.res
 0004:0002f0e0       $R017910                   1009e0e0     IHVService.res
 0004:0002f648       $R017E78                   1009e648     IHVService.res
 0004:0002f660       $R017E90                   1009e660     IHVService.res
 0004:0002fbc8       $R0183F8                   1009ebc8     IHVService.res
 0004:0002fbe0       $R018410                   1009ebe0     IHVService.res
 0004:00030148       $R018978                   1009f148     IHVService.res
 0004:00030160       $R018990                   1009f160     IHVService.res
 0004:000306c8       $R018EF8                   1009f6c8     IHVService.res
 0004:000306e0       $R018F10                   1009f6e0     IHVService.res
 0004:00030c48       $R019478                   1009fc48     IHVService.res
 0004:00030c60       $R019490                   1009fc60     IHVService.res
 0004:000311c8       $R0199F8                   100a01c8     IHVService.res
 0004:000311e0       $R019A10                   100a01e0     IHVService.res
 0004:00031748       $R019F78                   100a0748     IHVService.res
 0004:00031760       $R019F90                   100a0760     IHVService.res
 0004:00031cc8       $R01A4F8                   100a0cc8     IHVService.res
 0004:00031ce0       $R01A510                   100a0ce0     IHVService.res
 0004:00032248       $R01AA78                   100a1248     IHVService.res
 0004:00032260       $R01AA90                   100a1260     IHVService.res
 0004:000327c8       $R01AFF8                   100a17c8     IHVService.res
 0004:000327e0       $R01B010                   100a17e0     IHVService.res
 0004:00032d48       $R01B578                   100a1d48     IHVService.res
 0004:00032d60       $R01B590                   100a1d60     IHVService.res
 0004:000332c8       $R01BAF8                   100a22c8     IHVService.res
 0004:000332e0       $R01BB10                   100a22e0     IHVService.res
 0004:00033848       $R01C078                   100a2848     IHVService.res
 0004:00033860       $R01C090                   100a2860     IHVService.res
 0004:00033dc8       $R01C5F8                   100a2dc8     IHVService.res
 0004:00033de0       $R01C610                   100a2de0     IHVService.res
 0004:00034348       $R01CB78                   100a3348     IHVService.res
 0004:00034360       $R01CB90                   100a3360     IHVService.res
 0004:000348c8       $R01D0F8                   100a38c8     IHVService.res
 0004:000348e0       $R01D110                   100a38e0     IHVService.res
 0004:00034e48       $R01D678                   100a3e48     IHVService.res
 0004:00034e60       $R01D690                   100a3e60     IHVService.res
 0004:000353c8       $R01DBF8                   100a43c8     IHVService.res
 0004:000353e0       $R01DC10                   100a43e0     IHVService.res
 0004:00035948       $R01E178                   100a4948     IHVService.res
 0004:00035960       $R01E190                   100a4960     IHVService.res
 0004:00035ec8       $R01E6F8                   100a4ec8     IHVService.res
 0004:00035ee0       $R01E710                   100a4ee0     IHVService.res
 0004:00036448       $R01EC78                   100a5448     IHVService.res
 0004:00036460       $R01EC90                   100a5460     IHVService.res
 0004:000369c8       $R01F1F8                   100a59c8     IHVService.res
 0004:000369e0       $R01F210                   100a59e0     IHVService.res
 0004:00036f48       $R01F778                   100a5f48     IHVService.res
 0004:00036f60       $R01F790                   100a5f60     IHVService.res
 0004:000374c8       $R01FCF8                   100a64c8     IHVService.res
 0004:000374e0       $R01FD10                   100a64e0     IHVService.res
 0004:00037a48       $R020278                   100a6a48     IHVService.res
 0004:00037a60       $R020290                   100a6a60     IHVService.res
 0004:00037fc8       $R0207F8                   100a6fc8     IHVService.res
 0004:00037fe0       $R020810                   100a6fe0     IHVService.res
 0004:00038548       $R020D78                   100a7548     IHVService.res
 0004:00038560       $R020D90                   100a7560     IHVService.res
 0004:00038ac8       $R0212F8                   100a7ac8     IHVService.res
 0004:00038ae0       $R021310                   100a7ae0     IHVService.res
 0004:00039048       $R021878                   100a8048     IHVService.res
 0004:00039060       $R021890                   100a8060     IHVService.res
 0004:000395c8       $R021DF8                   100a85c8     IHVService.res
 0004:000395e0       $R021E10                   100a85e0     IHVService.res
 0004:00039b48       $R022378                   100a8b48     IHVService.res
 0004:00039b60       $R022390                   100a8b60     IHVService.res
 0004:0003a0c8       $R0228F8                   100a90c8     IHVService.res
 0004:0003a0e0       $R022910                   100a90e0     IHVService.res
 0004:0003a648       $R022E78                   100a9648     IHVService.res
 0004:0003a660       $R022E90                   100a9660     IHVService.res
 0004:0003abc8       $R0233F8                   100a9bc8     IHVService.res
 0004:0003abe0       $R023410                   100a9be0     IHVService.res
 0004:0003b148       $R023978                   100aa148     IHVService.res
 0004:0003b160       $R023990                   100aa160     IHVService.res
 0004:0003b6c8       $R023EF8                   100aa6c8     IHVService.res
 0004:0003b6e0       $R023F10                   100aa6e0     IHVService.res
 0004:0003bc48       $R024478                   100aac48     IHVService.res
 0004:0003bc60       $R024490                   100aac60     IHVService.res
 0004:0003c1c8       $R0249F8                   100ab1c8     IHVService.res
 0004:0003c1e0       $R024A10                   100ab1e0     IHVService.res
 0004:0003c748       $R024F78                   100ab748     IHVService.res
 0004:0003c760       $R024F90                   100ab760     IHVService.res
 0004:0003ccc8       $R0254F8                   100abcc8     IHVService.res
 0004:0003cce0       $R025510                   100abce0     IHVService.res
 0004:0003d248       $R025A78                   100ac248     IHVService.res
 0004:0003d260       $R025A90                   100ac260     IHVService.res
 0004:0003d7c8       $R025FF8                   100ac7c8     IHVService.res
 0004:0003d7e0       $R026010                   100ac7e0     IHVService.res
 0004:0003dd48       $R026578                   100acd48     IHVService.res
 0004:0003dd60       $R026590                   100acd60     IHVService.res
 0004:0003e2c8       $R026AF8                   100ad2c8     IHVService.res
 0004:0003e2e0       $R026B10                   100ad2e0     IHVService.res
 0004:0003e848       $R027078                   100ad848     IHVService.res
 0004:0003e860       $R027090                   100ad860     IHVService.res
 0004:0003edc8       $R0275F8                   100addc8     IHVService.res
 0004:0003ede0       $R027610                   100adde0     IHVService.res
 0004:0003f348       $R027B78                   100ae348     IHVService.res
 0004:0003f360       $R027B90                   100ae360     IHVService.res
 0004:0003f8c8       $R0280F8                   100ae8c8     IHVService.res
 0004:0003f8e0       $R028110                   100ae8e0     IHVService.res
 0004:0003fe48       $R028678                   100aee48     IHVService.res
 0004:0003fe60       $R028690                   100aee60     IHVService.res
 0004:000403c8       $R028BF8                   100af3c8     IHVService.res
 0004:000403e0       $R028C10                   100af3e0     IHVService.res
 0004:00040948       $R029178                   100af948     IHVService.res
 0004:00040960       $R029190                   100af960     IHVService.res
 0004:00040ec8       $R0296F8                   100afec8     IHVService.res
 0004:00040ee0       $R029710                   100afee0     IHVService.res
 0004:00041448       $R029C78                   100b0448     IHVService.res
 0004:00041460       $R029C90                   100b0460     IHVService.res
 0004:000419c8       $R02A1F8                   100b09c8     IHVService.res
 0004:000419e0       $R02A210                   100b09e0     IHVService.res
 0004:00041f48       $R02A778                   100b0f48     IHVService.res
 0004:00041f60       $R02A790                   100b0f60     IHVService.res
 0004:000424c8       $R02ACF8                   100b14c8     IHVService.res
 0004:000424e0       $R02AD10                   100b14e0     IHVService.res
 0004:00042a48       $R02B278                   100b1a48     IHVService.res
 0004:00042a60       $R02B290                   100b1a60     IHVService.res
 0004:00042fc8       $R02B7F8                   100b1fc8     IHVService.res
 0004:00042fe0       $R02B810                   100b1fe0     IHVService.res
 0004:00043548       $R02BD78                   100b2548     IHVService.res
 0004:00043560       $R02BD90                   100b2560     IHVService.res
 0004:00043ac8       $R02C2F8                   100b2ac8     IHVService.res
 0004:00043ae0       $R02C310                   100b2ae0     IHVService.res
 0004:00044048       $R02C878                   100b3048     IHVService.res
 0004:00044060       $R02C890                   100b3060     IHVService.res
 0004:000445c8       $R02CDF8                   100b35c8     IHVService.res
 0004:000445e0       $R02CE10                   100b35e0     IHVService.res
 0004:00044b48       $R02D378                   100b3b48     IHVService.res
 0004:00044b60       $R02D390                   100b3b60     IHVService.res
 0004:000450c8       $R02D8F8                   100b40c8     IHVService.res
 0004:000450e0       $R02D910                   100b40e0     IHVService.res
 0004:00045648       $R02DE78                   100b4648     IHVService.res
 0004:00045660       $R02DE90                   100b4660     IHVService.res
 0004:00045bc8       $R02E3F8                   100b4bc8     IHVService.res
 0004:00045be0       $R02E410                   100b4be0     IHVService.res
 0004:00046148       $R02E978                   100b5148     IHVService.res
 0004:00046160       $R02E990                   100b5160     IHVService.res
 0004:000466c8       $R02EEF8                   100b56c8     IHVService.res
 0004:000466e0       $R02EF10                   100b56e0     IHVService.res
 0004:00046c48       $R02F478                   100b5c48     IHVService.res
 0004:00046c60       $R02F490                   100b5c60     IHVService.res
 0004:000471c8       $R02F9F8                   100b61c8     IHVService.res
 0004:000471e0       $R02FA10                   100b61e0     IHVService.res
 0004:00047748       $R02FF78                   100b6748     IHVService.res
 0004:00047760       $R02FF90                   100b6760     IHVService.res
 0004:00047cc8       $R0304F8                   100b6cc8     IHVService.res
 0004:00047ce0       $R030510                   100b6ce0     IHVService.res
 0004:00048248       $R030A78                   100b7248     IHVService.res
 0004:00048260       $R030A90                   100b7260     IHVService.res
 0004:000487c8       $R030FF8                   100b77c8     IHVService.res
 0004:000487e0       $R031010                   100b77e0     IHVService.res
 0004:00048d48       $R031578                   100b7d48     IHVService.res
 0004:00048d60       $R031590                   100b7d60     IHVService.res
 0004:000492c8       $R031AF8                   100b82c8     IHVService.res
 0004:000492e0       $R031B10                   100b82e0     IHVService.res
 0004:00049848       $R032078                   100b8848     IHVService.res
 0004:00049860       $R032090                   100b8860     IHVService.res
 0004:00049dc8       $R0325F8                   100b8dc8     IHVService.res
 0004:00049de0       $R032610                   100b8de0     IHVService.res
 0004:0004a348       $R032B78                   100b9348     IHVService.res
 0004:0004a360       $R032B90                   100b9360     IHVService.res
 0004:0004a8c8       $R0330F8                   100b98c8     IHVService.res
 0004:0004a8e0       $R033110                   100b98e0     IHVService.res
 0004:0004ae48       $R033678                   100b9e48     IHVService.res
 0004:0004ae60       $R033690                   100b9e60     IHVService.res
 0004:0004b3c8       $R033BF8                   100ba3c8     IHVService.res
 0004:0004b3e0       $R033C10                   100ba3e0     IHVService.res
 0004:0004b948       $R034178                   100ba948     IHVService.res
 0004:0004b960       $R034190                   100ba960     IHVService.res
 0004:0004bec8       $R0346F8                   100baec8     IHVService.res
 0004:0004bee0       $R034710                   100baee0     IHVService.res
 0004:0004c448       $R034C78                   100bb448     IHVService.res
 0004:0004c460       $R034C90                   100bb460     IHVService.res
 0004:0004c9c8       $R0351F8                   100bb9c8     IHVService.res
 0004:0004c9e0       $R035210                   100bb9e0     IHVService.res
 0004:0004cf48       $R035778                   100bbf48     IHVService.res
 0004:0004cf60       $R035790                   100bbf60     IHVService.res
 0004:0004d4c8       $R035CF8                   100bc4c8     IHVService.res
 0004:0004d4e0       $R035D10                   100bc4e0     IHVService.res
 0004:0004da48       $R036278                   100bca48     IHVService.res
 0004:0004da60       $R036290                   100bca60     IHVService.res
 0004:0004dfc8       $R0367F8                   100bcfc8     IHVService.res
 0004:0004dfe0       $R036810                   100bcfe0     IHVService.res
 0004:0004e548       $R036D78                   100bd548     IHVService.res
 0004:0004e560       $R036D90                   100bd560     IHVService.res
 0004:0004eac8       $R0372F8                   100bdac8     IHVService.res
 0004:0004eae0       $R037310                   100bdae0     IHVService.res
 0004:0004f048       $R037878                   100be048     IHVService.res
 0004:0004f060       $R037890                   100be060     IHVService.res
 0004:0004f5c8       $R037DF8                   100be5c8     IHVService.res
 0004:0004f5e0       $R037E10                   100be5e0     IHVService.res
 0004:0004fb48       $R038378                   100beb48     IHVService.res
 0004:0004fb60       $R038390                   100beb60     IHVService.res
 0004:000500c8       $R0388F8                   100bf0c8     IHVService.res
 0004:000500e0       $R038910                   100bf0e0     IHVService.res
 0004:00050648       $R038E78                   100bf648     IHVService.res
 0004:00050660       $R038E90                   100bf660     IHVService.res
 0004:00050bc8       $R0393F8                   100bfbc8     IHVService.res
 0004:00050be0       $R039410                   100bfbe0     IHVService.res
 0004:00051148       $R039978                   100c0148     IHVService.res
 0004:00051160       $R039990                   100c0160     IHVService.res
 0004:000516c8       $R039EF8                   100c06c8     IHVService.res
 0004:000516e0       $R039F10                   100c06e0     IHVService.res
 0004:00051c48       $R03A478                   100c0c48     IHVService.res
 0004:00051c60       $R03A490                   100c0c60     IHVService.res
 0004:000521c8       $R03A9F8                   100c11c8     IHVService.res
 0004:000521e0       $R03AA10                   100c11e0     IHVService.res
 0004:00052748       $R03AF78                   100c1748     IHVService.res
 0004:00052760       $R03AF90                   100c1760     IHVService.res
 0004:00052cc8       $R03B4F8                   100c1cc8     IHVService.res
 0004:00052ce0       $R03B510                   100c1ce0     IHVService.res
 0004:00053148       $R03B978                   100c2148     IHVService.res
 0004:00053160       $R03B990                   100c2160     IHVService.res
 0004:000535c8       $R03BDF8                   100c25c8     IHVService.res
 0004:000535e0       $R03BE10                   100c25e0     IHVService.res
 0004:00053a48       $R03C278                   100c2a48     IHVService.res
 0004:00053a60       $R03C290                   100c2a60     IHVService.res
 0004:00053ec8       $R03C6F8                   100c2ec8     IHVService.res
 0004:00053ee0       $R03C710                   100c2ee0     IHVService.res
 0004:00054348       $R03CB78                   100c3348     IHVService.res
 0004:00054360       $R03CB90                   100c3360     IHVService.res
 0004:000547c8       $R03CFF8                   100c37c8     IHVService.res
 0004:000547e0       $R03D010                   100c37e0     IHVService.res
 0004:00054c48       $R03D478                   100c3c48     IHVService.res
 0004:00054c60       $R03D490                   100c3c60     IHVService.res
 0004:000550c8       $R03D8F8                   100c40c8     IHVService.res
 0004:000550e0       $R03D910                   100c40e0     IHVService.res
 0004:00055548       $R03DD78                   100c4548     IHVService.res
 0004:00055560       $R03DD90                   100c4560     IHVService.res
 0004:000559c8       $R03E1F8                   100c49c8     IHVService.res
 0004:000559e0       $R03E210                   100c49e0     IHVService.res
 0004:00055e48       $R03E678                   100c4e48     IHVService.res
 0004:00055e60       $R03E690                   100c4e60     IHVService.res
 0004:000562c8       $R03EAF8                   100c52c8     IHVService.res
 0004:000562e0       $R03EB10                   100c52e0     IHVService.res
 0004:00056748       $R03EF78                   100c5748     IHVService.res
 0004:00056760       $R03EF90                   100c5760     IHVService.res
 0004:00056bc8       $R03F3F8                   100c5bc8     IHVService.res
 0004:00056be0       $R03F410                   100c5be0     IHVService.res
 0004:00057048       $R03F878                   100c6048     IHVService.res
 0004:00057060       $R03F890                   100c6060     IHVService.res
 0004:000574c8       $R03FCF8                   100c64c8     IHVService.res
 0004:000574e0       $R03FD10                   100c64e0     IHVService.res
 0004:00057948       $R040178                   100c6948     IHVService.res
 0004:00057960       $R040190                   100c6960     IHVService.res
 0004:00057dc8       $R0405F8                   100c6dc8     IHVService.res
 0004:00057de0       $R040610                   100c6de0     IHVService.res
 0004:00058248       $R040A78                   100c7248     IHVService.res
 0004:00058260       $R040A90                   100c7260     IHVService.res
 0004:000586c8       $R040EF8                   100c76c8     IHVService.res
 0004:000586e0       $R040F10                   100c76e0     IHVService.res
 0004:00058b48       $R041378                   100c7b48     IHVService.res
 0004:00058b60       $R041390                   100c7b60     IHVService.res
 0004:00058fc8       $R0417F8                   100c7fc8     IHVService.res
 0004:00058fe0       $R041810                   100c7fe0     IHVService.res
 0004:00059448       $R041C78                   100c8448     IHVService.res
 0004:00059460       $R041C90                   100c8460     IHVService.res
 0004:00059588       $R041DB8                   100c8588     IHVService.res
 0004:000595a0       $R041DD0                   100c85a0     IHVService.res
 0004:000596c8       $R041EF8                   100c86c8     IHVService.res
 0004:000596e0       $R041F10                   100c86e0     IHVService.res
 0004:0005d228       $R045A58                   100cc228     IHVService.res
 0004:0005ea50       $R047280                   100cda50     IHVService.res
 0004:00060f38       $R049768                   100cff38     IHVService.res
 0004:000635e0       $R04BE10                   100d25e0     IHVService.res
 0004:000635f8       $R04BE28                   100d25f8     IHVService.res
 0004:00063b08       $R04C338                   100d2b08     IHVService.res
 0004:00063e48       $R04C678                   100d2e48     IHVService.res
 0004:000640d8       $R04C908                   100d30d8     IHVService.res
 0004:000643a8       $R04CBD8                   100d33a8     IHVService.res
 0004:000647b8       $R04CFE8                   100d37b8     IHVService.res
 0004:00064c68       $R04D498                   100d3c68     IHVService.res
 0004:00064f90       $R04D7C0                   100d3f90     IHVService.res
 0004:00065440       $R04DC70                   100d4440     IHVService.res
 0004:00065d08       $R04E538                   100d4d08     IHVService.res
 0004:000660a0       $R04E8D0                   100d50a0     IHVService.res
 0004:000665b8       $R04EDE8                   100d55b8     IHVService.res
 0004:00066a08       $R04F238                   100d5a08     IHVService.res
 0004:00066df0       $R04F620                   100d5df0     IHVService.res
 0004:000672b0       $R04FAE0                   100d62b0     IHVService.res
 0004:00067508       $R04FD38                   100d6508     IHVService.res
 0004:00067a40       $R050270                   100d6a40     IHVService.res
 0004:00067ba8       $R0503D8                   100d6ba8     IHVService.res
 0004:000680a8       $R0508D8                   100d70a8     IHVService.res
 0004:00068290       $R050AC0                   100d7290     IHVService.res
 0004:00068420       $R050C50                   100d7420     IHVService.res
 0004:00068850       $R051080                   100d7850     IHVService.res
 0004:00068ce0       $R051510                   100d7ce0     IHVService.res
 0004:00069140       $R051970                   100d8140     IHVService.res
 0004:00069410       $R051C40                   100d8410     IHVService.res
 0004:00069ae8       $R052318                   100d8ae8     IHVService.res
 0004:0006a128       $R052958                   100d9128     IHVService.res
 0004:0006a658       $R052E88                   100d9658     IHVService.res
 0004:0006a920       $R053150                   100d9920     IHVService.res
 0004:0006b058       $R053888                   100da058     IHVService.res
 0004:0006b300       $R053B30                   100da300     IHVService.res
 0004:0006b5d8       $R053E08                   100da5d8     IHVService.res
 0004:0006b880       $R0540B0                   100da880     IHVService.res
 0004:0006bb48       $R054378                   100dab48     IHVService.res
 0004:0006c260       $R054A90                   100db260     IHVService.res
 0004:0006c6b8       $R054EE8                   100db6b8     IHVService.res
 0004:0006c930       $R055160                   100db930     IHVService.res
 0004:0006ce08       $R055638                   100dbe08     IHVService.res
 0004:0006d230       $R055A60                   100dc230     IHVService.res
 0004:0006d798       $R055FC8                   100dc798     IHVService.res
 0004:0006db60       $R056390                   100dcb60     IHVService.res
 0004:0006df80       $R0567B0                   100dcf80     IHVService.res
 0004:0006e2e0       $R056B10                   100dd2e0     IHVService.res
 0004:0006e658       $R056E88                   100dd658     IHVService.res
 0004:0006e990       $R0571C0                   100dd990     IHVService.res
 0004:0006eb08       $R057338                   100ddb08     IHVService.res
 0004:0006ed28       $R057558                   100ddd28     IHVService.res
 0004:0006f0c0       $R0578F0                   100de0c0     IHVService.res
 0004:0006f3e8       $R057C18                   100de3e8     IHVService.res
 0004:0006f5c8       $R057DF8                   100de5c8     IHVService.res
 0004:0006f900       $R058130                   100de900     IHVService.res
 0004:000700e8       $R058918                   100df0e8     IHVService.res
 0004:00070c28       $R059458                   100dfc28     IHVService.res
 0004:000710a8       $R0598D8                   100e00a8     IHVService.res
 0004:00071990       $R05A1C0                   100e0990     IHVService.res
 0004:00071e48       $R05A678                   100e0e48     IHVService.res
 0004:000722d8       $R05AB08                   100e12d8     IHVService.res
 0004:00072670       $R05AEA0                   100e1670     IHVService.res
 0004:00072c30       $R05B460                   100e1c30     IHVService.res
 0004:00073388       $R05BBB8                   100e2388     IHVService.res
 0004:00073650       $R05BE80                   100e2650     IHVService.res
 0004:00073a48       $R05C278                   100e2a48     IHVService.res
 0004:00073df8       $R05C628                   100e2df8     IHVService.res
 0004:00074300       $R05CB30                   100e3300     IHVService.res
 0004:000748f0       $R05D120                   100e38f0     IHVService.res
 0004:00074cf8       $R05D528                   100e3cf8     IHVService.res
 0004:000752f8       $R05DB28                   100e42f8     IHVService.res
 0004:000757c8       $R05DFF8                   100e47c8     IHVService.res
 0004:00075be8       $R05E418                   100e4be8     IHVService.res
 0004:00076158       $R05E988                   100e5158     IHVService.res
 0004:00076648       $R05EE78                   100e5648     IHVService.res
 0004:00076ba0       $R05F3D0                   100e5ba0     IHVService.res
 0004:00076e90       $R05F6C0                   100e5e90     IHVService.res
 0004:00076f20       $R05F750                   100e5f20     IHVService.res
 0004:00077058       $R05F888                   100e6058     IHVService.res
 0004:00077190       $R05F9C0                   100e6190     IHVService.res
 0004:000772e8       $R05FB18                   100e62e8     IHVService.res
 0004:00077420       $R05FC50                   100e6420     IHVService.res
 0004:000775a8       $R05FDD8                   100e65a8     IHVService.res
 0004:000776c8       $R05FEF8                   100e66c8     IHVService.res
 0004:000777b8       $R05FFE8                   100e67b8     IHVService.res
 0004:000778e8       $R060118                   100e68e8     IHVService.res
 0004:00077a00       $R060230                   100e6a00     IHVService.res
 0004:00077b58       $R060388                   100e6b58     IHVService.res
 0004:00077c68       $R060498                   100e6c68     IHVService.res
 0004:00077df0       $R060620                   100e6df0     IHVService.res
 0004:00077f38       $R060768                   100e6f38     IHVService.res
 0004:000780e0       $R060910                   100e70e0     IHVService.res
 0004:00078268       $R060A98                   100e7268     IHVService.res
 0004:000782b0       $R060AE0                   100e72b0     IHVService.res
 0004:00078850       $R061080                   100e7850     IHVService.res
 0004:00078bb8       $R0613E8                   100e7bb8     IHVService.res
 0004:00078e90       $R0616C0                   100e7e90     IHVService.res
 0004:000791b0       $R0619E0                   100e81b0     IHVService.res
 0004:00079670       $R061EA0                   100e8670     IHVService.res
 0004:00079b18       $R062348                   100e8b18     IHVService.res
 0004:00079ec0       $R0626F0                   100e8ec0     IHVService.res
 0004:0007a4e0       $R062D10                   100e94e0     IHVService.res
 0004:0007ae08       $R063638                   100e9e08     IHVService.res
 0004:0007b260       $R063A90                   100ea260     IHVService.res
 0004:0007b8d8       $R064108                   100ea8d8     IHVService.res
 0004:0007be30       $R064660                   100eae30     IHVService.res
 0004:0007c298       $R064AC8                   100eb298     IHVService.res
 0004:0007c880       $R0650B0                   100eb880     IHVService.res
 0004:0007cae8       $R065318                   100ebae8     IHVService.res
 0004:0007d118       $R065948                   100ec118     IHVService.res
 0004:0007d2b0       $R065AE0                   100ec2b0     IHVService.res
 0004:0007d910       $R066140                   100ec910     IHVService.res
 0004:0007db50       $R066380                   100ecb50     IHVService.res
 0004:0007dd20       $R066550                   100ecd20     IHVService.res
 0004:0007e1b8       $R0669E8                   100ed1b8     IHVService.res
 0004:0007e738       $R066F68                   100ed738     IHVService.res
 0004:0007eca8       $R0674D8                   100edca8     IHVService.res
 0004:0007efa8       $R0677D8                   100edfa8     IHVService.res
 0004:0007f778       $R067FA8                   100ee778     IHVService.res
 0004:0007fe98       $R0686C8                   100eee98     IHVService.res
 0004:000804b8       $R068CE8                   100ef4b8     IHVService.res
 0004:000807f0       $R069020                   100ef7f0     IHVService.res
 0004:00080fe8       $R069818                   100effe8     IHVService.res
 0004:00081360       $R069B90                   100f0360     IHVService.res
 0004:000816e0       $R069F10                   100f06e0     IHVService.res
 0004:000819b8       $R06A1E8                   100f09b8     IHVService.res
 0004:00081d30       $R06A560                   100f0d30     IHVService.res
 0004:00082580       $R06ADB0                   100f1580     IHVService.res
 0004:00082a88       $R06B2B8                   100f1a88     IHVService.res
 0004:00082d68       $R06B598                   100f1d68     IHVService.res
 0004:000832b8       $R06BAE8                   100f22b8     IHVService.res
 0004:00083788       $R06BFB8                   100f2788     IHVService.res
 0004:00083db8       $R06C5E8                   100f2db8     IHVService.res
 0004:00084210       $R06CA40                   100f3210     IHVService.res
 0004:000846d0       $R06CF00                   100f36d0     IHVService.res
 0004:00084ae0       $R06D310                   100f3ae0     IHVService.res
 0004:00084f48       $R06D778                   100f3f48     IHVService.res
 0004:00085370       $R06DBA0                   100f4370     IHVService.res
 0004:00085548       $R06DD78                   100f4548     IHVService.res
 0004:00085808       $R06E038                   100f4808     IHVService.res
 0004:00085be0       $R06E410                   100f4be0     IHVService.res
 0004:00085f68       $R06E798                   100f4f68     IHVService.res
 0004:00086118       $R06E948                   100f5118     IHVService.res
 0004:000864c8       $R06ECF8                   100f54c8     IHVService.res
 0004:00086d68       $R06F598                   100f5d68     IHVService.res
 0004:00087968       $R070198                   100f6968     IHVService.res
 0004:00087ea8       $R0706D8                   100f6ea8     IHVService.res
 0004:00088748       $R070F78                   100f7748     IHVService.res
 0004:00088ce8       $R071518                   100f7ce8     IHVService.res
 0004:00089220       $R071A50                   100f8220     IHVService.res
 0004:000896c8       $R071EF8                   100f86c8     IHVService.res
 0004:00089fc8       $R0727F8                   100f8fc8     IHVService.res
 0004:0008a988       $R0731B8                   100f9988     IHVService.res
 0004:0008ad58       $R073588                   100f9d58     IHVService.res
 0004:0008b340       $R073B70                   100fa340     IHVService.res
 0004:0008b7c0       $R073FF0                   100fa7c0     IHVService.res
 0004:0008beb8       $R0746E8                   100faeb8     IHVService.res
 0004:0008c5f0       $R074E20                   100fb5f0     IHVService.res
 0004:0008cb70       $R0753A0                   100fbb70     IHVService.res
 0004:0008d300       $R075B30                   100fc300     IHVService.res
 0004:0008d7e0       $R076010                   100fc7e0     IHVService.res
 0004:0008dcf0       $R076520                   100fccf0     IHVService.res
 0004:0008e360       $R076B90                   100fd360     IHVService.res
 0004:0008e978       $R0771A8                   100fd978     IHVService.res
 0004:0008ef58       $R077788                   100fdf58     IHVService.res
 0004:0008f338       $R077B68                   100fe338     IHVService.res
 0004:0008f3e0       $R077C10                   100fe3e0     IHVService.res
 0004:0008f518       $R077D48                   100fe518     IHVService.res
 0004:0008f670       $R077EA0                   100fe670     IHVService.res
 0004:0008f7c8       $R077FF8                   100fe7c8     IHVService.res
 0004:0008f938       $R078168                   100fe938     IHVService.res
 0004:0008fae0       $R078310                   100feae0     IHVService.res
 0004:0008fc60       $R078490                   100fec60     IHVService.res
 0004:0008fda0       $R0785D0                   100feda0     IHVService.res
 0004:0008ff30       $R078760                   100fef30     IHVService.res
 0004:00090068       $R078898                   100ff068     IHVService.res
 0004:00090208       $R078A38                   100ff208     IHVService.res
 0004:00090350       $R078B80                   100ff350     IHVService.res
 0004:00090500       $R078D30                   100ff500     IHVService.res
 0004:00090670       $R078EA0                   100ff670     IHVService.res
 0004:00090810       $R079040                   100ff810     IHVService.res
 0004:000909a0       $R0791D0                   100ff9a0     IHVService.res
 0004:000909f0       $R079220                   100ff9f0     IHVService.res
 0004:00090f70       $R0797A0                   100fff70     IHVService.res
 0004:00091308       $R079B38                   10100308     IHVService.res
 0004:00091600       $R079E30                   10100600     IHVService.res
 0004:00091900       $R07A130                   10100900     IHVService.res
 0004:00091d90       $R07A5C0                   10100d90     IHVService.res
 0004:000922c0       $R07AAF0                   101012c0     IHVService.res
 0004:000926a0       $R07AED0                   101016a0     IHVService.res
 0004:00092c18       $R07B448                   10101c18     IHVService.res
 0004:000935a8       $R07BDD8                   101025a8     IHVService.res
 0004:00093a00       $R07C230                   10102a00     IHVService.res
 0004:00093ff0       $R07C820                   10102ff0     IHVService.res
 0004:00094528       $R07CD58                   10103528     IHVService.res
 0004:000949f0       $R07D220                   101039f0     IHVService.res
 0004:00095028       $R07D858                   10104028     IHVService.res
 0004:000952c8       $R07DAF8                   101042c8     IHVService.res
 0004:00095908       $R07E138                   10104908     IHVService.res
 0004:00095a98       $R07E2C8                   10104a98     IHVService.res
 0004:00096130       $R07E960                   10105130     IHVService.res
 0004:00096370       $R07EBA0                   10105370     IHVService.res
 0004:00096550       $R07ED80                   10105550     IHVService.res
 0004:00096a38       $R07F268                   10105a38     IHVService.res
 0004:00096fd8       $R07F808                   10105fd8     IHVService.res
 0004:00097568       $R07FD98                   10106568     IHVService.res
 0004:000978e0       $R080110                   101068e0     IHVService.res
 0004:00098120       $R080950                   10107120     IHVService.res
 0004:00098890       $R0810C0                   10107890     IHVService.res
 0004:00098f18       $R081748                   10107f18     IHVService.res
 0004:00099240       $R081A70                   10108240     IHVService.res
 0004:00099a48       $R082278                   10108a48     IHVService.res
 0004:00099d70       $R0825A0                   10108d70     IHVService.res
 0004:0009a0e0       $R082910                   101090e0     IHVService.res
 0004:0009a3d8       $R082C08                   101093d8     IHVService.res
 0004:0009a798       $R082FC8                   10109798     IHVService.res
 0004:0009b0b0       $R0838E0                   1010a0b0     IHVService.res
 0004:0009b5f0       $R083E20                   1010a5f0     IHVService.res
 0004:0009b8f8       $R084128                   1010a8f8     IHVService.res
 0004:0009be40       $R084670                   1010ae40     IHVService.res
 0004:0009c2b8       $R084AE8                   1010b2b8     IHVService.res
 0004:0009c8f8       $R085128                   1010b8f8     IHVService.res
 0004:0009cd40       $R085570                   1010bd40     IHVService.res
 0004:0009d248       $R085A78                   1010c248     IHVService.res
 0004:0009d650       $R085E80                   1010c650     IHVService.res
 0004:0009dac8       $R0862F8                   1010cac8     IHVService.res
 0004:0009def0       $R086720                   1010cef0     IHVService.res
 0004:0009e0d8       $R086908                   1010d0d8     IHVService.res
 0004:0009e3a0       $R086BD0                   1010d3a0     IHVService.res
 0004:0009e7b8       $R086FE8                   1010d7b8     IHVService.res
 0004:0009eb08       $R087338                   1010db08     IHVService.res
 0004:0009ecc0       $R0874F0                   1010dcc0     IHVService.res
 0004:0009f068       $R087898                   1010e068     IHVService.res
 0004:0009fa00       $R088230                   1010ea00     IHVService.res
 0004:000a0708       $R088F38                   1010f708     IHVService.res
 0004:000a0c30       $R089460                   1010fc30     IHVService.res
 0004:000a15f8       $R089E28                   101105f8     IHVService.res
 0004:000a1bd0       $R08A400                   10110bd0     IHVService.res
 0004:000a2140       $R08A970                   10111140     IHVService.res
 0004:000a25d0       $R08AE00                   101115d0     IHVService.res
 0004:000a2e88       $R08B6B8                   10111e88     IHVService.res
 0004:000a3778       $R08BFA8                   10112778     IHVService.res
 0004:000a3b68       $R08C398                   10112b68     IHVService.res
 0004:000a40c8       $R08C8F8                   101130c8     IHVService.res
 0004:000a4528       $R08CD58                   10113528     IHVService.res
 0004:000a4bb0       $R08D3E0                   10113bb0     IHVService.res
 0004:000a5218       $R08DA48                   10114218     IHVService.res
 0004:000a5730       $R08DF60                   10114730     IHVService.res
 0004:000a5e70       $R08E6A0                   10114e70     IHVService.res
 0004:000a6390       $R08EBC0                   10115390     IHVService.res
 0004:000a6870       $R08F0A0                   10115870     IHVService.res
 0004:000a6ec8       $R08F6F8                   10115ec8     IHVService.res
 0004:000a7550       $R08FD80                   10116550     IHVService.res
 0004:000a7be0       $R090410                   10116be0     IHVService.res
 0004:000a7f70       $R0907A0                   10116f70     IHVService.res
 0004:000a8000       $R090830                   10117000     IHVService.res
 0004:000a8150       $R090980                   10117150     IHVService.res
 0004:000a82a8       $R090AD8                   101172a8     IHVService.res
 0004:000a8438       $R090C68                   10117438     IHVService.res
 0004:000a8580       $R090DB0                   10117580     IHVService.res
 0004:000a8718       $R090F48                   10117718     IHVService.res
 0004:000a8848       $R091078                   10117848     IHVService.res
 0004:000a8938       $R091168                   10117938     IHVService.res
 0004:000a8a30       $R091260                   10117a30     IHVService.res
 0004:000a8b58       $R091388                   10117b58     IHVService.res
 0004:000a8cb8       $R0914E8                   10117cb8     IHVService.res
 0004:000a8df0       $R091620                   10117df0     IHVService.res
 0004:000a8fb8       $R0917E8                   10117fb8     IHVService.res
 0004:000a9118       $R091948                   10118118     IHVService.res
 0004:000a92c8       $R091AF8                   101182c8     IHVService.res
 0004:000a9450       $R091C80                   10118450     IHVService.res
 0004:000a94a8       $R091CD8                   101184a8     IHVService.res
 0004:000a9660       $R091E90                   10118660     IHVService.res
 0004:000a97d0       $R092000                   101187d0     IHVService.res
 0004:000a98b8       $R0920E8                   101188b8     IHVService.res
 0004:000a99c0       $R0921F0                   101189c0     IHVService.res
 0004:000a9b38       $R092368                   10118b38     IHVService.res
 0004:000a9cb8       $R0924E8                   10118cb8     IHVService.res
 0004:000a9dd0       $R092600                   10118dd0     IHVService.res
 0004:000a9f90       $R0927C0                   10118f90     IHVService.res
 0004:000aa2f0       $R092B20                   101192f0     IHVService.res
 0004:000aa428       $R092C58                   10119428     IHVService.res
 0004:000aa638       $R092E68                   10119638     IHVService.res
 0004:000aa818       $R093048                   10119818     IHVService.res
 0004:000aa980       $R0931B0                   10119980     IHVService.res
 0004:000aab50       $R093380                   10119b50     IHVService.res
 0004:000aac30       $R093460                   10119c30     IHVService.res
 0004:000aae08       $R093638                   10119e08     IHVService.res
 0004:000aaec8       $R0936F8                   10119ec8     IHVService.res
 0004:000ab0a8       $R0938D8                   1011a0a8     IHVService.res
 0004:000ab170       $R0939A0                   1011a170     IHVService.res
 0004:000ab238       $R093A68                   1011a238     IHVService.res
 0004:000ab428       $R093C58                   1011a428     IHVService.res
 0004:000ab5f0       $R093E20                   1011a5f0     IHVService.res
 0004:000ab760       $R093F90                   1011a760     IHVService.res
 0004:000ab888       $R0940B8                   1011a888     IHVService.res
 0004:000abad8       $R094308                   1011aad8     IHVService.res
 0004:000abd18       $R094548                   1011ad18     IHVService.res
 0004:000abef8       $R094728                   1011aef8     IHVService.res
 0004:000abfe8       $R094818                   1011afe8     IHVService.res
 0004:000ac2b0       $R094AE0                   1011b2b0     IHVService.res
 0004:000ac410       $R094C40                   1011b410     IHVService.res
 0004:000ac570       $R094DA0                   1011b570     IHVService.res
 0004:000ac670       $R094EA0                   1011b670     IHVService.res
 0004:000ac788       $R094FB8                   1011b788     IHVService.res
 0004:000aca20       $R095250                   1011ba20     IHVService.res
 0004:000acbf0       $R095420                   1011bbf0     IHVService.res
 0004:000acd08       $R095538                   1011bd08     IHVService.res
 0004:000aceb8       $R0956E8                   1011beb8     IHVService.res
 0004:000ad078       $R0958A8                   1011c078     IHVService.res
 0004:000ad2c0       $R095AF0                   1011c2c0     IHVService.res
 0004:000ad450       $R095C80                   1011c450     IHVService.res
 0004:000ad5f0       $R095E20                   1011c5f0     IHVService.res
 0004:000ad798       $R095FC8                   1011c798     IHVService.res
 0004:000ad950       $R096180                   1011c950     IHVService.res
 0004:000ada88       $R0962B8                   1011ca88     IHVService.res
 0004:000adb38       $R096368                   1011cb38     IHVService.res
 0004:000adc18       $R096448                   1011cc18     IHVService.res
 0004:000add50       $R096580                   1011cd50     IHVService.res
 0004:000ade68       $R096698                   1011ce68     IHVService.res
 0004:000adf30       $R096760                   1011cf30     IHVService.res
 0004:000ae060       $R096890                   1011d060     IHVService.res
 0004:000ae300       $R096B30                   1011d300     IHVService.res
 0004:000ae758       $R096F88                   1011d758     IHVService.res
 0004:000ae940       $R097170                   1011d940     IHVService.res
 0004:000aeca0       $R0974D0                   1011dca0     IHVService.res
 0004:000aee70       $R0976A0                   1011de70     IHVService.res
 0004:000af048       $R097878                   1011e048     IHVService.res
 0004:000af1a8       $R0979D8                   1011e1a8     IHVService.res
 0004:000af4d8       $R097D08                   1011e4d8     IHVService.res
 0004:000af800       $R098030                   1011e800     IHVService.res
 0004:000af920       $R098150                   1011e920     IHVService.res
 0004:000afae0       $R098310                   1011eae0     IHVService.res
 0004:000afc40       $R098470                   1011ec40     IHVService.res
 0004:000afe08       $R098638                   1011ee08     IHVService.res
 0004:000b0060       $R098890                   1011f060     IHVService.res
 0004:000b0200       $R098A30                   1011f200     IHVService.res
 0004:000b0488       $R098CB8                   1011f488     IHVService.res
 0004:000b0648       $R098E78                   1011f648     IHVService.res
 0004:000b0810       $R099040                   1011f810     IHVService.res
 0004:000b0a00       $R099230                   1011fa00     IHVService.res
 0004:000b0c18       $R099448                   1011fc18     IHVService.res
 0004:000b0e30       $R099660                   1011fe30     IHVService.res
 0004:000b0f80       $R0997B0                   1011ff80     IHVService.res
 0004:000b1008       $R099838                   10120008     IHVService.res
 0004:000b10a8       $R0998D8                   101200a8     IHVService.res
 0004:000b1140       $R099970                   10120140     IHVService.res
 0004:000b11d8       $R099A08                   101201d8     IHVService.res
 0004:000b1278       $R099AA8                   10120278     IHVService.res
 0004:000b1340       $R099B70                   10120340     IHVService.res
 0004:000b13e0       $R099C10                   101203e0     IHVService.res
 0004:000b1468       $R099C98                   10120468     IHVService.res
 0004:000b1508       $R099D38                   10120508     IHVService.res
 0004:000b15a8       $R099DD8                   101205a8     IHVService.res
 0004:000b1648       $R099E78                   10120648     IHVService.res
 0004:000b16e8       $R099F18                   101206e8     IHVService.res
 0004:000b17a0       $R099FD0                   101207a0     IHVService.res
 0004:000b1850       $R09A080                   10120850     IHVService.res
 0004:000b1900       $R09A130                   10120900     IHVService.res
 0004:000b19d0       $R09A200                   101209d0     IHVService.res
 0004:000b1a10       $R09A240                   10120a10     IHVService.res
 0004:000b1be8       $R09A418                   10120be8     IHVService.res
 0004:000b1d38       $R09A568                   10120d38     IHVService.res
 0004:000b1e28       $R09A658                   10120e28     IHVService.res
 0004:000b1f18       $R09A748                   10120f18     IHVService.res
 0004:000b2098       $R09A8C8                   10121098     IHVService.res
 0004:000b2210       $R09AA40                   10121210     IHVService.res
 0004:000b2330       $R09AB60                   10121330     IHVService.res
 0004:000b24e8       $R09AD18                   101214e8     IHVService.res
 0004:000b2810       $R09B040                   10121810     IHVService.res
 0004:000b2950       $R09B180                   10121950     IHVService.res
 0004:000b2b40       $R09B370                   10121b40     IHVService.res
 0004:000b2d18       $R09B548                   10121d18     IHVService.res
 0004:000b2e90       $R09B6C0                   10121e90     IHVService.res
 0004:000b3058       $R09B888                   10122058     IHVService.res
 0004:000b3140       $R09B970                   10122140     IHVService.res
 0004:000b3320       $R09BB50                   10122320     IHVService.res
 0004:000b33e0       $R09BC10                   101223e0     IHVService.res
 0004:000b35c0       $R09BDF0                   101225c0     IHVService.res
 0004:000b3688       $R09BEB8                   10122688     IHVService.res
 0004:000b3758       $R09BF88                   10122758     IHVService.res
 0004:000b3968       $R09C198                   10122968     IHVService.res
 0004:000b3b28       $R09C358                   10122b28     IHVService.res
 0004:000b3c98       $R09C4C8                   10122c98     IHVService.res
 0004:000b3dd0       $R09C600                   10122dd0     IHVService.res
 0004:000b4050       $R09C880                   10123050     IHVService.res
 0004:000b42f0       $R09CB20                   101232f0     IHVService.res
 0004:000b4500       $R09CD30                   10123500     IHVService.res
 0004:000b45f8       $R09CE28                   101235f8     IHVService.res
 0004:000b48d0       $R09D100                   101238d0     IHVService.res
 0004:000b4a18       $R09D248                   10123a18     IHVService.res
 0004:000b4b80       $R09D3B0                   10123b80     IHVService.res
 0004:000b4c90       $R09D4C0                   10123c90     IHVService.res
 0004:000b4da0       $R09D5D0                   10123da0     IHVService.res
 0004:000b5028       $R09D858                   10124028     IHVService.res
 0004:000b5218       $R09DA48                   10124218     IHVService.res
 0004:000b5338       $R09DB68                   10124338     IHVService.res
 0004:000b54f8       $R09DD28                   101244f8     IHVService.res
 0004:000b56b8       $R09DEE8                   101246b8     IHVService.res
 0004:000b58f8       $R09E128                   101248f8     IHVService.res
 0004:000b5a80       $R09E2B0                   10124a80     IHVService.res
 0004:000b5c10       $R09E440                   10124c10     IHVService.res
 0004:000b5dc0       $R09E5F0                   10124dc0     IHVService.res
 0004:000b5f88       $R09E7B8                   10124f88     IHVService.res
 0004:000b60d0       $R09E900                   101250d0     IHVService.res
 0004:000b6180       $R09E9B0                   10125180     IHVService.res
 0004:000b6268       $R09EA98                   10125268     IHVService.res
 0004:000b6398       $R09EBC8                   10125398     IHVService.res
 0004:000b64b8       $R09ECE8                   101254b8     IHVService.res
 0004:000b6588       $R09EDB8                   10125588     IHVService.res
 0004:000b66b8       $R09EEE8                   101256b8     IHVService.res
 0004:000b6948       $R09F178                   10125948     IHVService.res
 0004:000b6d80       $R09F5B0                   10125d80     IHVService.res
 0004:000b6f68       $R09F798                   10125f68     IHVService.res
 0004:000b7298       $R09FAC8                   10126298     IHVService.res
 0004:000b7458       $R09FC88                   10126458     IHVService.res
 0004:000b7620       $R09FE50                   10126620     IHVService.res
 0004:000b7780       $R09FFB0                   10126780     IHVService.res
 0004:000b7a18       $R0A0248                   10126a18     IHVService.res
 0004:000b7cc8       $R0A04F8                   10126cc8     IHVService.res
 0004:000b7e00       $R0A0630                   10126e00     IHVService.res
 0004:000b7fc0       $R0A07F0                   10126fc0     IHVService.res
 0004:000b8100       $R0A0930                   10127100     IHVService.res
 0004:000b8300       $R0A0B30                   10127300     IHVService.res
 0004:000b8568       $R0A0D98                   10127568     IHVService.res
 0004:000b8718       $R0A0F48                   10127718     IHVService.res
 0004:000b8970       $R0A11A0                   10127970     IHVService.res
 0004:000b8b00       $R0A1330                   10127b00     IHVService.res
 0004:000b8ca0       $R0A14D0                   10127ca0     IHVService.res
 0004:000b8e90       $R0A16C0                   10127e90     IHVService.res
 0004:000b9068       $R0A1898                   10128068     IHVService.res
 0004:000b9268       $R0A1A98                   10128268     IHVService.res
 0004:000b93a0       $R0A1BD0                   101283a0     IHVService.res
 0004:000b9408       $R0A1C38                   10128408     IHVService.res
 0004:000b94a8       $R0A1CD8                   101284a8     IHVService.res
 0004:000b9540       $R0A1D70                   10128540     IHVService.res
 0004:000b95d0       $R0A1E00                   101285d0     IHVService.res
 0004:000b9668       $R0A1E98                   10128668     IHVService.res
 0004:000b9708       $R0A1F38                   10128708     IHVService.res
 0004:000b97a0       $R0A1FD0                   101287a0     IHVService.res
 0004:000b9818       $R0A2048                   10128818     IHVService.res
 0004:000b98b0       $R0A20E0                   101288b0     IHVService.res
 0004:000b9950       $R0A2180                   10128950     IHVService.res
 0004:000b99e8       $R0A2218                   101289e8     IHVService.res
 0004:000b9a80       $R0A22B0                   10128a80     IHVService.res
 0004:000b9b38       $R0A2368                   10128b38     IHVService.res
 0004:000b9bd0       $R0A2400                   10128bd0     IHVService.res
 0004:000b9c98       $R0A24C8                   10128c98     IHVService.res
 0004:000b9d60       $R0A2590                   10128d60     IHVService.res
 0004:000b9da0       $R0A25D0                   10128da0     IHVService.res
 0004:000ba2d0       $R0A2B00                   101292d0     IHVService.res
 0004:000ba618       $R0A2E48                   10129618     IHVService.res
 0004:000ba8a0       $R0A30D0                   101298a0     IHVService.res
 0004:000bab30       $R0A3360                   10129b30     IHVService.res
 0004:000bafd8       $R0A3808                   10129fd8     IHVService.res
 0004:000bb468       $R0A3C98                   1012a468     IHVService.res
 0004:000bb7e8       $R0A4018                   1012a7e8     IHVService.res
 0004:000bbd28       $R0A4558                   1012ad28     IHVService.res
 0004:000bc5e0       $R0A4E10                   1012b5e0     IHVService.res
 0004:000bc9b0       $R0A51E0                   1012b9b0     IHVService.res
 0004:000bcf98       $R0A57C8                   1012bf98     IHVService.res
 0004:000bd478       $R0A5CA8                   1012c478     IHVService.res
 0004:000bd900       $R0A6130                   1012c900     IHVService.res
 0004:000bde48       $R0A6678                   1012ce48     IHVService.res
 0004:000be0d0       $R0A6900                   1012d0d0     IHVService.res
 0004:000be6d8       $R0A6F08                   1012d6d8     IHVService.res
 0004:000be898       $R0A70C8                   1012d898     IHVService.res
 0004:000beee8       $R0A7718                   1012dee8     IHVService.res
 0004:000bf128       $R0A7958                   1012e128     IHVService.res
 0004:000bf2f0       $R0A7B20                   1012e2f0     IHVService.res
 0004:000bf808       $R0A8038                   1012e808     IHVService.res
 0004:000bfd48       $R0A8578                   1012ed48     IHVService.res
 0004:000c0210       $R0A8A40                   1012f210     IHVService.res
 0004:000c0530       $R0A8D60                   1012f530     IHVService.res
 0004:000c0d70       $R0A95A0                   1012fd70     IHVService.res
 0004:000c1410       $R0A9C40                   10130410     IHVService.res
 0004:000c19e8       $R0AA218                   101309e8     IHVService.res
 0004:000c1ce8       $R0AA518                   10130ce8     IHVService.res
 0004:000c24d0       $R0AAD00                   101314d0     IHVService.res
 0004:000c27f8       $R0AB028                   101317f8     IHVService.res
 0004:000c2b10       $R0AB340                   10131b10     IHVService.res
 0004:000c2df0       $R0AB620                   10131df0     IHVService.res
 0004:000c3150       $R0AB980                   10132150     IHVService.res
 0004:000c39c0       $R0AC1F0                   101329c0     IHVService.res
 0004:000c3ea0       $R0AC6D0                   10132ea0     IHVService.res
 0004:000c4168       $R0AC998                   10133168     IHVService.res
 0004:000c46a8       $R0ACED8                   101336a8     IHVService.res
 0004:000c4b88       $R0AD3B8                   10133b88     IHVService.res
 0004:000c51f0       $R0ADA20                   101341f0     IHVService.res
 0004:000c56c8       $R0ADEF8                   101346c8     IHVService.res
 0004:000c5b88       $R0AE3B8                   10134b88     IHVService.res
 0004:000c5f88       $R0AE7B8                   10134f88     IHVService.res
 0004:000c63d8       $R0AEC08                   101353d8     IHVService.res
 0004:000c6760       $R0AEF90                   10135760     IHVService.res
 0004:000c68f8       $R0AF128                   101358f8     IHVService.res
 0004:000c6b40       $R0AF370                   10135b40     IHVService.res
 0004:000c6f00       $R0AF730                   10135f00     IHVService.res
 0004:000c7220       $R0AFA50                   10136220     IHVService.res
 0004:000c73c8       $R0AFBF8                   101363c8     IHVService.res
 0004:000c7760       $R0AFF90                   10136760     IHVService.res
 0004:000c7f30       $R0B0760                   10136f30     IHVService.res
 0004:000c8a50       $R0B1280                   10137a50     IHVService.res
 0004:000c8f70       $R0B17A0                   10137f70     IHVService.res
 0004:000c9748       $R0B1F78                   10138748     IHVService.res
 0004:000c9c78       $R0B24A8                   10138c78     IHVService.res
 0004:000ca1a0       $R0B29D0                   101391a0     IHVService.res
 0004:000ca618       $R0B2E48                   10139618     IHVService.res
 0004:000cae48       $R0B3678                   10139e48     IHVService.res
 0004:000cb708       $R0B3F38                   1013a708     IHVService.res
 0004:000cba50       $R0B4280                   1013aa50     IHVService.res
 0004:000cbf78       $R0B47A8                   1013af78     IHVService.res
 0004:000cc3d0       $R0B4C00                   1013b3d0     IHVService.res
 0004:000cca40       $R0B5270                   1013ba40     IHVService.res
 0004:000cd110       $R0B5940                   1013c110     IHVService.res
 0004:000cd5c0       $R0B5DF0                   1013c5c0     IHVService.res
 0004:000cdca8       $R0B64D8                   1013cca8     IHVService.res
 0004:000ce170       $R0B69A0                   1013d170     IHVService.res
 0004:000ce5d0       $R0B6E00                   1013d5d0     IHVService.res
 0004:000ceb98       $R0B73C8                   1013db98     IHVService.res
 0004:000cf118       $R0B7948                   1013e118     IHVService.res
 0004:000cf6f8       $R0B7F28                   1013e6f8     IHVService.res
 0004:000cfac0       $R0B82F0                   1013eac0     IHVService.res
 0004:000cfb58       $R0B8388                   1013eb58     IHVService.res
 0004:000cfc98       $R0B84C8                   1013ec98     IHVService.res
 0004:000cfdf0       $R0B8620                   1013edf0     IHVService.res
 0004:000cff68       $R0B8798                   1013ef68     IHVService.res
 0004:000d00a8       $R0B88D8                   1013f0a8     IHVService.res
 0004:000d0258       $R0B8A88                   1013f258     IHVService.res
 0004:000d03a0       $R0B8BD0                   1013f3a0     IHVService.res
 0004:000d0498       $R0B8CC8                   1013f498     IHVService.res
 0004:000d05a0       $R0B8DD0                   1013f5a0     IHVService.res
 0004:000d06d8       $R0B8F08                   1013f6d8     IHVService.res
 0004:000d0830       $R0B9060                   1013f830     IHVService.res
 0004:000d0968       $R0B9198                   1013f968     IHVService.res
 0004:000d0b28       $R0B9358                   1013fb28     IHVService.res
 0004:000d0ca8       $R0B94D8                   1013fca8     IHVService.res
 0004:000d0e50       $R0B9680                   1013fe50     IHVService.res
 0004:000d1000       $R0B9830                   10140000     IHVService.res
 0004:000d1058       $R0B9888                   10140058     IHVService.res
 0004:000d15a0       $R0B9DD0                   101405a0     IHVService.res
 0004:000d18c8       $R0BA0F8                   101408c8     IHVService.res
 0004:000d1b58       $R0BA388                   10140b58     IHVService.res
 0004:000d1e00       $R0BA630                   10140e00     IHVService.res
 0004:000d22b0       $R0BAAE0                   101412b0     IHVService.res
 0004:000d2700       $R0BAF30                   10141700     IHVService.res
 0004:000d2a38       $R0BB268                   10141a38     IHVService.res
 0004:000d2fa0       $R0BB7D0                   10141fa0     IHVService.res
 0004:000d3848       $R0BC078                   10142848     IHVService.res
 0004:000d3c30       $R0BC460                   10142c30     IHVService.res
 0004:000d4210       $R0BCA40                   10143210     IHVService.res
 0004:000d46e0       $R0BCF10                   101436e0     IHVService.res
 0004:000d4ad8       $R0BD308                   10143ad8     IHVService.res
 0004:000d5088       $R0BD8B8                   10144088     IHVService.res
 0004:000d52c0       $R0BDAF0                   101442c0     IHVService.res
 0004:000d58b0       $R0BE0E0                   101448b0     IHVService.res
 0004:000d5a38       $R0BE268                   10144a38     IHVService.res
 0004:000d6008       $R0BE838                   10145008     IHVService.res
 0004:000d6228       $R0BEA58                   10145228     IHVService.res
 0004:000d63e8       $R0BEC18                   101453e8     IHVService.res
 0004:000d68a8       $R0BF0D8                   101458a8     IHVService.res
 0004:000d6d40       $R0BF570                   10145d40     IHVService.res
 0004:000d7288       $R0BFAB8                   10146288     IHVService.res
 0004:000d75a0       $R0BFDD0                   101465a0     IHVService.res
 0004:000d7d68       $R0C0598                   10146d68     IHVService.res
 0004:000d83c8       $R0C0BF8                   101473c8     IHVService.res
 0004:000d89e0       $R0C1210                   101479e0     IHVService.res
 0004:000d8cd8       $R0C1508                   10147cd8     IHVService.res
 0004:000d94b0       $R0C1CE0                   101484b0     IHVService.res
 0004:000d97d0       $R0C2000                   101487d0     IHVService.res
 0004:000d9b20       $R0C2350                   10148b20     IHVService.res
 0004:000d9e08       $R0C2638                   10148e08     IHVService.res
 0004:000da140       $R0C2970                   10149140     IHVService.res
 0004:000da9b0       $R0C31E0                   101499b0     IHVService.res
 0004:000daea0       $R0C36D0                   10149ea0     IHVService.res
 0004:000db130       $R0C3960                   1014a130     IHVService.res
 0004:000db648       $R0C3E78                   1014a648     IHVService.res
 0004:000dbb40       $R0C4370                   1014ab40     IHVService.res
 0004:000dc138       $R0C4968                   1014b138     IHVService.res
 0004:000dc568       $R0C4D98                   1014b568     IHVService.res
 0004:000dc988       $R0C51B8                   1014b988     IHVService.res
 0004:000dcd48       $R0C5578                   1014bd48     IHVService.res
 0004:000dd1a0       $R0C59D0                   1014c1a0     IHVService.res
 0004:000dd530       $R0C5D60                   1014c530     IHVService.res
 0004:000dd6d0       $R0C5F00                   1014c6d0     IHVService.res
 0004:000dd930       $R0C6160                   1014c930     IHVService.res
 0004:000ddce0       $R0C6510                   1014cce0     IHVService.res
 0004:000ddff8       $R0C6828                   1014cff8     IHVService.res
 0004:000de198       $R0C69C8                   1014d198     IHVService.res
 0004:000de518       $R0C6D48                   1014d518     IHVService.res
 0004:000ded48       $R0C7578                   1014dd48     IHVService.res
 0004:000df818       $R0C8048                   1014e818     IHVService.res
 0004:000dfcd8       $R0C8508                   1014ecd8     IHVService.res
 0004:000e04c8       $R0C8CF8                   1014f4c8     IHVService.res
 0004:000e09d8       $R0C9208                   1014f9d8     IHVService.res
 0004:000e0ec0       $R0C96F0                   1014fec0     IHVService.res
 0004:000e12b8       $R0C9AE8                   101502b8     IHVService.res
 0004:000e19e0       $R0CA210                   101509e0     IHVService.res
 0004:000e2280       $R0CAAB0                   10151280     IHVService.res
 0004:000e25b8       $R0CADE8                   101515b8     IHVService.res
 0004:000e2aa0       $R0CB2D0                   10151aa0     IHVService.res
 0004:000e2eb8       $R0CB6E8                   10151eb8     IHVService.res
 0004:000e3458       $R0CBC88                   10152458     IHVService.res
 0004:000e3a08       $R0CC238                   10152a08     IHVService.res
 0004:000e3eb8       $R0CC6E8                   10152eb8     IHVService.res
 0004:000e4550       $R0CCD80                   10153550     IHVService.res
 0004:000e49f0       $R0CD220                   101539f0     IHVService.res
 0004:000e4e48       $R0CD678                   10153e48     IHVService.res
 0004:000e53c0       $R0CDBF0                   101543c0     IHVService.res
 0004:000e5950       $R0CE180                   10154950     IHVService.res
 0004:000e5f18       $R0CE748                   10154f18     IHVService.res
 0004:000e62d0       $R0CEB00                   101552d0     IHVService.res
 0004:000e6378       $R0CEBA8                   10155378     IHVService.res
 0004:000e64b8       $R0CECE8                   101554b8     IHVService.res
 0004:000e6600       $R0CEE30                   10155600     IHVService.res
 0004:000e6768       $R0CEF98                   10155768     IHVService.res
 0004:000e6928       $R0CF158                   10155928     IHVService.res
 0004:000e6ad0       $R0CF300                   10155ad0     IHVService.res
 0004:000e6c58       $R0CF488                   10155c58     IHVService.res
 0004:000e6d60       $R0CF590                   10155d60     IHVService.res
 0004:000e6ee8       $R0CF718                   10155ee8     IHVService.res
 0004:000e7028       $R0CF858                   10156028     IHVService.res
 0004:000e7160       $R0CF990                   10156160     IHVService.res
 0004:000e72a8       $R0CFAD8                   101562a8     IHVService.res
 0004:000e7488       $R0CFCB8                   10156488     IHVService.res
 0004:000e7610       $R0CFE40                   10156610     IHVService.res
 0004:000e77b8       $R0CFFE8                   101567b8     IHVService.res
 0004:000e7940       $R0D0170                   10156940     IHVService.res
 0004:000e7998       $R0D01C8                   10156998     IHVService.res
 0004:000e7f18       $R0D0748                   10156f18     IHVService.res
 0004:000e8258       $R0D0A88                   10157258     IHVService.res
 0004:000e8508       $R0D0D38                   10157508     IHVService.res
 0004:000e87e8       $R0D1018                   101577e8     IHVService.res
 0004:000e8c70       $R0D14A0                   10157c70     IHVService.res
 0004:000e9118       $R0D1948                   10158118     IHVService.res
 0004:000e9498       $R0D1CC8                   10158498     IHVService.res
 0004:000e99e8       $R0D2218                   101589e8     IHVService.res
 0004:000ea3b8       $R0D2BE8                   101593b8     IHVService.res
 0004:000ea788       $R0D2FB8                   10159788     IHVService.res
 0004:000ead58       $R0D3588                   10159d58     IHVService.res
 0004:000eb238       $R0D3A68                   1015a238     IHVService.res
 0004:000eb6b8       $R0D3EE8                   1015a6b8     IHVService.res
 0004:000ebc08       $R0D4438                   1015ac08     IHVService.res
 0004:000ebe50       $R0D4680                   1015ae50     IHVService.res
 0004:000ec488       $R0D4CB8                   1015b488     IHVService.res
 0004:000ec5f0       $R0D4E20                   1015b5f0     IHVService.res
 0004:000ecb70       $R0D53A0                   1015bb70     IHVService.res
 0004:000ecd90       $R0D55C0                   1015bd90     IHVService.res
 0004:000ecf40       $R0D5770                   1015bf40     IHVService.res
 0004:000ed3c0       $R0D5BF0                   1015c3c0     IHVService.res
 0004:000ed8c0       $R0D60F0                   1015c8c0     IHVService.res
 0004:000eddd0       $R0D6600                   1015cdd0     IHVService.res
 0004:000ee0f0       $R0D6920                   1015d0f0     IHVService.res
 0004:000ee9b8       $R0D71E8                   1015d9b8     IHVService.res
 0004:000ef0d0       $R0D7900                   1015e0d0     IHVService.res
 0004:000ef778       $R0D7FA8                   1015e778     IHVService.res
 0004:000efb08       $R0D8338                   1015eb08     IHVService.res
 0004:000f0378       $R0D8BA8                   1015f378     IHVService.res
 0004:000f0658       $R0D8E88                   1015f658     IHVService.res
 0004:000f0998       $R0D91C8                   1015f998     IHVService.res
 0004:000f0c28       $R0D9458                   1015fc28     IHVService.res
 0004:000f0f38       $R0D9768                   1015ff38     IHVService.res
 0004:000f17e0       $R0DA010                   101607e0     IHVService.res
 0004:000f1ca8       $R0DA4D8                   10160ca8     IHVService.res
 0004:000f1fb0       $R0DA7E0                   10160fb0     IHVService.res
 0004:000f24e8       $R0DAD18                   101614e8     IHVService.res
 0004:000f29b0       $R0DB1E0                   101619b0     IHVService.res
 0004:000f3038       $R0DB868                   10162038     IHVService.res
 0004:000f34a0       $R0DBCD0                   101624a0     IHVService.res
 0004:000f3908       $R0DC138                   10162908     IHVService.res
 0004:000f3cf0       $R0DC520                   10162cf0     IHVService.res
 0004:000f40c8       $R0DC8F8                   101630c8     IHVService.res
 0004:000f44e8       $R0DCD18                   101634e8     IHVService.res
 0004:000f4690       $R0DCEC0                   10163690     IHVService.res
 0004:000f4910       $R0DD140                   10163910     IHVService.res
 0004:000f4c58       $R0DD488                   10163c58     IHVService.res
 0004:000f4f78       $R0DD7A8                   10163f78     IHVService.res
 0004:000f5120       $R0DD950                   10164120     IHVService.res
 0004:000f54b0       $R0DDCE0                   101644b0     IHVService.res
 0004:000f5dc0       $R0DE5F0                   10164dc0     IHVService.res
 0004:000f6a28       $R0DF258                   10165a28     IHVService.res
 0004:000f6f20       $R0DF750                   10165f20     IHVService.res
 0004:000f77a8       $R0DFFD8                   101667a8     IHVService.res
 0004:000f7d08       $R0E0538                   10166d08     IHVService.res
 0004:000f8218       $R0E0A48                   10167218     IHVService.res
 0004:000f86b8       $R0E0EE8                   101676b8     IHVService.res
 0004:000f8f50       $R0E1780                   10167f50     IHVService.res
 0004:000f97e0       $R0E2010                   101687e0     IHVService.res
 0004:000f9b00       $R0E2330                   10168b00     IHVService.res
 0004:000f9fe0       $R0E2810                   10168fe0     IHVService.res
 0004:000fa458       $R0E2C88                   10169458     IHVService.res
 0004:000faa58       $R0E3288                   10169a58     IHVService.res
 0004:000fb090       $R0E38C0                   1016a090     IHVService.res
 0004:000fb5b8       $R0E3DE8                   1016a5b8     IHVService.res
 0004:000fbcc8       $R0E44F8                   1016acc8     IHVService.res
 0004:000fc150       $R0E4980                   1016b150     IHVService.res
 0004:000fc628       $R0E4E58                   1016b628     IHVService.res
 0004:000fcc10       $R0E5440                   1016bc10     IHVService.res
 0004:000fd178       $R0E59A8                   1016c178     IHVService.res
 0004:000fd730       $R0E5F60                   1016c730     IHVService.res
 0004:000fdaa0       $R0E62D0                   1016caa0     IHVService.res
 0004:000fdb30       $R0E6360                   1016cb30     IHVService.res
 0004:000fdc78       $R0E64A8                   1016cc78     IHVService.res
 0004:000fddf8       $R0E6628                   1016cdf8     IHVService.res
 0004:000fdf60       $R0E6790                   1016cf60     IHVService.res
 0004:000fe0d0       $R0E6900                   1016d0d0     IHVService.res
 0004:000fe288       $R0E6AB8                   1016d288     IHVService.res
 0004:000fe3c8       $R0E6BF8                   1016d3c8     IHVService.res
 0004:000fe4c0       $R0E6CF0                   1016d4c0     IHVService.res
 0004:000fe620       $R0E6E50                   1016d620     IHVService.res
 0004:000fe750       $R0E6F80                   1016d750     IHVService.res
 0004:000fe8a0       $R0E70D0                   1016d8a0     IHVService.res
 0004:000fe9f0       $R0E7220                   1016d9f0     IHVService.res
 0004:000feb98       $R0E73C8                   1016db98     IHVService.res
 0004:000fed20       $R0E7550                   1016dd20     IHVService.res
 0004:000feec8       $R0E76F8                   1016dec8     IHVService.res
 0004:000ff070       $R0E78A0                   1016e070     IHVService.res
 0004:000ff0c8       $R0E78F8                   1016e0c8     IHVService.res
 0004:000ff6b0       $R0E7EE0                   1016e6b0     IHVService.res
 0004:000ffa28       $R0E8258                   1016ea28     IHVService.res
 0004:000ffd30       $R0E8560                   1016ed30     IHVService.res
 0004:000ffff8       $R0E8828                   1016eff8     IHVService.res
 0004:001004e0       $R0E8D10                   1016f4e0     IHVService.res
 0004:00100a00       $R0E9230                   1016fa00     IHVService.res
 0004:00100dd8       $R0E9608                   1016fdd8     IHVService.res
 0004:001013a0       $R0E9BD0                   101703a0     IHVService.res
 0004:00101d88       $R0EA5B8                   10170d88     IHVService.res
 0004:001021e0       $R0EAA10                   101711e0     IHVService.res
 0004:00102898       $R0EB0C8                   10171898     IHVService.res
 0004:00102de8       $R0EB618                   10171de8     IHVService.res
 0004:00103290       $R0EBAC0                   10172290     IHVService.res
 0004:001038b8       $R0EC0E8                   101728b8     IHVService.res
 0004:00103b30       $R0EC360                   10172b30     IHVService.res
 0004:00104180       $R0EC9B0                   10173180     IHVService.res
 0004:00104330       $R0ECB60                   10173330     IHVService.res
 0004:00104a48       $R0ED278                   10173a48     IHVService.res
 0004:00104ca0       $R0ED4D0                   10173ca0     IHVService.res
 0004:00104e70       $R0ED6A0                   10173e70     IHVService.res
 0004:00105308       $R0EDB38                   10174308     IHVService.res
 0004:00105880       $R0EE0B0                   10174880     IHVService.res
 0004:00105e28       $R0EE658                   10174e28     IHVService.res
 0004:00106150       $R0EE980                   10175150     IHVService.res
 0004:00106960       $R0EF190                   10175960     IHVService.res
 0004:001070c8       $R0EF8F8                   101760c8     IHVService.res
 0004:00107718       $R0EFF48                   10176718     IHVService.res
 0004:00107a88       $R0F02B8                   10176a88     IHVService.res
 0004:00108330       $R0F0B60                   10177330     IHVService.res
 0004:00108648       $R0F0E78                   10177648     IHVService.res
 0004:00108948       $R0F1178                   10177948     IHVService.res
 0004:00108c48       $R0F1478                   10177c48     IHVService.res
 0004:00108f28       $R0F1758                   10177f28     IHVService.res
 0004:00109858       $R0F2088                   10178858     IHVService.res
 0004:00109dc8       $R0F25F8                   10178dc8     IHVService.res
 0004:0010a0d8       $R0F2908                   101790d8     IHVService.res
 0004:0010a688       $R0F2EB8                   10179688     IHVService.res
 0004:0010ab98       $R0F33C8                   10179b98     IHVService.res
 0004:0010b290       $R0F3AC0                   1017a290     IHVService.res
 0004:0010b750       $R0F3F80                   1017a750     IHVService.res
 0004:0010bbb8       $R0F43E8                   1017abb8     IHVService.res
 0004:0010c070       $R0F48A0                   1017b070     IHVService.res
 0004:0010c510       $R0F4D40                   1017b510     IHVService.res
 0004:0010c900       $R0F5130                   1017b900     IHVService.res
 0004:0010cb10       $R0F5340                   1017bb10     IHVService.res
 0004:0010cd88       $R0F55B8                   1017bd88     IHVService.res
 0004:0010d1d8       $R0F5A08                   1017c1d8     IHVService.res
 0004:0010d4f8       $R0F5D28                   1017c4f8     IHVService.res
 0004:0010d6e0       $R0F5F10                   1017c6e0     IHVService.res
 0004:0010da80       $R0F62B0                   1017ca80     IHVService.res
 0004:0010e478       $R0F6CA8                   1017d478     IHVService.res
 0004:0010f138       $R0F7968                   1017e138     IHVService.res
 0004:0010f6e0       $R0F7F10                   1017e6e0     IHVService.res
 0004:001100f0       $R0F8920                   1017f0f0     IHVService.res
 0004:001106d0       $R0F8F00                   1017f6d0     IHVService.res
 0004:00110cc8       $R0F94F8                   1017fcc8     IHVService.res
 0004:001111e8       $R0F9A18                   101801e8     IHVService.res
 0004:00111ad8       $R0FA308                   10180ad8     IHVService.res
 0004:00112478       $R0FACA8                   10181478     IHVService.res
 0004:00112870       $R0FB0A0                   10181870     IHVService.res
 0004:00112d98       $R0FB5C8                   10181d98     IHVService.res
 0004:00113238       $R0FBA68                   10182238     IHVService.res
 0004:00113928       $R0FC158                   10182928     IHVService.res
 0004:00113fb8       $R0FC7E8                   10182fb8     IHVService.res
 0004:00114550       $R0FCD80                   10183550     IHVService.res
 0004:00114d40       $R0FD570                   10183d40     IHVService.res
 0004:00115290       $R0FDAC0                   10184290     IHVService.res
 0004:00115760       $R0FDF90                   10184760     IHVService.res
 0004:00115d60       $R0FE590                   10184d60     IHVService.res
 0004:001163d8       $R0FEC08                   101853d8     IHVService.res
 0004:00116a40       $R0FF270                   10185a40     IHVService.res
 0004:00116e38       $R0FF668                   10185e38     IHVService.res
 0004:00116ee8       $R0FF718                   10185ee8     IHVService.res
 0004:00117038       $R0FF868                   10186038     IHVService.res
 0004:00117198       $R0FF9C8                   10186198     IHVService.res
 0004:00117310       $R0FFB40                   10186310     IHVService.res
 0004:00117450       $R0FFC80                   10186450     IHVService.res
 0004:001175f8       $R0FFE28                   101865f8     IHVService.res
 0004:00117748       $R0FFF78                   10186748     IHVService.res
 0004:00117840       $R100070                   10186840     IHVService.res
 0004:00117960       $R100190                   10186960     IHVService.res
 0004:00117a90       $R1002C0                   10186a90     IHVService.res
 0004:00117be0       $R100410                   10186be0     IHVService.res
 0004:00117d28       $R100558                   10186d28     IHVService.res
 0004:00117ec8       $R1006F8                   10186ec8     IHVService.res
 0004:00118078       $R1008A8                   10187078     IHVService.res
 0004:00118250       $R100A80                   10187250     IHVService.res
 0004:001183d0       $R100C00                   101873d0     IHVService.res
 0004:00118420       $R100C50                   10187420     IHVService.res
 0004:00118948       $R101178                   10187948     IHVService.res
 0004:00118c78       $R1014A8                   10187c78     IHVService.res
 0004:00118ee0       $R101710                   10187ee0     IHVService.res
 0004:00119198       $R1019C8                   10188198     IHVService.res
 0004:001195c0       $R101DF0                   101885c0     IHVService.res
 0004:00119a70       $R1022A0                   10188a70     IHVService.res
 0004:00119dd8       $R102608                   10188dd8     IHVService.res
 0004:0011a300       $R102B30                   10189300     IHVService.res
 0004:0011ac28       $R103458                   10189c28     IHVService.res
 0004:0011aff8       $R103828                   10189ff8     IHVService.res
 0004:0011b5b8       $R103DE8                   1018a5b8     IHVService.res
 0004:0011ba58       $R104288                   1018aa58     IHVService.res
 0004:0011be60       $R104690                   1018ae60     IHVService.res
 0004:0011c380       $R104BB0                   1018b380     IHVService.res
 0004:0011c5a0       $R104DD0                   1018b5a0     IHVService.res
 0004:0011cb28       $R105358                   1018bb28     IHVService.res
 0004:0011cc78       $R1054A8                   1018bc78     IHVService.res
 0004:0011d200       $R105A30                   1018c200     IHVService.res
 0004:0011d420       $R105C50                   1018c420     IHVService.res
 0004:0011d5c8       $R105DF8                   1018c5c8     IHVService.res
 0004:0011d9f8       $R106228                   1018c9f8     IHVService.res
 0004:0011def0       $R106720                   1018cef0     IHVService.res
 0004:0011e3e0       $R106C10                   1018d3e0     IHVService.res
 0004:0011e6e0       $R106F10                   1018d6e0     IHVService.res
 0004:0011ee58       $R107688                   1018de58     IHVService.res
 0004:0011f540       $R107D70                   1018e540     IHVService.res
 0004:0011fad0       $R108300                   1018ead0     IHVService.res
 0004:0011fda8       $R1085D8                   1018eda8     IHVService.res
 0004:00120550       $R108D80                   1018f550     IHVService.res
 0004:00120840       $R109070                   1018f840     IHVService.res
 0004:00120b80       $R1093B0                   1018fb80     IHVService.res
 0004:00120e20       $R109650                   1018fe20     IHVService.res
 0004:00121108       $R109938                   10190108     IHVService.res
 0004:001218f8       $R10A128                   101908f8     IHVService.res
 0004:00121d50       $R10A580                   10190d50     IHVService.res
 0004:00122010       $R10A840                   10191010     IHVService.res
 0004:001224b0       $R10ACE0                   101914b0     IHVService.res
 0004:00122900       $R10B130                   10191900     IHVService.res
 0004:00122f18       $R10B748                   10191f18     IHVService.res
 0004:00123320       $R10BB50                   10192320     IHVService.res
 0004:00123748       $R10BF78                   10192748     IHVService.res
 0004:00123ae8       $R10C318                   10192ae8     IHVService.res
 0004:00123eb0       $R10C6E0                   10192eb0     IHVService.res
 0004:00124250       $R10CA80                   10193250     IHVService.res
 0004:001243d8       $R10CC08                   101933d8     IHVService.res
 0004:001245e0       $R10CE10                   101935e0     IHVService.res
 0004:00124938       $R10D168                   10193938     IHVService.res
 0004:00124c50       $R10D480                   10193c50     IHVService.res
 0004:00124e00       $R10D630                   10193e00     IHVService.res
 0004:00125160       $R10D990                   10194160     IHVService.res
 0004:00125990       $R10E1C0                   10194990     IHVService.res
 0004:00126500       $R10ED30                   10195500     IHVService.res
 0004:00126a18       $R10F248                   10195a18     IHVService.res
 0004:001272a0       $R10FAD0                   101962a0     IHVService.res
 0004:00127808       $R110038                   10196808     IHVService.res
 0004:00127d48       $R110578                   10196d48     IHVService.res
 0004:00128160       $R110990                   10197160     IHVService.res
 0004:00128970       $R1111A0                   10197970     IHVService.res
 0004:00129200       $R111A30                   10198200     IHVService.res
 0004:00129570       $R111DA0                   10198570     IHVService.res
 0004:001299f8       $R112228                   101989f8     IHVService.res
 0004:00129dc8       $R1125F8                   10198dc8     IHVService.res
 0004:0012a378       $R112BA8                   10199378     IHVService.res
 0004:0012a9a8       $R1131D8                   101999a8     IHVService.res
 0004:0012ae88       $R1136B8                   10199e88     IHVService.res
 0004:0012b560       $R113D90                   1019a560     IHVService.res
 0004:0012ba40       $R114270                   1019aa40     IHVService.res
 0004:0012bec8       $R1146F8                   1019aec8     IHVService.res
 0004:0012c468       $R114C98                   1019b468     IHVService.res
 0004:0012ca40       $R115270                   1019ba40     IHVService.res
 0004:0012d038       $R115868                   1019c038     IHVService.res
 0004:0012d3f8       $R115C28                   1019c3f8     IHVService.res
 0004:0012d490       $R115CC0                   1019c490     IHVService.res
 0004:0012d5d8       $R115E08                   1019c5d8     IHVService.res
 0004:0012d730       $R115F60                   1019c730     IHVService.res
 0004:0012d8a0       $R1160D0                   1019c8a0     IHVService.res
 0004:0012d9e8       $R116218                   1019c9e8     IHVService.res
 0004:0012dba0       $R1163D0                   1019cba0     IHVService.res
 0004:0012dcf8       $R116528                   1019ccf8     IHVService.res
 0004:0012dde8       $R116618                   1019cde8     IHVService.res
 0004:0012df40       $R116770                   1019cf40     IHVService.res
 0004:0012e070       $R1168A0                   1019d070     IHVService.res
 0004:0012e1d8       $R116A08                   1019d1d8     IHVService.res
 0004:0012e308       $R116B38                   1019d308     IHVService.res
 0004:0012e4b8       $R116CE8                   1019d4b8     IHVService.res
 0004:0012e648       $R116E78                   1019d648     IHVService.res
 0004:0012e7e0       $R117010                   1019d7e0     IHVService.res
 0004:0012e968       $R117198                   1019d968     IHVService.res
 0004:0012e9b8       $R1171E8                   1019d9b8     IHVService.res
 0004:0012eea8       $R1176D8                   1019dea8     IHVService.res
 0004:0012f228       $R117A58                   1019e228     IHVService.res
 0004:0012f4b8       $R117CE8                   1019e4b8     IHVService.res
 0004:0012f750       $R117F80                   1019e750     IHVService.res
 0004:0012fba8       $R1183D8                   1019eba8     IHVService.res
 0004:00130028       $R118858                   1019f028     IHVService.res
 0004:00130348       $R118B78                   1019f348     IHVService.res
 0004:00130858       $R119088                   1019f858     IHVService.res
 0004:001311b8       $R1199E8                   101a01b8     IHVService.res
 0004:00131580       $R119DB0                   101a0580     IHVService.res
 0004:00131a78       $R11A2A8                   101a0a78     IHVService.res
 0004:00131ed8       $R11A708                   101a0ed8     IHVService.res
 0004:00132320       $R11AB50                   101a1320     IHVService.res
 0004:00132878       $R11B0A8                   101a1878     IHVService.res
 0004:00132ab0       $R11B2E0                   101a1ab0     IHVService.res
 0004:001330e8       $R11B918                   101a20e8     IHVService.res
 0004:00133248       $R11BA78                   101a2248     IHVService.res
 0004:001337a8       $R11BFD8                   101a27a8     IHVService.res
 0004:001339c8       $R11C1F8                   101a29c8     IHVService.res
 0004:00133b40       $R11C370                   101a2b40     IHVService.res
 0004:00133f98       $R11C7C8                   101a2f98     IHVService.res
 0004:00134408       $R11CC38                   101a3408     IHVService.res
 0004:00134828       $R11D058                   101a3828     IHVService.res
 0004:00134b20       $R11D350                   101a3b20     IHVService.res
 0004:001352e8       $R11DB18                   101a42e8     IHVService.res
 0004:00135928       $R11E158                   101a4928     IHVService.res
 0004:00135e88       $R11E6B8                   101a4e88     IHVService.res
 0004:00136158       $R11E988                   101a5158     IHVService.res
 0004:00136938       $R11F168                   101a5938     IHVService.res
 0004:00136c20       $R11F450                   101a5c20     IHVService.res
 0004:00136f50       $R11F780                   101a5f50     IHVService.res
 0004:001371d0       $R11FA00                   101a61d0     IHVService.res
 0004:001374a0       $R11FCD0                   101a64a0     IHVService.res
 0004:00137c58       $R120488                   101a6c58     IHVService.res
 0004:00138130       $R120960                   101a7130     IHVService.res
 0004:001383f0       $R120C20                   101a73f0     IHVService.res
 0004:001388c0       $R1210F0                   101a78c0     IHVService.res
 0004:00138d50       $R121580                   101a7d50     IHVService.res
 0004:00139380       $R121BB0                   101a8380     IHVService.res
 0004:00139770       $R121FA0                   101a8770     IHVService.res
 0004:00139b38       $R122368                   101a8b38     IHVService.res
 0004:00139ee0       $R122710                   101a8ee0     IHVService.res
 0004:0013a2d8       $R122B08                   101a92d8     IHVService.res
 0004:0013a680       $R122EB0                   101a9680     IHVService.res
 0004:0013a850       $R123080                   101a9850     IHVService.res
 0004:0013aad8       $R123308                   101a9ad8     IHVService.res
 0004:0013aea8       $R1236D8                   101a9ea8     IHVService.res
 0004:0013b1f0       $R123A20                   101aa1f0     IHVService.res
 0004:0013b3f8       $R123C28                   101aa3f8     IHVService.res
 0004:0013b780       $R123FB0                   101aa780     IHVService.res
 0004:0013bfc8       $R1247F8                   101aafc8     IHVService.res
 0004:0013cc28       $R125458                   101abc28     IHVService.res
 0004:0013d130       $R125960                   101ac130     IHVService.res
 0004:0013da90       $R1262C0                   101aca90     IHVService.res
 0004:0013dff8       $R126828                   101acff8     IHVService.res
 0004:0013e590       $R126DC0                   101ad590     IHVService.res
 0004:0013e9f8       $R127228                   101ad9f8     IHVService.res
 0004:0013f180       $R1279B0                   101ae180     IHVService.res
 0004:0013fa20       $R128250                   101aea20     IHVService.res
 0004:0013fd38       $R128568                   101aed38     IHVService.res
 0004:001401c8       $R1289F8                   101af1c8     IHVService.res
 0004:00140588       $R128DB8                   101af588     IHVService.res
 0004:00140af8       $R129328                   101afaf8     IHVService.res
 0004:00141100       $R129930                   101b0100     IHVService.res
 0004:00141580       $R129DB0                   101b0580     IHVService.res
 0004:00141c08       $R12A438                   101b0c08     IHVService.res
 0004:001420f0       $R12A920                   101b10f0     IHVService.res
 0004:00142598       $R12ADC8                   101b1598     IHVService.res
 0004:00142bb0       $R12B3E0                   101b1bb0     IHVService.res
 0004:001430d8       $R12B908                   101b20d8     IHVService.res
 0004:00143688       $R12BEB8                   101b2688     IHVService.res
 0004:001439e8       $R12C218                   101b29e8     IHVService.res
 0004:00143a70       $R12C2A0                   101b2a70     IHVService.res
 0004:00143bb8       $R12C3E8                   101b2bb8     IHVService.res
 0004:00143d10       $R12C540                   101b2d10     IHVService.res
 0004:00143e90       $R12C6C0                   101b2e90     IHVService.res
 0004:00143fe0       $R12C810                   101b2fe0     IHVService.res
 0004:00144190       $R12C9C0                   101b3190     IHVService.res
 0004:001442f8       $R12CB28                   101b32f8     IHVService.res
 0004:001443f0       $R12CC20                   101b33f0     IHVService.res
 0004:00144520       $R12CD50                   101b3520     IHVService.res
 0004:00144658       $R12CE88                   101b3658     IHVService.res
 0004:001447a0       $R12CFD0                   101b37a0     IHVService.res
 0004:001448d8       $R12D108                   101b38d8     IHVService.res
 0004:00144a90       $R12D2C0                   101b3a90     IHVService.res
 0004:00144c20       $R12D450                   101b3c20     IHVService.res
 0004:00144df0       $R12D620                   101b3df0     IHVService.res
 0004:00144f70       $R12D7A0                   101b3f70     IHVService.res
 0004:00144fc8       $R12D7F8                   101b3fc8     IHVService.res
 0004:001454a0       $R12DCD0                   101b44a0     IHVService.res
 0004:00145810       $R12E040                   101b4810     IHVService.res
 0004:00145a90       $R12E2C0                   101b4a90     IHVService.res
 0004:00145d78       $R12E5A8                   101b4d78     IHVService.res
 0004:00146228       $R12EA58                   101b5228     IHVService.res
 0004:001466e0       $R12EF10                   101b56e0     IHVService.res
 0004:00146a38       $R12F268                   101b5a38     IHVService.res
 0004:00146fe0       $R12F810                   101b5fe0     IHVService.res
 0004:00147848       $R130078                   101b6848     IHVService.res
 0004:00147c08       $R130438                   101b6c08     IHVService.res
 0004:00148198       $R1309C8                   101b7198     IHVService.res
 0004:00148640       $R130E70                   101b7640     IHVService.res
 0004:00148ae0       $R131310                   101b7ae0     IHVService.res
 0004:00149000       $R131830                   101b8000     IHVService.res
 0004:00149278       $R131AA8                   101b8278     IHVService.res
 0004:001497d0       $R132000                   101b87d0     IHVService.res
 0004:00149950       $R132180                   101b8950     IHVService.res
 0004:00149ed0       $R132700                   101b8ed0     IHVService.res
 0004:0014a0e8       $R132918                   101b90e8     IHVService.res
 0004:0014a298       $R132AC8                   101b9298     IHVService.res
 0004:0014a728       $R132F58                   101b9728     IHVService.res
 0004:0014ac48       $R133478                   101b9c48     IHVService.res
 0004:0014b108       $R133938                   101ba108     IHVService.res
 0004:0014b428       $R133C58                   101ba428     IHVService.res
 0004:0014bc28       $R134458                   101bac28     IHVService.res
 0004:0014c1c8       $R1349F8                   101bb1c8     IHVService.res
 0004:0014c7c8       $R134FF8                   101bb7c8     IHVService.res
 0004:0014cb30       $R135360                   101bbb30     IHVService.res
 0004:0014d308       $R135B38                   101bc308     IHVService.res
 0004:0014d608       $R135E38                   101bc608     IHVService.res
 0004:0014d950       $R136180                   101bc950     IHVService.res
 0004:0014dc08       $R136438                   101bcc08     IHVService.res
 0004:0014def0       $R136720                   101bcef0     IHVService.res
 0004:0014e750       $R136F80                   101bd750     IHVService.res
 0004:0014ec38       $R137468                   101bdc38     IHVService.res
 0004:0014eef0       $R137720                   101bdef0     IHVService.res
 0004:0014f3e8       $R137C18                   101be3e8     IHVService.res
 0004:0014f8a8       $R1380D8                   101be8a8     IHVService.res
 0004:0014fea8       $R1386D8                   101beea8     IHVService.res
 0004:00150358       $R138B88                   101bf358     IHVService.res
 0004:00150820       $R139050                   101bf820     IHVService.res
 0004:00150bc8       $R1393F8                   101bfbc8     IHVService.res
 0004:00151018       $R139848                   101c0018     IHVService.res
 0004:001513e0       $R139C10                   101c03e0     IHVService.res
 0004:001515b8       $R139DE8                   101c05b8     IHVService.res
 0004:00151840       $R13A070                   101c0840     IHVService.res
 0004:00151c30       $R13A460                   101c0c30     IHVService.res
 0004:00151f50       $R13A780                   101c0f50     IHVService.res
 0004:00152128       $R13A958                   101c1128     IHVService.res
 0004:001524c8       $R13ACF8                   101c14c8     IHVService.res
 0004:00152d70       $R13B5A0                   101c1d70     IHVService.res
 0004:001539a8       $R13C1D8                   101c29a8     IHVService.res
 0004:00153e68       $R13C698                   101c2e68     IHVService.res
 0004:001546e8       $R13CF18                   101c36e8     IHVService.res
 0004:00154c20       $R13D450                   101c3c20     IHVService.res
 0004:00155160       $R13D990                   101c4160     IHVService.res
 0004:00155588       $R13DDB8                   101c4588     IHVService.res
 0004:00155ce0       $R13E510                   101c4ce0     IHVService.res
 0004:001565f8       $R13EE28                   101c55f8     IHVService.res
 0004:00156938       $R13F168                   101c5938     IHVService.res
 0004:00156e10       $R13F640                   101c5e10     IHVService.res
 0004:00157258       $R13FA88                   101c6258     IHVService.res
 0004:00157898       $R1400C8                   101c6898     IHVService.res
 0004:00157f90       $R1407C0                   101c6f90     IHVService.res
 0004:00158498       $R140CC8                   101c7498     IHVService.res
 0004:00158c10       $R141440                   101c7c10     IHVService.res
 0004:00159160       $R141990                   101c8160     IHVService.res
 0004:001595e8       $R141E18                   101c85e8     IHVService.res
 0004:00159bf8       $R142428                   101c8bf8     IHVService.res
 0004:0015a200       $R142A30                   101c9200     IHVService.res
 0004:0015a7b8       $R142FE8                   101c97b8     IHVService.res
 0004:0015ab80       $R1433B0                   101c9b80     IHVService.res
 0004:0015ac18       $R143448                   101c9c18     IHVService.res
 0004:0015ad60       $R143590                   101c9d60     IHVService.res
 0004:0015aed0       $R143700                   101c9ed0     IHVService.res
 0004:0015b000       $R143830                   101ca000     IHVService.res
 0004:0015b160       $R143990                   101ca160     IHVService.res
 0004:0015b2f0       $R143B20                   101ca2f0     IHVService.res
 0004:0015b428       $R143C58                   101ca428     IHVService.res
 0004:0015b510       $R143D40                   101ca510     IHVService.res
 0004:0015b658       $R143E88                   101ca658     IHVService.res
 0004:0015b788       $R143FB8                   101ca788     IHVService.res
 0004:0015b918       $R144148                   101ca918     IHVService.res
 0004:0015ba50       $R144280                   101caa50     IHVService.res
 0004:0015bbe8       $R144418                   101cabe8     IHVService.res
 0004:0015bd70       $R1445A0                   101cad70     IHVService.res
 0004:0015bf00       $R144730                   101caf00     IHVService.res
 0004:0015c0a0       $R1448D0                   101cb0a0     IHVService.res
 0004:0015c100       $R144930                   101cb100     IHVService.res
 0004:0015c710       $R144F40                   101cb710     IHVService.res
 0004:0015cb38       $R145368                   101cbb38     IHVService.res
 0004:0015ce08       $R145638                   101cbe08     IHVService.res
 0004:0015d148       $R145978                   101cc148     IHVService.res
 0004:0015d698       $R145EC8                   101cc698     IHVService.res
 0004:0015dbe8       $R146418                   101ccbe8     IHVService.res
 0004:0015dfe8       $R146818                   101ccfe8     IHVService.res
 0004:0015e660       $R146E90                   101cd660     IHVService.res
 0004:0015f0b0       $R1478E0                   101ce0b0     IHVService.res
 0004:0015f4f0       $R147D20                   101ce4f0     IHVService.res
 0004:0015fb60       $R148390                   101ceb60     IHVService.res
 0004:001600f8       $R148928                   101cf0f8     IHVService.res
 0004:00160618       $R148E48                   101cf618     IHVService.res
 0004:00160c68       $R149498                   101cfc68     IHVService.res
 0004:00160f20       $R149750                   101cff20     IHVService.res
 0004:00161590       $R149DC0                   101d0590     IHVService.res
 0004:00161718       $R149F48                   101d0718     IHVService.res
 0004:00161d78       $R14A5A8                   101d0d78     IHVService.res
 0004:00161ff0       $R14A820                   101d0ff0     IHVService.res
 0004:001621b8       $R14A9E8                   101d11b8     IHVService.res
 0004:001626e8       $R14AF18                   101d16e8     IHVService.res
 0004:00162d48       $R14B578                   101d1d48     IHVService.res
 0004:001633c0       $R14BBF0                   101d23c0     IHVService.res
 0004:00163740       $R14BF70                   101d2740     IHVService.res
 0004:00163fd8       $R14C808                   101d2fd8     IHVService.res
 0004:00164710       $R14CF40                   101d3710     IHVService.res
 0004:00164dd0       $R14D600                   101d3dd0     IHVService.res
 0004:00165120       $R14D950                   101d4120     IHVService.res
 0004:00165a18       $R14E248                   101d4a18     IHVService.res
 0004:00165d80       $R14E5B0                   101d4d80     IHVService.res
 0004:00166168       $R14E998                   101d5168     IHVService.res
 0004:001664a0       $R14ECD0                   101d54a0     IHVService.res
 0004:00166888       $R14F0B8                   101d5888     IHVService.res
 0004:00167260       $R14FA90                   101d6260     IHVService.res
 0004:001677a8       $R14FFD8                   101d67a8     IHVService.res
 0004:00167af8       $R150328                   101d6af8     IHVService.res
 0004:00168158       $R150988                   101d7158     IHVService.res
 0004:001686b8       $R150EE8                   101d76b8     IHVService.res
 0004:00168e10       $R151640                   101d7e10     IHVService.res
 0004:001692f8       $R151B28                   101d82f8     IHVService.res
 0004:00169850       $R152080                   101d8850     IHVService.res
 0004:00169c90       $R1524C0                   101d8c90     IHVService.res
 0004:0016a0f8       $R152928                   101d90f8     IHVService.res
 0004:0016a560       $R152D90                   101d9560     IHVService.res
 0004:0016a798       $R152FC8                   101d9798     IHVService.res
 0004:0016aa58       $R153288                   101d9a58     IHVService.res
 0004:0016aec0       $R1536F0                   101d9ec0     IHVService.res
 0004:0016b2a0       $R153AD0                   101da2a0     IHVService.res
 0004:0016b468       $R153C98                   101da468     IHVService.res
 0004:0016b868       $R154098                   101da868     IHVService.res
 0004:0016c1c8       $R1549F8                   101db1c8     IHVService.res
 0004:0016cec8       $R1556F8                   101dbec8     IHVService.res
 0004:0016d410       $R155C40                   101dc410     IHVService.res
 0004:0016dd30       $R156560                   101dcd30     IHVService.res
 0004:0016e368       $R156B98                   101dd368     IHVService.res
 0004:0016e990       $R1571C0                   101dd990     IHVService.res
 0004:0016ee70       $R1576A0                   101dde70     IHVService.res
 0004:0016f7e0       $R158010                   101de7e0     IHVService.res
 0004:00170168       $R158998                   101df168     IHVService.res
 0004:00170550       $R158D80                   101df550     IHVService.res
 0004:00170a88       $R1592B8                   101dfa88     IHVService.res
 0004:00170f28       $R159758                   101dff28     IHVService.res
 0004:00171658       $R159E88                   101e0658     IHVService.res
 0004:00171de8       $R15A618                   101e0de8     IHVService.res
 0004:001723b0       $R15ABE0                   101e13b0     IHVService.res
 0004:00172b78       $R15B3A8                   101e1b78     IHVService.res
 0004:00173098       $R15B8C8                   101e2098     IHVService.res
 0004:00173608       $R15BE38                   101e2608     IHVService.res
 0004:00173c50       $R15C480                   101e2c50     IHVService.res
 0004:001742a0       $R15CAD0                   101e32a0     IHVService.res
 0004:00174998       $R15D1C8                   101e3998     IHVService.res
 0004:00174df0       $R15D620                   101e3df0     IHVService.res
 0004:00174e90       $R15D6C0                   101e3e90     IHVService.res
 0004:00174fd8       $R15D808                   101e3fd8     IHVService.res
 0004:00175148       $R15D978                   101e4148     IHVService.res
 0004:001752b0       $R15DAE0                   101e42b0     IHVService.res
 0004:00175428       $R15DC58                   101e4428     IHVService.res
 0004:001755d8       $R15DE08                   101e45d8     IHVService.res
 0004:00175720       $R15DF50                   101e4720     IHVService.res
 0004:00175818       $R15E048                   101e4818     IHVService.res
 0004:00175980       $R15E1B0                   101e4980     IHVService.res
 0004:00175af8       $R15E328                   101e4af8     IHVService.res
 0004:00175c90       $R15E4C0                   101e4c90     IHVService.res
 0004:00175e00       $R15E630                   101e4e00     IHVService.res
 0004:00175fb8       $R15E7E8                   101e4fb8     IHVService.res
 0004:00176168       $R15E998                   101e5168     IHVService.res
 0004:00176348       $R15EB78                   101e5348     IHVService.res
 0004:001764f8       $R15ED28                   101e54f8     IHVService.res
 0004:00176550       $R15ED80                   101e5550     IHVService.res
 0004:00176c00       $R15F430                   101e5c00     IHVService.res
 0004:00176fd0       $R15F800                   101e5fd0     IHVService.res
 0004:00177308       $R15FB38                   101e6308     IHVService.res
 0004:00177688       $R15FEB8                   101e6688     IHVService.res
 0004:00177c50       $R160480                   101e6c50     IHVService.res
 0004:00178220       $R160A50                   101e7220     IHVService.res
 0004:00178618       $R160E48                   101e7618     IHVService.res
 0004:00178cc8       $R1614F8                   101e7cc8     IHVService.res
 0004:00179910       $R162140                   101e8910     IHVService.res
 0004:00179da0       $R1625D0                   101e8da0     IHVService.res
 0004:0017a410       $R162C40                   101e9410     IHVService.res
 0004:0017a958       $R163188                   101e9958     IHVService.res
 0004:0017ae70       $R1636A0                   101e9e70     IHVService.res
 0004:0017b4b8       $R163CE8                   101ea4b8     IHVService.res
 0004:0017b748       $R163F78                   101ea748     IHVService.res
 0004:0017bec8       $R1646F8                   101eaec8     IHVService.res
 0004:0017c098       $R1648C8                   101eb098     IHVService.res
 0004:0017c700       $R164F30                   101eb700     IHVService.res
 0004:0017c9c8       $R1651F8                   101eb9c8     IHVService.res
 0004:0017cba0       $R1653D0                   101ebba0     IHVService.res
 0004:0017d090       $R1658C0                   101ec090     IHVService.res
 0004:0017d680       $R165EB0                   101ec680     IHVService.res
 0004:0017dc50       $R166480                   101ecc50     IHVService.res
 0004:0017dfa8       $R1667D8                   101ecfa8     IHVService.res
 0004:0017e8e8       $R167118                   101ed8e8     IHVService.res
 0004:0017f158       $R167988                   101ee158     IHVService.res
 0004:0017f8e0       $R168110                   101ee8e0     IHVService.res
 0004:0017fcd8       $R168508                   101eecd8     IHVService.res
 0004:00180638       $R168E68                   101ef638     IHVService.res
 0004:00180990       $R1691C0                   101ef990     IHVService.res
 0004:00180d28       $R169558                   101efd28     IHVService.res
 0004:00181048       $R169878                   101f0048     IHVService.res
 0004:00181420       $R169C50                   101f0420     IHVService.res
 0004:00181db0       $R16A5E0                   101f0db0     IHVService.res
 0004:00182320       $R16AB50                   101f1320     IHVService.res
 0004:00182638       $R16AE68                   101f1638     IHVService.res
 0004:00182c98       $R16B4C8                   101f1c98     IHVService.res
 0004:00183230       $R16BA60                   101f2230     IHVService.res
 0004:00183968       $R16C198                   101f2968     IHVService.res
 0004:00183ee0       $R16C710                   101f2ee0     IHVService.res
 0004:00184398       $R16CBC8                   101f3398     IHVService.res
 0004:00184810       $R16D040                   101f3810     IHVService.res
 0004:00184db8       $R16D5E8                   101f3db8     IHVService.res
 0004:00185240       $R16DA70                   101f4240     IHVService.res
 0004:00185438       $R16DC68                   101f4438     IHVService.res
 0004:001856e0       $R16DF10                   101f46e0     IHVService.res
 0004:00185b48       $R16E378                   101f4b48     IHVService.res
 0004:00185ee8       $R16E718                   101f4ee8     IHVService.res
 0004:001860b8       $R16E8E8                   101f50b8     IHVService.res
 0004:00186460       $R16EC90                   101f5460     IHVService.res
 0004:00186ef8       $R16F728                   101f5ef8     IHVService.res
 0004:00187d68       $R170598                   101f6d68     IHVService.res
 0004:00188358       $R170B88                   101f7358     IHVService.res
 0004:00188cf0       $R171520                   101f7cf0     IHVService.res
 0004:001893a0       $R171BD0                   101f83a0     IHVService.res
 0004:001899f0       $R172220                   101f89f0     IHVService.res
 0004:00189e88       $R1726B8                   101f8e88     IHVService.res
 0004:0018a7c0       $R172FF0                   101f97c0     IHVService.res
 0004:0018b268       $R173A98                   101fa268     IHVService.res
 0004:0018b6f8       $R173F28                   101fa6f8     IHVService.res
 0004:0018bd18       $R174548                   101fad18     IHVService.res
 0004:0018c250       $R174A80                   101fb250     IHVService.res
 0004:0018c9b0       $R1751E0                   101fb9b0     IHVService.res
 0004:0018d138       $R175968                   101fc138     IHVService.res
 0004:0018d6e8       $R175F18                   101fc6e8     IHVService.res
 0004:0018df10       $R176740                   101fcf10     IHVService.res
 0004:0018e4a0       $R176CD0                   101fd4a0     IHVService.res
 0004:0018e970       $R1771A0                   101fd970     IHVService.res
 0004:0018ef60       $R177790                   101fdf60     IHVService.res
 0004:0018f570       $R177DA0                   101fe570     IHVService.res
 0004:0018fc38       $R178468                   101fec38     IHVService.res
 0004:00190028       $R178858                   101ff028     IHVService.res
 0004:001900c8       $R1788F8                   101ff0c8     IHVService.res
 0004:00190230       $R178A60                   101ff230     IHVService.res
 0004:001903a8       $R178BD8                   101ff3a8     IHVService.res
 0004:00190508       $R178D38                   101ff508     IHVService.res
 0004:00190668       $R178E98                   101ff668     IHVService.res
 0004:00190840       $R179070                   101ff840     IHVService.res
 0004:001909c0       $R1791F0                   101ff9c0     IHVService.res
 0004:00190ab8       $R1792E8                   101ffab8     IHVService.res
 0004:00190c30       $R179460                   101ffc30     IHVService.res
 0004:00190d70       $R1795A0                   101ffd70     IHVService.res
 0004:00190ed0       $R179700                   101ffed0     IHVService.res
 0004:00191038       $R179868                   10200038     IHVService.res
 0004:001911c8       $R1799F8                   102001c8     IHVService.res
 0004:00191368       $R179B98                   10200368     IHVService.res
 0004:001914d8       $R179D08                   102004d8     IHVService.res
 0004:00191668       $R179E98                   10200668     IHVService.res
 0004:001916b8       $R179EE8                   102006b8     IHVService.res
 0004:00191d28       $R17A558                   10200d28     IHVService.res
 0004:001921e0       $R17AA10                   102011e0     IHVService.res
 0004:001924e0       $R17AD10                   102014e0     IHVService.res
 0004:00192820       $R17B050                   10201820     IHVService.res
 0004:00192d50       $R17B580                   10201d50     IHVService.res
 0004:001933c0       $R17BBF0                   102023c0     IHVService.res
 0004:00193848       $R17C078                   10202848     IHVService.res
 0004:00193ef8       $R17C728                   10202ef8     IHVService.res
 0004:001949f0       $R17D220                   102039f0     IHVService.res
 0004:00194e68       $R17D698                   10203e68     IHVService.res
 0004:00195610       $R17DE40                   10204610     IHVService.res
 0004:00195cf0       $R17E520                   10204cf0     IHVService.res
 0004:001962d0       $R17EB00                   102052d0     IHVService.res
 0004:00196a30       $R17F260                   10205a30     IHVService.res
 0004:00196ce0       $R17F510                   10205ce0     IHVService.res
 0004:001973d0       $R17FC00                   102063d0     IHVService.res
 0004:00197560       $R17FD90                   10206560     IHVService.res
 0004:00197d08       $R180538                   10206d08     IHVService.res
 0004:00197fd0       $R180800                   10206fd0     IHVService.res
 0004:00198208       $R180A38                   10207208     IHVService.res
 0004:00198768       $R180F98                   10207768     IHVService.res
 0004:00198de8       $R181618                   10207de8     IHVService.res
 0004:00199468       $R181C98                   10208468     IHVService.res
 0004:001997c8       $R181FF8                   102087c8     IHVService.res
 0004:0019a220       $R182A50                   10209220     IHVService.res
 0004:0019aab8       $R1832E8                   10209ab8     IHVService.res
 0004:0019b1c8       $R1839F8                   1020a1c8     IHVService.res
 0004:0019b510       $R183D40                   1020a510     IHVService.res
 0004:0019be18       $R184648                   1020ae18     IHVService.res
 0004:0019c180       $R1849B0                   1020b180     IHVService.res
 0004:0019c588       $R184DB8                   1020b588     IHVService.res
 0004:0019c918       $R185148                   1020b918     IHVService.res
 0004:0019cd18       $R185548                   1020bd18     IHVService.res
 0004:0019d768       $R185F98                   1020c768     IHVService.res
 0004:0019ddb0       $R1865E0                   1020cdb0     IHVService.res
 0004:0019e128       $R186958                   1020d128     IHVService.res
 0004:0019e818       $R187048                   1020d818     IHVService.res
 0004:0019ed68       $R187598                   1020dd68     IHVService.res
 0004:0019f4e8       $R187D18                   1020e4e8     IHVService.res
 0004:0019fad8       $R188308                   1020ead8     IHVService.res
 0004:001a00e0       $R188910                   1020f0e0     IHVService.res
 0004:001a0568       $R188D98                   1020f568     IHVService.res
 0004:001a0a28       $R189258                   1020fa28     IHVService.res
 0004:001a0ea8       $R1896D8                   1020fea8     IHVService.res
 0004:001a1070       $R1898A0                   10210070     IHVService.res
 0004:001a1318       $R189B48                   10210318     IHVService.res
 0004:001a1728       $R189F58                   10210728     IHVService.res
 0004:001a1af8       $R18A328                   10210af8     IHVService.res
 0004:001a1cd0       $R18A500                   10210cd0     IHVService.res
 0004:001a21a8       $R18A9D8                   102111a8     IHVService.res
 0004:001a2ba0       $R18B3D0                   10211ba0     IHVService.res
 0004:001a3920       $R18C150                   10212920     IHVService.res
 0004:001a3f40       $R18C770                   10212f40     IHVService.res
 0004:001a49d8       $R18D208                   102139d8     IHVService.res
 0004:001a5000       $R18D830                   10214000     IHVService.res
 0004:001a5608       $R18DE38                   10214608     IHVService.res
 0004:001a5b58       $R18E388                   10214b58     IHVService.res
 0004:001a6578       $R18EDA8                   10215578     IHVService.res
 0004:001a7020       $R18F850                   10216020     IHVService.res
 0004:001a7400       $R18FC30                   10216400     IHVService.res
 0004:001a7a10       $R190240                   10216a10     IHVService.res
 0004:001a7f80       $R1907B0                   10216f80     IHVService.res
 0004:001a86f0       $R190F20                   102176f0     IHVService.res
 0004:001a8f20       $R191750                   10217f20     IHVService.res
 0004:001a9500       $R191D30                   10218500     IHVService.res
 0004:001a9d58       $R192588                   10218d58     IHVService.res
 0004:001aa2f8       $R192B28                   102192f8     IHVService.res
 0004:001aa878       $R1930A8                   10219878     IHVService.res
 0004:001aaf40       $R193770                   10219f40     IHVService.res
 0004:001ab638       $R193E68                   1021a638     IHVService.res
 0004:001abcf8       $R194528                   1021acf8     IHVService.res
 0004:001ac0c0       $R1948F0                   1021b0c0     IHVService.res
 0004:001ac160       $R194990                   1021b160     IHVService.res
 0004:001ac2c8       $R194AF8                   1021b2c8     IHVService.res
 0004:001ac438       $R194C68                   1021b438     IHVService.res
 0004:001ac5c0       $R194DF0                   1021b5c0     IHVService.res
 0004:001ac750       $R194F80                   1021b750     IHVService.res
 0004:001ac910       $R195140                   1021b910     IHVService.res
 0004:001aca58       $R195288                   1021ba58     IHVService.res
 0004:001acb50       $R195380                   1021bb50     IHVService.res
 0004:001accb8       $R1954E8                   1021bcb8     IHVService.res
 0004:001acde0       $R195610                   1021bde0     IHVService.res
 0004:001acf40       $R195770                   1021bf40     IHVService.res
 0004:001ad0a0       $R1958D0                   1021c0a0     IHVService.res
 0004:001ad278       $R195AA8                   1021c278     IHVService.res
 0004:001ad448       $R195C78                   1021c448     IHVService.res
 0004:001ad630       $R195E60                   1021c630     IHVService.res
 0004:001ad7c8       $R195FF8                   1021c7c8     IHVService.res
 0004:001ad818       $R196048                   1021c818     IHVService.res
 0004:001adc10       $R196440                   1021cc10     IHVService.res
 0004:001ade98       $R1966C8                   1021ce98     IHVService.res
 0004:001ae078       $R1968A8                   1021d078     IHVService.res
 0004:001ae288       $R196AB8                   1021d288     IHVService.res
 0004:001ae5a8       $R196DD8                   1021d5a8     IHVService.res
 0004:001ae8e8       $R197118                   1021d8e8     IHVService.res
 0004:001aeb40       $R197370                   1021db40     IHVService.res
 0004:001aef10       $R197740                   1021df10     IHVService.res
 0004:001af610       $R197E40                   1021e610     IHVService.res
 0004:001af8e0       $R198110                   1021e8e0     IHVService.res
 0004:001afd30       $R198560                   1021ed30     IHVService.res
 0004:001b00e8       $R198918                   1021f0e8     IHVService.res
 0004:001b03f0       $R198C20                   1021f3f0     IHVService.res
 0004:001b08a0       $R1990D0                   1021f8a0     IHVService.res
 0004:001b0a70       $R1992A0                   1021fa70     IHVService.res
 0004:001b0ef0       $R199720                   1021fef0     IHVService.res
 0004:001b1000       $R199830                   10220000     IHVService.res
 0004:001b1448       $R199C78                   10220448     IHVService.res
 0004:001b15c0       $R199DF0                   102205c0     IHVService.res
 0004:001b1710       $R199F40                   10220710     IHVService.res
 0004:001b1a78       $R19A2A8                   10220a78     IHVService.res
 0004:001b1e28       $R19A658                   10220e28     IHVService.res
 0004:001b2228       $R19AA58                   10221228     IHVService.res
 0004:001b2468       $R19AC98                   10221468     IHVService.res
 0004:001b2a18       $R19B248                   10221a18     IHVService.res
 0004:001b2ef8       $R19B728                   10221ef8     IHVService.res
 0004:001b3348       $R19BB78                   10222348     IHVService.res
 0004:001b3578       $R19BDA8                   10222578     IHVService.res
 0004:001b3b60       $R19C390                   10222b60     IHVService.res
 0004:001b3da8       $R19C5D8                   10222da8     IHVService.res
 0004:001b4040       $R19C870                   10223040     IHVService.res
 0004:001b4210       $R19CA40                   10223210     IHVService.res
 0004:001b4450       $R19CC80                   10223450     IHVService.res
 0004:001b4a40       $R19D270                   10223a40     IHVService.res
 0004:001b4dd8       $R19D608                   10223dd8     IHVService.res
 0004:001b4ff0       $R19D820                   10223ff0     IHVService.res
 0004:001b53a0       $R19DBD0                   102243a0     IHVService.res
 0004:001b5720       $R19DF50                   10224720     IHVService.res
 0004:001b5b48       $R19E378                   10224b48     IHVService.res
 0004:001b5e40       $R19E670                   10224e40     IHVService.res
 0004:001b6198       $R19E9C8                   10225198     IHVService.res
 0004:001b6488       $R19ECB8                   10225488     IHVService.res
 0004:001b67d0       $R19F000                   102257d0     IHVService.res
 0004:001b6a78       $R19F2A8                   10225a78     IHVService.res
 0004:001b6ba8       $R19F3D8                   10225ba8     IHVService.res
 0004:001b6d88       $R19F5B8                   10225d88     IHVService.res
 0004:001b7028       $R19F858                   10226028     IHVService.res
 0004:001b7298       $R19FAC8                   10226298     IHVService.res
 0004:001b7438       $R19FC68                   10226438     IHVService.res
 0004:001b76e8       $R19FF18                   102266e8     IHVService.res
 0004:001b7c90       $R1A04C0                   10226c90     IHVService.res
 0004:001b8548       $R1A0D78                   10227548     IHVService.res
 0004:001b8948       $R1A1178                   10227948     IHVService.res
 0004:001b8fd8       $R1A1808                   10227fd8     IHVService.res
 0004:001b93d0       $R1A1C00                   102283d0     IHVService.res
 0004:001b9810       $R1A2040                   10228810     IHVService.res
 0004:001b9b18       $R1A2348                   10228b18     IHVService.res
 0004:001ba0d8       $R1A2908                   102290d8     IHVService.res
 0004:001ba740       $R1A2F70                   10229740     IHVService.res
 0004:001ba9b8       $R1A31E8                   102299b8     IHVService.res
 0004:001bad68       $R1A3598                   10229d68     IHVService.res
 0004:001bb078       $R1A38A8                   1022a078     IHVService.res
 0004:001bb4a0       $R1A3CD0                   1022a4a0     IHVService.res
 0004:001bb970       $R1A41A0                   1022a970     IHVService.res
 0004:001bbd00       $R1A4530                   1022ad00     IHVService.res
 0004:001bc228       $R1A4A58                   1022b228     IHVService.res
 0004:001bc590       $R1A4DC0                   1022b590     IHVService.res
 0004:001bc900       $R1A5130                   1022b900     IHVService.res
 0004:001bcd60       $R1A5590                   1022bd60     IHVService.res
 0004:001bd170       $R1A59A0                   1022c170     IHVService.res
 0004:001bd558       $R1A5D88                   1022c558     IHVService.res
 0004:001bd7e8       $R1A6018                   1022c7e8     IHVService.res
 0004:001bd870       $R1A60A0                   1022c870     IHVService.res
 0004:001bd998       $R1A61C8                   1022c998     IHVService.res
 0004:001bdac0       $R1A62F0                   1022cac0     IHVService.res
 0004:001bdbf0       $R1A6420                   1022cbf0     IHVService.res
 0004:001bdd28       $R1A6558                   1022cd28     IHVService.res
 0004:001bdeb0       $R1A66E0                   1022ceb0     IHVService.res
 0004:001bdfc8       $R1A67F8                   1022cfc8     IHVService.res
 0004:001be0b0       $R1A68E0                   1022d0b0     IHVService.res
 0004:001be1e8       $R1A6A18                   1022d1e8     IHVService.res
 0004:001be2e8       $R1A6B18                   1022d2e8     IHVService.res
 0004:001be420       $R1A6C50                   1022d420     IHVService.res
 0004:001be530       $R1A6D60                   1022d530     IHVService.res
 0004:001be6a8       $R1A6ED8                   1022d6a8     IHVService.res
 0004:001be7f8       $R1A7028                   1022d7f8     IHVService.res
 0004:001be978       $R1A71A8                   1022d978     IHVService.res
 0004:001bead0       $R1A7300                   1022dad0     IHVService.res
 0004:001beb28       $R1A7358                   1022db28     IHVService.res
 0004:001bf158       $R1A7988                   1022e158     IHVService.res
 0004:001bf520       $R1A7D50                   1022e520     IHVService.res
 0004:001bf7f0       $R1A8020                   1022e7f0     IHVService.res
 0004:001bfb60       $R1A8390                   1022eb60     IHVService.res
 0004:001c0030       $R1A8860                   1022f030     IHVService.res
 0004:001c04d8       $R1A8D08                   1022f4d8     IHVService.res
 0004:001c0888       $R1A90B8                   1022f888     IHVService.res
 0004:001c0e70       $R1A96A0                   1022fe70     IHVService.res
 0004:001c18b0       $R1AA0E0                   102308b0     IHVService.res
 0004:001c1cc8       $R1AA4F8                   10230cc8     IHVService.res
 0004:001c2318       $R1AAB48                   10231318     IHVService.res
 0004:001c2840       $R1AB070                   10231840     IHVService.res
 0004:001c2cc8       $R1AB4F8                   10231cc8     IHVService.res
 0004:001c32f0       $R1ABB20                   102322f0     IHVService.res
 0004:001c35f0       $R1ABE20                   102325f0     IHVService.res
 0004:001c3cc8       $R1AC4F8                   10232cc8     IHVService.res
 0004:001c3e80       $R1AC6B0                   10232e80     IHVService.res
 0004:001c43e8       $R1ACC18                   102333e8     IHVService.res
 0004:001c4618       $R1ACE48                   10233618     IHVService.res
 0004:001c47f0       $R1AD020                   102337f0     IHVService.res
 0004:001c4d20       $R1AD550                   10233d20     IHVService.res
 0004:001c5258       $R1ADA88                   10234258     IHVService.res
 0004:001c5840       $R1AE070                   10234840     IHVService.res
 0004:001c5b80       $R1AE3B0                   10234b80     IHVService.res
 0004:001c63c8       $R1AEBF8                   102353c8     IHVService.res
 0004:001c6c00       $R1AF430                   10235c00     IHVService.res
 0004:001c72a8       $R1AFAD8                   102362a8     IHVService.res
 0004:001c7640       $R1AFE70                   10236640     IHVService.res
 0004:001c7ec0       $R1B06F0                   10236ec0     IHVService.res
 0004:001c81e0       $R1B0A10                   102371e0     IHVService.res
 0004:001c8538       $R1B0D68                   10237538     IHVService.res
 0004:001c8868       $R1B1098                   10237868     IHVService.res
 0004:001c8bd0       $R1B1400                   10237bd0     IHVService.res
 0004:001c9528       $R1B1D58                   10238528     IHVService.res
 0004:001c9ab8       $R1B22E8                   10238ab8     IHVService.res
 0004:001c9e08       $R1B2638                   10238e08     IHVService.res
 0004:001ca398       $R1B2BC8                   10239398     IHVService.res
 0004:001ca868       $R1B3098                   10239868     IHVService.res
 0004:001cae80       $R1B36B0                   10239e80     IHVService.res
 0004:001cb310       $R1B3B40                   1023a310     IHVService.res
 0004:001cb788       $R1B3FB8                   1023a788     IHVService.res
 0004:001cbbc8       $R1B43F8                   1023abc8     IHVService.res
 0004:001cbfe0       $R1B4810                   1023afe0     IHVService.res
 0004:001cc418       $R1B4C48                   1023b418     IHVService.res
 0004:001cc5e8       $R1B4E18                   1023b5e8     IHVService.res
 0004:001cc8b0       $R1B50E0                   1023b8b0     IHVService.res
 0004:001cccf0       $R1B5520                   1023bcf0     IHVService.res
 0004:001cd038       $R1B5868                   1023c038     IHVService.res
 0004:001cd228       $R1B5A58                   1023c228     IHVService.res
 0004:001cd5f0       $R1B5E20                   1023c5f0     IHVService.res
 0004:001cdf90       $R1B67C0                   1023cf90     IHVService.res
 0004:001cebe8       $R1B7418                   1023dbe8     IHVService.res
 0004:001cf128       $R1B7958                   1023e128     IHVService.res
 0004:001cfad8       $R1B8308                   1023ead8     IHVService.res
 0004:001d0080       $R1B88B0                   1023f080     IHVService.res
 0004:001d0568       $R1B8D98                   1023f568     IHVService.res
 0004:001d09f0       $R1B9220                   1023f9f0     IHVService.res
 0004:001d1258       $R1B9A88                   10240258     IHVService.res
 0004:001d1c38       $R1BA468                   10240c38     IHVService.res
 0004:001d1fe0       $R1BA810                   10240fe0     IHVService.res
 0004:001d24c8       $R1BACF8                   102414c8     IHVService.res
 0004:001d2980       $R1BB1B0                   10241980     IHVService.res
 0004:001d3028       $R1BB858                   10242028     IHVService.res
 0004:001d3718       $R1BBF48                   10242718     IHVService.res
 0004:001d3ca0       $R1BC4D0                   10242ca0     IHVService.res
 0004:001d43d8       $R1BCC08                   102433d8     IHVService.res
 0004:001d4948       $R1BD178                   10243948     IHVService.res
 0004:001d4eb8       $R1BD6E8                   10243eb8     IHVService.res
 0004:001d5540       $R1BDD70                   10244540     IHVService.res
 0004:001d5bc8       $R1BE3F8                   10244bc8     IHVService.res
 0004:001d62b0       $R1BEAE0                   102452b0     IHVService.res
 0004:001d66a0       $R1BEED0                   102456a0     IHVService.res
 0004:001d6750       $R1BEF80                   10245750     IHVService.res
 0004:001d68b0       $R1BF0E0                   102458b0     IHVService.res
 0004:001d6a08       $R1BF238                   10245a08     IHVService.res
 0004:001d6bb0       $R1BF3E0                   10245bb0     IHVService.res
 0004:001d6d60       $R1BF590                   10245d60     IHVService.res
 0004:001d6f48       $R1BF778                   10245f48     IHVService.res
 0004:001d70a8       $R1BF8D8                   102460a8     IHVService.res
 0004:001d71b8       $R1BF9E8                   102461b8     IHVService.res
 0004:001d7328       $R1BFB58                   10246328     IHVService.res
 0004:001d7458       $R1BFC88                   10246458     IHVService.res
 0004:001d75a8       $R1BFDD8                   102465a8     IHVService.res
 0004:001d76f8       $R1BFF28                   102466f8     IHVService.res
 0004:001d78c0       $R1C00F0                   102468c0     IHVService.res
 0004:001d7a70       $R1C02A0                   10246a70     IHVService.res
 0004:001d7c30       $R1C0460                   10246c30     IHVService.res
 0004:001d7db8       $R1C05E8                   10246db8     IHVService.res
 0004:001d7e08       $R1C0638                   10246e08     IHVService.res
 0004:001d83d8       $R1C0C08                   102473d8     IHVService.res
 0004:001d8750       $R1C0F80                   10247750     IHVService.res
 0004:001d8a28       $R1C1258                   10247a28     IHVService.res
 0004:001d8d38       $R1C1568                   10247d38     IHVService.res
 0004:001d9240       $R1C1A70                   10248240     IHVService.res
 0004:001d96e0       $R1C1F10                   102486e0     IHVService.res
 0004:001d9a58       $R1C2288                   10248a58     IHVService.res
 0004:001da0a0       $R1C28D0                   102490a0     IHVService.res
 0004:001daab0       $R1C32E0                   10249ab0     IHVService.res
 0004:001daeb0       $R1C36E0                   10249eb0     IHVService.res
 0004:001db4f0       $R1C3D20                   1024a4f0     IHVService.res
 0004:001dbaa0       $R1C42D0                   1024aaa0     IHVService.res
 0004:001dbf50       $R1C4780                   1024af50     IHVService.res
 0004:001dc530       $R1C4D60                   1024b530     IHVService.res
 0004:001dc780       $R1C4FB0                   1024b780     IHVService.res
 0004:001dcdf8       $R1C5628                   1024bdf8     IHVService.res
 0004:001dcf80       $R1C57B0                   1024bf80     IHVService.res
 0004:001dd5f8       $R1C5E28                   1024c5f8     IHVService.res
 0004:001dd820       $R1C6050                   1024c820     IHVService.res
 0004:001dd9f0       $R1C6220                   1024c9f0     IHVService.res
 0004:001ddf68       $R1C6798                   1024cf68     IHVService.res
 0004:001de4d0       $R1C6D00                   1024d4d0     IHVService.res
 0004:001dea60       $R1C7290                   1024da60     IHVService.res
 0004:001ded78       $R1C75A8                   1024dd78     IHVService.res
 0004:001df680       $R1C7EB0                   1024e680     IHVService.res
 0004:001dfe28       $R1C8658                   1024ee28     IHVService.res
 0004:001e0510       $R1C8D40                   1024f510     IHVService.res
 0004:001e08a0       $R1C90D0                   1024f8a0     IHVService.res
 0004:001e1110       $R1C9940                   10250110     IHVService.res
 0004:001e1438       $R1C9C68                   10250438     IHVService.res
 0004:001e17e0       $R1CA010                   102507e0     IHVService.res
 0004:001e1aa8       $R1CA2D8                   10250aa8     IHVService.res
 0004:001e1dd8       $R1CA608                   10250dd8     IHVService.res
 0004:001e2778       $R1CAFA8                   10251778     IHVService.res
 0004:001e2c78       $R1CB4A8                   10251c78     IHVService.res
 0004:001e2f88       $R1CB7B8                   10251f88     IHVService.res
 0004:001e34e8       $R1CBD18                   102524e8     IHVService.res
 0004:001e3a48       $R1CC278                   10252a48     IHVService.res
 0004:001e4130       $R1CC960                   10253130     IHVService.res
 0004:001e4598       $R1CCDC8                   10253598     IHVService.res
 0004:001e4a40       $R1CD270                   10253a40     IHVService.res
 0004:001e4e50       $R1CD680                   10253e50     IHVService.res
 0004:001e5278       $R1CDAA8                   10254278     IHVService.res
 0004:001e56a0       $R1CDED0                   102546a0     IHVService.res
 0004:001e5888       $R1CE0B8                   10254888     IHVService.res
 0004:001e5b20       $R1CE350                   10254b20     IHVService.res
 0004:001e5f18       $R1CE748                   10254f18     IHVService.res
 0004:001e62b8       $R1CEAE8                   102552b8     IHVService.res
 0004:001e6450       $R1CEC80                   10255450     IHVService.res
 0004:001e6800       $R1CF030                   10255800     IHVService.res
 0004:001e70e0       $R1CF910                   102560e0     IHVService.res
 0004:001e7d68       $R1D0598                   10256d68     IHVService.res
 0004:001e8298       $R1D0AC8                   10257298     IHVService.res
 0004:001e8c08       $R1D1438                   10257c08     IHVService.res
 0004:001e91d0       $R1D1A00                   102581d0     IHVService.res
 0004:001e9718       $R1D1F48                   10258718     IHVService.res
 0004:001e9be8       $R1D2418                   10258be8     IHVService.res
 0004:001ea458       $R1D2C88                   10259458     IHVService.res
 0004:001eae10       $R1D3640                   10259e10     IHVService.res
 0004:001eb1e0       $R1D3A10                   1025a1e0     IHVService.res
 0004:001eb710       $R1D3F40                   1025a710     IHVService.res
 0004:001ebbc8       $R1D43F8                   1025abc8     IHVService.res
 0004:001ec2f0       $R1D4B20                   1025b2f0     IHVService.res
 0004:001eca80       $R1D52B0                   1025ba80     IHVService.res
 0004:001ed020       $R1D5850                   1025c020     IHVService.res
 0004:001ed838       $R1D6068                   1025c838     IHVService.res
 0004:001edd78       $R1D65A8                   1025cd78     IHVService.res
 0004:001ee2d8       $R1D6B08                   1025d2d8     IHVService.res
 0004:001ee8e0       $R1D7110                   1025d8e0     IHVService.res
 0004:001eefe0       $R1D7810                   1025dfe0     IHVService.res
 0004:001ef670       $R1D7EA0                   1025e670     IHVService.res
 0004:001efa28       $R1D8258                   1025ea28     IHVService.res
 0004:001efac8       $R1D82F8                   1025eac8     IHVService.res
 0004:001efc08       $R1D8438                   1025ec08     IHVService.res
 0004:001efd70       $R1D85A0                   1025ed70     IHVService.res
 0004:001efed0       $R1D8700                   1025eed0     IHVService.res
 0004:001f0040       $R1D8870                   1025f040     IHVService.res
 0004:001f01f8       $R1D8A28                   1025f1f8     IHVService.res
 0004:001f0340       $R1D8B70                   1025f340     IHVService.res
 0004:001f0438       $R1D8C68                   1025f438     IHVService.res
 0004:001f0590       $R1D8DC0                   1025f590     IHVService.res
 0004:001f06b8       $R1D8EE8                   1025f6b8     IHVService.res
 0004:001f0810       $R1D9040                   1025f810     IHVService.res
 0004:001f0950       $R1D9180                   1025f950     IHVService.res
 0004:001f0b38       $R1D9368                   1025fb38     IHVService.res
 0004:001f0cb8       $R1D94E8                   1025fcb8     IHVService.res
 0004:001f0e50       $R1D9680                   1025fe50     IHVService.res
 0004:001f0ff8       $R1D9828                   1025fff8     IHVService.res
 0004:001f1048       $R1D9878                   10260048     IHVService.res
 0004:001f1348       $R1D9B78                   10260348     IHVService.res
 0004:001f1560       $R1D9D90                   10260560     IHVService.res
 0004:001f16b8       $R1D9EE8                   102606b8     IHVService.res
 0004:001f1830       $R1DA060                   10260830     IHVService.res
 0004:001f1ac0       $R1DA2F0                   10260ac0     IHVService.res
 0004:001f1d48       $R1DA578                   10260d48     IHVService.res
 0004:001f1f40       $R1DA770                   10260f40     IHVService.res
 0004:001f2218       $R1DAA48                   10261218     IHVService.res
 0004:001f27c0       $R1DAFF0                   102617c0     IHVService.res
 0004:001f29f0       $R1DB220                   102619f0     IHVService.res
 0004:001f2d48       $R1DB578                   10261d48     IHVService.res
 0004:001f3038       $R1DB868                   10262038     IHVService.res
 0004:001f3298       $R1DBAC8                   10262298     IHVService.res
 0004:001f3550       $R1DBD80                   10262550     IHVService.res
 0004:001f3690       $R1DBEC0                   10262690     IHVService.res
 0004:001f39f8       $R1DC228                   102629f8     IHVService.res
 0004:001f3ae8       $R1DC318                   10262ae8     IHVService.res
 0004:001f3de0       $R1DC610                   10262de0     IHVService.res
 0004:001f3f18       $R1DC748                   10262f18     IHVService.res
 0004:001f4018       $R1DC848                   10263018     IHVService.res
 0004:001f42e0       $R1DCB10                   102632e0     IHVService.res
 0004:001f45a8       $R1DCDD8                   102635a8     IHVService.res
 0004:001f4870       $R1DD0A0                   10263870     IHVService.res
 0004:001f4a50       $R1DD280                   10263a50     IHVService.res
 0004:001f4e78       $R1DD6A8                   10263e78     IHVService.res
 0004:001f5260       $R1DDA90                   10264260     IHVService.res
 0004:001f55d0       $R1DDE00                   102645d0     IHVService.res
 0004:001f5780       $R1DDFB0                   10264780     IHVService.res
 0004:001f5c18       $R1DE448                   10264c18     IHVService.res
 0004:001f5e10       $R1DE640                   10264e10     IHVService.res
 0004:001f5ff0       $R1DE820                   10264ff0     IHVService.res
 0004:001f6178       $R1DE9A8                   10265178     IHVService.res
 0004:001f6380       $R1DEBB0                   10265380     IHVService.res
 0004:001f67d0       $R1DF000                   102657d0     IHVService.res
 0004:001f6ab8       $R1DF2E8                   10265ab8     IHVService.res
 0004:001f6c60       $R1DF490                   10265c60     IHVService.res
 0004:001f6f58       $R1DF788                   10265f58     IHVService.res
 0004:001f7228       $R1DFA58                   10266228     IHVService.res
 0004:001f7560       $R1DFD90                   10266560     IHVService.res
 0004:001f77c8       $R1DFFF8                   102667c8     IHVService.res
 0004:001f7a50       $R1E0280                   10266a50     IHVService.res
 0004:001f7ca8       $R1E04D8                   10266ca8     IHVService.res
 0004:001f7f68       $R1E0798                   10266f68     IHVService.res
 0004:001f8180       $R1E09B0                   10267180     IHVService.res
 0004:001f8280       $R1E0AB0                   10267280     IHVService.res
 0004:001f83e8       $R1E0C18                   102673e8     IHVService.res
 0004:001f85b0       $R1E0DE0                   102675b0     IHVService.res
 0004:001f87b0       $R1E0FE0                   102677b0     IHVService.res
 0004:001f88d0       $R1E1100                   102678d0     IHVService.res
 0004:001f8aa0       $R1E12D0                   10267aa0     IHVService.res
 0004:001f8ef0       $R1E1720                   10267ef0     IHVService.res
 0004:001f9500       $R1E1D30                   10268500     IHVService.res
 0004:001f97a8       $R1E1FD8                   102687a8     IHVService.res
 0004:001f9cd0       $R1E2500                   10268cd0     IHVService.res
 0004:001f9fb8       $R1E27E8                   10268fb8     IHVService.res
 0004:001fa290       $R1E2AC0                   10269290     IHVService.res
 0004:001fa4a8       $R1E2CD8                   102694a8     IHVService.res
 0004:001fa910       $R1E3140                   10269910     IHVService.res
 0004:001fae10       $R1E3640                   10269e10     IHVService.res
 0004:001fb050       $R1E3880                   1026a050     IHVService.res
 0004:001fb370       $R1E3BA0                   1026a370     IHVService.res
 0004:001fb5b0       $R1E3DE0                   1026a5b0     IHVService.res
 0004:001fb880       $R1E40B0                   1026a880     IHVService.res
 0004:001fbc08       $R1E4438                   1026ac08     IHVService.res
 0004:001fbe68       $R1E4698                   1026ae68     IHVService.res
 0004:001fc250       $R1E4A80                   1026b250     IHVService.res
 0004:001fc4e0       $R1E4D10                   1026b4e0     IHVService.res
 0004:001fc788       $R1E4FB8                   1026b788     IHVService.res
 0004:001fcac0       $R1E52F0                   1026bac0     IHVService.res
 0004:001fcdc8       $R1E55F8                   1026bdc8     IHVService.res
 0004:001fd100       $R1E5930                   1026c100     IHVService.res
 0004:001fd2b0       $R1E5AE0                   1026c2b0     IHVService.res
 0004:001fd318       $R1E5B48                   1026c318     IHVService.res
 0004:001fd3e8       $R1E5C18                   1026c3e8     IHVService.res
 0004:001fd4b0       $R1E5CE0                   1026c4b0     IHVService.res
 0004:001fd568       $R1E5D98                   1026c568     IHVService.res
 0004:001fd630       $R1E5E60                   1026c630     IHVService.res
 0004:001fd720       $R1E5F50                   1026c720     IHVService.res
 0004:001fd7f8       $R1E6028                   1026c7f8     IHVService.res
 0004:001fd8a8       $R1E60D8                   1026c8a8     IHVService.res
 0004:001fd988       $R1E61B8                   1026c988     IHVService.res
 0004:001fda50       $R1E6280                   1026ca50     IHVService.res
 0004:001fdb20       $R1E6350                   1026cb20     IHVService.res
 0004:001fdbe0       $R1E6410                   1026cbe0     IHVService.res
 0004:001fdcd0       $R1E6500                   1026ccd0     IHVService.res
 0004:001fdde0       $R1E6610                   1026cde0     IHVService.res
 0004:001fdef0       $R1E6720                   1026cef0     IHVService.res
 0004:001fdff8       $R1E6828                   1026cff8     IHVService.res
 0004:001fe048       $R1E6878                   1026d048     IHVService.res
 0004:001fe2e8       $R1E6B18                   1026d2e8     IHVService.res
 0004:001fe4d0       $R1E6D00                   1026d4d0     IHVService.res
 0004:001fe5f8       $R1E6E28                   1026d5f8     IHVService.res
 0004:001fe760       $R1E6F90                   1026d760     IHVService.res
 0004:001fe9b8       $R1E71E8                   1026d9b8     IHVService.res
 0004:001fec10       $R1E7440                   1026dc10     IHVService.res
 0004:001fedd8       $R1E7608                   1026ddd8     IHVService.res
 0004:001ff098       $R1E78C8                   1026e098     IHVService.res
 0004:001ff5d8       $R1E7E08                   1026e5d8     IHVService.res
 0004:001ff7e0       $R1E8010                   1026e7e0     IHVService.res
 0004:001ffb18       $R1E8348                   1026eb18     IHVService.res
 0004:001ffdc0       $R1E85F0                   1026edc0     IHVService.res
 0004:00200020       $R1E8850                   1026f020     IHVService.res
 0004:00200290       $R1E8AC0                   1026f290     IHVService.res
 0004:002003d8       $R1E8C08                   1026f3d8     IHVService.res
 0004:00200710       $R1E8F40                   1026f710     IHVService.res
 0004:002007f0       $R1E9020                   1026f7f0     IHVService.res
 0004:00200ab8       $R1E92E8                   1026fab8     IHVService.res
 0004:00200be0       $R1E9410                   1026fbe0     IHVService.res
 0004:00200cd0       $R1E9500                   1026fcd0     IHVService.res
 0004:00200f58       $R1E9788                   1026ff58     IHVService.res
 0004:00201200       $R1E9A30                   10270200     IHVService.res
 0004:00201460       $R1E9C90                   10270460     IHVService.res
 0004:002015e8       $R1E9E18                   102705e8     IHVService.res
 0004:002019a8       $R1EA1D8                   102709a8     IHVService.res
 0004:00201d60       $R1EA590                   10270d60     IHVService.res
 0004:00202038       $R1EA868                   10271038     IHVService.res
 0004:002021b0       $R1EA9E0                   102711b0     IHVService.res
 0004:002025e0       $R1EAE10                   102715e0     IHVService.res
 0004:00202790       $R1EAFC0                   10271790     IHVService.res
 0004:00202940       $R1EB170                   10271940     IHVService.res
 0004:00202aa0       $R1EB2D0                   10271aa0     IHVService.res
 0004:00202c00       $R1EB430                   10271c00     IHVService.res
 0004:00203018       $R1EB848                   10272018     IHVService.res
 0004:002032a8       $R1EBAD8                   102722a8     IHVService.res
 0004:00203428       $R1EBC58                   10272428     IHVService.res
 0004:002036c0       $R1EBEF0                   102726c0     IHVService.res
 0004:00203930       $R1EC160                   10272930     IHVService.res
 0004:00203c18       $R1EC448                   10272c18     IHVService.res
 0004:00203e48       $R1EC678                   10272e48     IHVService.res
 0004:002040b0       $R1EC8E0                   102730b0     IHVService.res
 0004:002042c0       $R1ECAF0                   102732c0     IHVService.res
 0004:00204528       $R1ECD58                   10273528     IHVService.res
 0004:00204710       $R1ECF40                   10273710     IHVService.res
 0004:002047e8       $R1ED018                   102737e8     IHVService.res
 0004:00204908       $R1ED138                   10273908     IHVService.res
 0004:00204ad8       $R1ED308                   10273ad8     IHVService.res
 0004:00204ca8       $R1ED4D8                   10273ca8     IHVService.res
 0004:00204d90       $R1ED5C0                   10273d90     IHVService.res
 0004:00204f40       $R1ED770                   10273f40     IHVService.res
 0004:00205320       $R1EDB50                   10274320     IHVService.res
 0004:00205880       $R1EE0B0                   10274880     IHVService.res
 0004:00205b40       $R1EE370                   10274b40     IHVService.res
 0004:00205f98       $R1EE7C8                   10274f98     IHVService.res
 0004:00206250       $R1EEA80                   10275250     IHVService.res
 0004:00206508       $R1EED38                   10275508     IHVService.res
 0004:00206710       $R1EEF40                   10275710     IHVService.res
 0004:00206ba0       $R1EF3D0                   10275ba0     IHVService.res
 0004:00207018       $R1EF848                   10276018     IHVService.res
 0004:00207248       $R1EFA78                   10276248     IHVService.res
 0004:00207528       $R1EFD58                   10276528     IHVService.res
 0004:00207738       $R1EFF68                   10276738     IHVService.res
 0004:002079f0       $R1F0220                   102769f0     IHVService.res
 0004:00207d48       $R1F0578                   10276d48     IHVService.res
 0004:00207fa0       $R1F07D0                   10276fa0     IHVService.res
 0004:00208338       $R1F0B68                   10277338     IHVService.res
 0004:00208540       $R1F0D70                   10277540     IHVService.res
 0004:002087b0       $R1F0FE0                   102777b0     IHVService.res
 0004:00208aa8       $R1F12D8                   10277aa8     IHVService.res
 0004:00208d30       $R1F1560                   10277d30     IHVService.res
 0004:00209010       $R1F1840                   10278010     IHVService.res
 0004:002091f0       $R1F1A20                   102781f0     IHVService.res
 0004:00209258       $R1F1A88                   10278258     IHVService.res
 0004:00209308       $R1F1B38                   10278308     IHVService.res
 0004:002093b0       $R1F1BE0                   102783b0     IHVService.res
 0004:00209458       $R1F1C88                   10278458     IHVService.res
 0004:00209508       $R1F1D38                   10278508     IHVService.res
 0004:002095f8       $R1F1E28                   102785f8     IHVService.res
 0004:002096a0       $R1F1ED0                   102786a0     IHVService.res
 0004:00209738       $R1F1F68                   10278738     IHVService.res
 0004:002097e8       $R1F2018                   102787e8     IHVService.res
 0004:00209880       $R1F20B0                   10278880     IHVService.res
 0004:00209928       $R1F2158                   10278928     IHVService.res
 0004:002099d8       $R1F2208                   102789d8     IHVService.res
 0004:00209ab0       $R1F22E0                   10278ab0     IHVService.res
 0004:00209b88       $R1F23B8                   10278b88     IHVService.res
 0004:00209c40       $R1F2470                   10278c40     IHVService.res
 0004:00209d10       $R1F2540                   10278d10     IHVService.res
 0004:00209d48       $R1F2578                   10278d48     IHVService.res
 0004:0020a2a0       $R1F2AD0                   102792a0     IHVService.res
 0004:0020a638       $R1F2E68                   10279638     IHVService.res
 0004:0020a908       $R1F3138                   10279908     IHVService.res
 0004:0020ac48       $R1F3478                   10279c48     IHVService.res
 0004:0020b0f0       $R1F3920                   1027a0f0     IHVService.res
 0004:0020b5d8       $R1F3E08                   1027a5d8     IHVService.res
 0004:0020b940       $R1F4170                   1027a940     IHVService.res
 0004:0020bed8       $R1F4708                   1027aed8     IHVService.res
 0004:0020c888       $R1F50B8                   1027b888     IHVService.res
 0004:0020cc90       $R1F54C0                   1027bc90     IHVService.res
 0004:0020d248       $R1F5A78                   1027c248     IHVService.res
 0004:0020d6f0       $R1F5F20                   1027c6f0     IHVService.res
 0004:0020db58       $R1F6388                   1027cb58     IHVService.res
 0004:0020e108       $R1F6938                   1027d108     IHVService.res
 0004:0020e380       $R1F6BB0                   1027d380     IHVService.res
 0004:0020e928       $R1F7158                   1027d928     IHVService.res
 0004:0020eaa8       $R1F72D8                   1027daa8     IHVService.res
 0004:0020f058       $R1F7888                   1027e058     IHVService.res
 0004:0020f2c0       $R1F7AF0                   1027e2c0     IHVService.res
 0004:0020f470       $R1F7CA0                   1027e470     IHVService.res
 0004:0020f950       $R1F8180                   1027e950     IHVService.res
 0004:0020fe58       $R1F8688                   1027ee58     IHVService.res
 0004:00210318       $R1F8B48                   1027f318     IHVService.res
 0004:00210670       $R1F8EA0                   1027f670     IHVService.res
 0004:00210df8       $R1F9628                   1027fdf8     IHVService.res
 0004:00211500       $R1F9D30                   10280500     IHVService.res
 0004:00211b10       $R1FA340                   10280b10     IHVService.res
 0004:00211e00       $R1FA630                   10280e00     IHVService.res
 0004:002125b0       $R1FADE0                   102815b0     IHVService.res
 0004:002128c8       $R1FB0F8                   102818c8     IHVService.res
 0004:00212ca0       $R1FB4D0                   10281ca0     IHVService.res
 0004:00212f80       $R1FB7B0                   10281f80     IHVService.res
 0004:002132c0       $R1FBAF0                   102822c0     IHVService.res
 0004:00213bb0       $R1FC3E0                   10282bb0     IHVService.res
 0004:00214088       $R1FC8B8                   10283088     IHVService.res
 0004:00214358       $R1FCB88                   10283358     IHVService.res
 0004:00214900       $R1FD130                   10283900     IHVService.res
 0004:00214dc0       $R1FD5F0                   10283dc0     IHVService.res
 0004:002153b8       $R1FDBE8                   102843b8     IHVService.res
 0004:002157e0       $R1FE010                   102847e0     IHVService.res
 0004:00215c58       $R1FE488                   10284c58     IHVService.res
 0004:00216038       $R1FE868                   10285038     IHVService.res
 0004:00216498       $R1FECC8                   10285498     IHVService.res
 0004:00216870       $R1FF0A0                   10285870     IHVService.res
 0004:00216a68       $R1FF298                   10285a68     IHVService.res
 0004:00216d20       $R1FF550                   10285d20     IHVService.res
 0004:00217148       $R1FF978                   10286148     IHVService.res
 0004:00217490       $R1FFCC0                   10286490     IHVService.res
 0004:00217638       $R1FFE68                   10286638     IHVService.res
 0004:002179b0       $R2001E0                   102869b0     IHVService.res
 0004:002182f0       $R200B20                   102872f0     IHVService.res
 0004:00218fe8       $R201818                   10287fe8     IHVService.res
 0004:00219518       $R201D48                   10288518     IHVService.res
 0004:00219dd0       $R202600                   10288dd0     IHVService.res
 0004:0021a380       $R202BB0                   10289380     IHVService.res
 0004:0021a8b0       $R2030E0                   102898b0     IHVService.res
 0004:0021ad28       $R203558                   10289d28     IHVService.res
 0004:0021b4c0       $R203CF0                   1028a4c0     IHVService.res
 0004:0021be30       $R204660                   1028ae30     IHVService.res
 0004:0021c198       $R2049C8                   1028b198     IHVService.res
 0004:0021c6f0       $R204F20                   1028b6f0     IHVService.res
 0004:0021cb98       $R2053C8                   1028bb98     IHVService.res
 0004:0021d1a8       $R2059D8                   1028c1a8     IHVService.res
 0004:0021d7e8       $R206018                   1028c7e8     IHVService.res
 0004:0021dce8       $R206518                   1028cce8     IHVService.res
 0004:0021e408       $R206C38                   1028d408     IHVService.res
 0004:0021e948       $R207178                   1028d948     IHVService.res
 0004:0021ede8       $R207618                   1028dde8     IHVService.res
 0004:0021f418       $R207C48                   1028e418     IHVService.res
 0004:0021f9d8       $R208208                   1028e9d8     IHVService.res
 0004:00220030       $R208860                   1028f030     IHVService.res
 0004:00220460       $R208C90                   1028f460     IHVService.res
 0004:002204f0       $R208D20                   1028f4f0     IHVService.res
 0004:00220638       $R208E68                   1028f638     IHVService.res
 0004:002207a8       $R208FD8                   1028f7a8     IHVService.res
 0004:00220918       $R209148                   1028f918     IHVService.res
 0004:00220a70       $R2092A0                   1028fa70     IHVService.res
 0004:00220c10       $R209440                   1028fc10     IHVService.res
 0004:00220d70       $R2095A0                   1028fd70     IHVService.res
 0004:00220e78       $R2096A8                   1028fe78     IHVService.res
 0004:00220fc0       $R2097F0                   1028ffc0     IHVService.res
 0004:002210f0       $R209920                   102900f0     IHVService.res
 0004:00221240       $R209A70                   10290240     IHVService.res
 0004:00221398       $R209BC8                   10290398     IHVService.res
 0004:00221578       $R209DA8                   10290578     IHVService.res
 0004:00221710       $R209F40                   10290710     IHVService.res
 0004:002218e0       $R20A110                   102908e0     IHVService.res
 0004:00221a60       $R20A290                   10290a60     IHVService.res
 0004:00221ab0       $R20A2E0                   10290ab0     IHVService.res
 0004:00222088       $R20A8B8                   10291088     IHVService.res
 0004:00222440       $R20AC70                   10291440     IHVService.res
 0004:00222750       $R20AF80                   10291750     IHVService.res
 0004:00222a88       $R20B2B8                   10291a88     IHVService.res
 0004:00222fd0       $R20B800                   10291fd0     IHVService.res
 0004:002234e0       $R20BD10                   102924e0     IHVService.res
 0004:00223868       $R20C098                   10292868     IHVService.res
 0004:00223e68       $R20C698                   10292e68     IHVService.res
 0004:00224838       $R20D068                   10293838     IHVService.res
 0004:00224c50       $R20D480                   10293c50     IHVService.res
 0004:002251f8       $R20DA28                   102941f8     IHVService.res
 0004:002256f8       $R20DF28                   102946f8     IHVService.res
 0004:00225bc0       $R20E3F0                   10294bc0     IHVService.res
 0004:002261a8       $R20E9D8                   102951a8     IHVService.res
 0004:00226460       $R20EC90                   10295460     IHVService.res
 0004:00226a98       $R20F2C8                   10295a98     IHVService.res
 0004:00226c38       $R20F468                   10295c38     IHVService.res
 0004:00227228       $R20FA58                   10296228     IHVService.res
 0004:00227458       $R20FC88                   10296458     IHVService.res
 0004:00227660       $R20FE90                   10296660     IHVService.res
 0004:00227b50       $R210380                   10296b50     IHVService.res
 0004:002280c8       $R2108F8                   102970c8     IHVService.res
 0004:00228670       $R210EA0                   10297670     IHVService.res
 0004:00228a50       $R211280                   10297a50     IHVService.res
 0004:002292c0       $R211AF0                   102982c0     IHVService.res
 0004:00229a50       $R212280                   10298a50     IHVService.res
 0004:0022a0f0       $R212920                   102990f0     IHVService.res
 0004:0022a4b8       $R212CE8                   102994b8     IHVService.res
 0004:0022ad68       $R213598                   10299d68     IHVService.res
 0004:0022b068       $R213898                   1029a068     IHVService.res
 0004:0022b3d8       $R213C08                   1029a3d8     IHVService.res
 0004:0022b6f8       $R213F28                   1029a6f8     IHVService.res
 0004:0022ba90       $R2142C0                   1029aa90     IHVService.res
 0004:0022c338       $R214B68                   1029b338     IHVService.res
 0004:0022c818       $R215048                   1029b818     IHVService.res
 0004:0022cb20       $R215350                   1029bb20     IHVService.res
 0004:0022d118       $R215948                   1029c118     IHVService.res
 0004:0022d590       $R215DC0                   1029c590     IHVService.res
 0004:0022db90       $R2163C0                   1029cb90     IHVService.res
 0004:0022e000       $R216830                   1029d000     IHVService.res
 0004:0022e4a8       $R216CD8                   1029d4a8     IHVService.res
 0004:0022e8e8       $R217118                   1029d8e8     IHVService.res
 0004:0022ed40       $R217570                   1029dd40     IHVService.res
 0004:0022f158       $R217988                   1029e158     IHVService.res
 0004:0022f340       $R217B70                   1029e340     IHVService.res
 0004:0022f5f0       $R217E20                   1029e5f0     IHVService.res
 0004:0022fa10       $R218240                   1029ea10     IHVService.res
 0004:0022fe18       $R218648                   1029ee18     IHVService.res
 0004:00230000       $R218830                   1029f000     IHVService.res
 0004:002303c8       $R218BF8                   1029f3c8     IHVService.res
 0004:00230cd0       $R219500                   1029fcd0     IHVService.res
 0004:002318e0       $R21A110                   102a08e0     IHVService.res
 0004:00231ed8       $R21A708                   102a0ed8     IHVService.res
 0004:00232800       $R21B030                   102a1800     IHVService.res
 0004:00232d98       $R21B5C8                   102a1d98     IHVService.res
 0004:00233320       $R21BB50                   102a2320     IHVService.res
 0004:00233790       $R21BFC0                   102a2790     IHVService.res
 0004:00233f18       $R21C748                   102a2f18     IHVService.res
 0004:002347e0       $R21D010                   102a37e0     IHVService.res
 0004:00234b78       $R21D3A8                   102a3b78     IHVService.res
 0004:00235060       $R21D890                   102a4060     IHVService.res
 0004:002354b0       $R21DCE0                   102a44b0     IHVService.res
 0004:00235b58       $R21E388                   102a4b58     IHVService.res
 0004:00236278       $R21EAA8                   102a5278     IHVService.res
 0004:00236768       $R21EF98                   102a5768     IHVService.res
 0004:00236e50       $R21F680                   102a5e50     IHVService.res
 0004:00237360       $R21FB90                   102a6360     IHVService.res
 0004:00237828       $R220058                   102a6828     IHVService.res
 0004:00237e60       $R220690                   102a6e60     IHVService.res
 0004:00238430       $R220C60                   102a7430     IHVService.res
 0004:00238a88       $R2212B8                   102a7a88     IHVService.res
 0004:00238e80       $R2216B0                   102a7e80     IHVService.res
 0004:00238f18       $R221748                   102a7f18     IHVService.res
 0004:00239078       $R2218A8                   102a8078     IHVService.res
 0004:00239218       $R221A48                   102a8218     IHVService.res
 0004:002393a0       $R221BD0                   102a83a0     IHVService.res
 0004:002394f8       $R221D28                   102a84f8     IHVService.res
 0004:002396c0       $R221EF0                   102a86c0     IHVService.res
 0004:00239870       $R2220A0                   102a8870     IHVService.res
 0004:00239980       $R2221B0                   102a8980     IHVService.res
 0004:00239b00       $R222330                   102a8b00     IHVService.res
 0004:00239c40       $R222470                   102a8c40     IHVService.res
 0004:00239dc8       $R2225F8                   102a8dc8     IHVService.res
 0004:00239f30       $R222760                   102a8f30     IHVService.res
 0004:0023a108       $R222938                   102a9108     IHVService.res
 0004:0023a2c8       $R222AF8                   102a92c8     IHVService.res
 0004:0023a4b0       $R222CE0                   102a94b0     IHVService.res
 0004:0023a670       $R222EA0                   102a9670     IHVService.res
 0004:0023a6c0       $R222EF0                   102a96c0     IHVService.res
 0004:0023ac70       $R2234A0                   102a9c70     IHVService.res
 0004:0023aff0       $R223820                   102a9ff0     IHVService.res
 0004:0023b2b8       $R223AE8                   102aa2b8     IHVService.res
 0004:0023b5a8       $R223DD8                   102aa5a8     IHVService.res
 0004:0023ba28       $R224258                   102aaa28     IHVService.res
 0004:0023bf40       $R224770                   102aaf40     IHVService.res
 0004:0023c280       $R224AB0                   102ab280     IHVService.res
 0004:0023c7d8       $R225008                   102ab7d8     IHVService.res
 0004:0023d148       $R225978                   102ac148     IHVService.res
 0004:0023d548       $R225D78                   102ac548     IHVService.res
 0004:0023db00       $R226330                   102acb00     IHVService.res
 0004:0023df98       $R2267C8                   102acf98     IHVService.res
 0004:0023e430       $R226C60                   102ad430     IHVService.res
 0004:0023e960       $R227190                   102ad960     IHVService.res
 0004:0023ebb0       $R2273E0                   102adbb0     IHVService.res
 0004:0023f208       $R227A38                   102ae208     IHVService.res
 0004:0023f370       $R227BA0                   102ae370     IHVService.res
 0004:0023f938       $R228168                   102ae938     IHVService.res
 0004:0023fb48       $R228378                   102aeb48     IHVService.res
 0004:0023fd28       $R228558                   102aed28     IHVService.res
 0004:00240160       $R228990                   102af160     IHVService.res
 0004:00240630       $R228E60                   102af630     IHVService.res
 0004:00240b58       $R229388                   102afb58     IHVService.res
 0004:00240ec0       $R2296F0                   102afec0     IHVService.res
 0004:002416c8       $R229EF8                   102b06c8     IHVService.res
 0004:00241e38       $R22A668                   102b0e38     IHVService.res
 0004:002424c8       $R22ACF8                   102b14c8     IHVService.res
 0004:00242840       $R22B070                   102b1840     IHVService.res
 0004:00243098       $R22B8C8                   102b2098     IHVService.res
 0004:002433a0       $R22BBD0                   102b23a0     IHVService.res
 0004:00243728       $R22BF58                   102b2728     IHVService.res
 0004:002439d8       $R22C208                   102b29d8     IHVService.res
 0004:00243cd8       $R22C508                   102b2cd8     IHVService.res
 0004:00244520       $R22CD50                   102b3520     IHVService.res
 0004:00244a38       $R22D268                   102b3a38     IHVService.res
 0004:00244d18       $R22D548                   102b3d18     IHVService.res
 0004:00245210       $R22DA40                   102b4210     IHVService.res
 0004:002456b0       $R22DEE0                   102b46b0     IHVService.res
 0004:00245d20       $R22E550                   102b4d20     IHVService.res
 0004:00246148       $R22E978                   102b5148     IHVService.res
 0004:002465a8       $R22EDD8                   102b55a8     IHVService.res
 0004:00246988       $R22F1B8                   102b5988     IHVService.res
 0004:00246d98       $R22F5C8                   102b5d98     IHVService.res
 0004:00247168       $R22F998                   102b6168     IHVService.res
 0004:002472f8       $R22FB28                   102b62f8     IHVService.res
 0004:00247578       $R22FDA8                   102b6578     IHVService.res
 0004:002478c8       $R2300F8                   102b68c8     IHVService.res
 0004:00247c08       $R230438                   102b6c08     IHVService.res
 0004:00247db8       $R2305E8                   102b6db8     IHVService.res
 0004:002480e0       $R230910                   102b70e0     IHVService.res
 0004:00248aa0       $R2312D0                   102b7aa0     IHVService.res
 0004:002497a8       $R231FD8                   102b87a8     IHVService.res
 0004:00249c58       $R232488                   102b8c58     IHVService.res
 0004:0024a560       $R232D90                   102b9560     IHVService.res
 0004:0024aac0       $R2332F0                   102b9ac0     IHVService.res
 0004:0024b008       $R233838                   102ba008     IHVService.res
 0004:0024b420       $R233C50                   102ba420     IHVService.res
 0004:0024bc10       $R234440                   102bac10     IHVService.res
 0004:0024c4c8       $R234CF8                   102bb4c8     IHVService.res
 0004:0024c7f0       $R235020                   102bb7f0     IHVService.res
 0004:0024cce8       $R235518                   102bbce8     IHVService.res
 0004:0024d108       $R235938                   102bc108     IHVService.res
 0004:0024d780       $R235FB0                   102bc780     IHVService.res
 0004:0024ddf8       $R236628                   102bcdf8     IHVService.res
 0004:0024e390       $R236BC0                   102bd390     IHVService.res
 0004:0024eb70       $R2373A0                   102bdb70     IHVService.res
 0004:0024f048       $R237878                   102be048     IHVService.res
 0004:0024f550       $R237D80                   102be550     IHVService.res
 0004:0024fac8       $R2382F8                   102beac8     IHVService.res
 0004:002500f0       $R238920                   102bf0f0     IHVService.res
 0004:002506e8       $R238F18                   102bf6e8     IHVService.res
 0004:00250ab0       $R2392E0                   102bfab0     IHVService.res
 0004:00250b38       $R239368                   102bfb38     IHVService.res
 0004:00250c80       $R2394B0                   102bfc80     IHVService.res
 0004:00250de0       $R239610                   102bfde0     IHVService.res
 0004:00250f38       $R239768                   102bff38     IHVService.res
 0004:00251088       $R2398B8                   102c0088     IHVService.res
 0004:002511f8       $R239A28                   102c01f8     IHVService.res
 0004:00251328       $R239B58                   102c0328     IHVService.res
 0004:00251418       $R239C48                   102c0418     IHVService.res
 0004:00251578       $R239DA8                   102c0578     IHVService.res
 0004:002516b8       $R239EE8                   102c06b8     IHVService.res
 0004:002517f8       $R23A028                   102c07f8     IHVService.res
 0004:00251930       $R23A160                   102c0930     IHVService.res
 0004:00251ac8       $R23A2F8                   102c0ac8     IHVService.res
 0004:00251c50       $R23A480                   102c0c50     IHVService.res
 0004:00251df0       $R23A620                   102c0df0     IHVService.res
 0004:00251f78       $R23A7A8                   102c0f78     IHVService.res
 0004:00251fd0       $R23A800                   102c0fd0     IHVService.res
 0004:00252558       $R23AD88                   102c1558     IHVService.res
 0004:00252938       $R23B168                   102c1938     IHVService.res
 0004:00252c28       $R23B458                   102c1c28     IHVService.res
 0004:00252ec8       $R23B6F8                   102c1ec8     IHVService.res
 0004:002533a0       $R23BBD0                   102c23a0     IHVService.res
 0004:002538a0       $R23C0D0                   102c28a0     IHVService.res
 0004:00253c50       $R23C480                   102c2c50     IHVService.res
 0004:002541d0       $R23CA00                   102c31d0     IHVService.res
 0004:00254b68       $R23D398                   102c3b68     IHVService.res
 0004:00254fa0       $R23D7D0                   102c3fa0     IHVService.res
 0004:00255548       $R23DD78                   102c4548     IHVService.res
 0004:00255ab0       $R23E2E0                   102c4ab0     IHVService.res
 0004:00255f68       $R23E798                   102c4f68     IHVService.res
 0004:00256580       $R23EDB0                   102c5580     IHVService.res
 0004:002567d0       $R23F000                   102c57d0     IHVService.res
 0004:00256db0       $R23F5E0                   102c5db0     IHVService.res
 0004:00256f28       $R23F758                   102c5f28     IHVService.res
 0004:00257528       $R23FD58                   102c6528     IHVService.res
 0004:00257750       $R23FF80                   102c6750     IHVService.res
 0004:00257908       $R240138                   102c6908     IHVService.res
 0004:00257dd0       $R240600                   102c6dd0     IHVService.res
 0004:00258310       $R240B40                   102c7310     IHVService.res
 0004:00258878       $R2410A8                   102c7878     IHVService.res
 0004:00258b78       $R2413A8                   102c7b78     IHVService.res
 0004:00259390       $R241BC0                   102c8390     IHVService.res
 0004:00259a00       $R242230                   102c8a00     IHVService.res
 0004:0025a068       $R242898                   102c9068     IHVService.res
 0004:0025a368       $R242B98                   102c9368     IHVService.res
 0004:0025aae8       $R243318                   102c9ae8     IHVService.res
 0004:0025ae18       $R243648                   102c9e18     IHVService.res
 0004:0025b128       $R243958                   102ca128     IHVService.res
 0004:0025b400       $R243C30                   102ca400     IHVService.res
 0004:0025b7d8       $R244008                   102ca7d8     IHVService.res
 0004:0025c098       $R2448C8                   102cb098     IHVService.res
 0004:0025c5d0       $R244E00                   102cb5d0     IHVService.res
 0004:0025c868       $R245098                   102cb868     IHVService.res
 0004:0025cda8       $R2455D8                   102cbda8     IHVService.res
 0004:0025d200       $R245A30                   102cc200     IHVService.res
 0004:0025d8a0       $R2460D0                   102cc8a0     IHVService.res
 0004:0025dcf8       $R246528                   102cccf8     IHVService.res
 0004:0025e1d8       $R246A08                   102cd1d8     IHVService.res
 0004:0025e608       $R246E38                   102cd608     IHVService.res
 0004:0025ea78       $R2472A8                   102cda78     IHVService.res
 0004:0025ee58       $R247688                   102cde58     IHVService.res
 0004:0025f018       $R247848                   102ce018     IHVService.res
 0004:0025f2a0       $R247AD0                   102ce2a0     IHVService.res
 0004:0025f688       $R247EB8                   102ce688     IHVService.res
 0004:0025f9a8       $R2481D8                   102ce9a8     IHVService.res
 0004:0025fb60       $R248390                   102ceb60     IHVService.res
 0004:0025fee8       $R248718                   102ceee8     IHVService.res
 0004:00260830       $R249060                   102cf830     IHVService.res
 0004:00261480       $R249CB0                   102d0480     IHVService.res
 0004:00261978       $R24A1A8                   102d0978     IHVService.res
 0004:00262378       $R24ABA8                   102d1378     IHVService.res
 0004:00262928       $R24B158                   102d1928     IHVService.res
 0004:00262e78       $R24B6A8                   102d1e78     IHVService.res
 0004:002632f0       $R24BB20                   102d22f0     IHVService.res
 0004:00263bf0       $R24C420                   102d2bf0     IHVService.res
 0004:002645f8       $R24CE28                   102d35f8     IHVService.res
 0004:00264a30       $R24D260                   102d3a30     IHVService.res
 0004:00265080       $R24D8B0                   102d4080     IHVService.res
 0004:00265598       $R24DDC8                   102d4598     IHVService.res
 0004:00265c60       $R24E490                   102d4c60     IHVService.res
 0004:002662e8       $R24EB18                   102d52e8     IHVService.res
 0004:00266848       $R24F078                   102d5848     IHVService.res
 0004:00266fd8       $R24F808                   102d5fd8     IHVService.res
 0004:002674e8       $R24FD18                   102d64e8     IHVService.res
 0004:00267a00       $R250230                   102d6a00     IHVService.res
 0004:002680a0       $R2508D0                   102d70a0     IHVService.res
 0004:002686a0       $R250ED0                   102d76a0     IHVService.res
 0004:00268cd0       $R251500                   102d7cd0     IHVService.res
 0004:002690c8       $R2518F8                   102d80c8     IHVService.res
 0004:00269168       $R251998                   102d8168     IHVService.res
 0004:002692a8       $R251AD8                   102d82a8     IHVService.res
 0004:00269410       $R251C40                   102d8410     IHVService.res
 0004:002695a0       $R251DD0                   102d85a0     IHVService.res
 0004:00269760       $R251F90                   102d8760     IHVService.res
 0004:002698e8       $R252118                   102d88e8     IHVService.res
 0004:00269a48       $R252278                   102d8a48     IHVService.res
 0004:00269b38       $R252368                   102d8b38     IHVService.res
 0004:00269c80       $R2524B0                   102d8c80     IHVService.res
 0004:00269db8       $R2525E8                   102d8db8     IHVService.res
 0004:00269f40       $R252770                   102d8f40     IHVService.res
 0004:0026a080       $R2528B0                   102d9080     IHVService.res
 0004:0026a278       $R252AA8                   102d9278     IHVService.res
 0004:0026a3f8       $R252C28                   102d93f8     IHVService.res
 0004:0026a5b8       $R252DE8                   102d95b8     IHVService.res
 0004:0026a740       $R252F70                   102d9740     IHVService.res
 0004:0026a788       $R252FB8                   102d9788     IHVService.res
 0004:0026ad28       $R253558                   102d9d28     IHVService.res
 0004:0026b100       $R253930                   102da100     IHVService.res
 0004:0026b400       $R253C30                   102da400     IHVService.res
 0004:0026b738       $R253F68                   102da738     IHVService.res
 0004:0026bc48       $R254478                   102dac48     IHVService.res
 0004:0026c188       $R2549B8                   102db188     IHVService.res
 0004:0026c538       $R254D68                   102db538     IHVService.res
 0004:0026cb28       $R255358                   102dbb28     IHVService.res
 0004:0026d4e0       $R255D10                   102dc4e0     IHVService.res
 0004:0026d918       $R256148                   102dc918     IHVService.res
 0004:0026df98       $R2567C8                   102dcf98     IHVService.res
 0004:0026e568       $R256D98                   102dd568     IHVService.res
 0004:0026ea28       $R257258                   102dda28     IHVService.res
 0004:0026f030       $R257860                   102de030     IHVService.res
 0004:0026f2a8       $R257AD8                   102de2a8     IHVService.res
 0004:0026f8d0       $R258100                   102de8d0     IHVService.res
 0004:0026fa68       $R258298                   102dea68     IHVService.res
 0004:00270070       $R2588A0                   102df070     IHVService.res
 0004:002702a0       $R258AD0                   102df2a0     IHVService.res
 0004:00270488       $R258CB8                   102df488     IHVService.res
 0004:002709a8       $R2591D8                   102df9a8     IHVService.res
 0004:00270fa0       $R2597D0                   102dffa0     IHVService.res
 0004:00271540       $R259D70                   102e0540     IHVService.res
 0004:00271868       $R25A098                   102e0868     IHVService.res
 0004:002720d8       $R25A908                   102e10d8     IHVService.res
 0004:00272880       $R25B0B0                   102e1880     IHVService.res
 0004:00272ec8       $R25B6F8                   102e1ec8     IHVService.res
 0004:00273210       $R25BA40                   102e2210     IHVService.res
 0004:00273a50       $R25C280                   102e2a50     IHVService.res
 0004:00273da8       $R25C5D8                   102e2da8     IHVService.res
 0004:00274160       $R25C990                   102e3160     IHVService.res
 0004:00274478       $R25CCA8                   102e3478     IHVService.res
 0004:00274810       $R25D040                   102e3810     IHVService.res
 0004:00275180       $R25D9B0                   102e4180     IHVService.res
 0004:002756b0       $R25DEE0                   102e46b0     IHVService.res
 0004:002759a0       $R25E1D0                   102e49a0     IHVService.res
 0004:00275f58       $R25E788                   102e4f58     IHVService.res
 0004:00276450       $R25EC80                   102e5450     IHVService.res
 0004:00276ac8       $R25F2F8                   102e5ac8     IHVService.res
 0004:00276fb8       $R25F7E8                   102e5fb8     IHVService.res
 0004:00277460       $R25FC90                   102e6460     IHVService.res
 0004:00277860       $R260090                   102e6860     IHVService.res
 0004:00277c98       $R2604C8                   102e6c98     IHVService.res
 0004:002780a8       $R2608D8                   102e70a8     IHVService.res
 0004:002782a8       $R260AD8                   102e72a8     IHVService.res
 0004:00278560       $R260D90                   102e7560     IHVService.res
 0004:00278908       $R261138                   102e7908     IHVService.res
 0004:00278c88       $R2614B8                   102e7c88     IHVService.res
 0004:00278e50       $R261680                   102e7e50     IHVService.res
 0004:002791e0       $R261A10                   102e81e0     IHVService.res
 0004:00279a88       $R2622B8                   102e8a88     IHVService.res
 0004:0027a650       $R262E80                   102e9650     IHVService.res
 0004:0027abb8       $R2633E8                   102e9bb8     IHVService.res
 0004:0027b428       $R263C58                   102ea428     IHVService.res
 0004:0027b9e8       $R264218                   102ea9e8     IHVService.res
 0004:0027bf98       $R2647C8                   102eaf98     IHVService.res
 0004:0027c438       $R264C68                   102eb438     IHVService.res
 0004:0027cc88       $R2654B8                   102ebc88     IHVService.res
 0004:0027d5b8       $R265DE8                   102ec5b8     IHVService.res
 0004:0027d980       $R2661B0                   102ec980     IHVService.res
 0004:0027def8       $R266728                   102ecef8     IHVService.res
 0004:0027e370       $R266BA0                   102ed370     IHVService.res
 0004:0027ea38       $R267268                   102eda38     IHVService.res
 0004:0027f1b8       $R2679E8                   102ee1b8     IHVService.res
 0004:0027f710       $R267F40                   102ee710     IHVService.res
 0004:0027fe28       $R268658                   102eee28     IHVService.res
 0004:00280330       $R268B60                   102ef330     IHVService.res
 0004:00280808       $R269038                   102ef808     IHVService.res
 0004:00280e50       $R269680                   102efe50     IHVService.res
 0004:00281458       $R269C88                   102f0458     IHVService.res
 0004:00281aa8       $R26A2D8                   102f0aa8     IHVService.res
 0004:00281ee0       $R26A710                   102f0ee0     IHVService.res
 0004:00281f88       $R26A7B8                   102f0f88     IHVService.res
 0004:002820c0       $R26A8F0                   102f10c0     IHVService.res
 0004:00282220       $R26AA50                   102f1220     IHVService.res
 0004:00282388       $R26ABB8                   102f1388     IHVService.res
 0004:002824d8       $R26AD08                   102f14d8     IHVService.res
 0004:00282670       $R26AEA0                   102f1670     IHVService.res
 0004:002827c0       $R26AFF0                   102f17c0     IHVService.res
 0004:002828d8       $R26B108                   102f18d8     IHVService.res
 0004:002829f0       $R26B220                   102f19f0     IHVService.res
 0004:00282b28       $R26B358                   102f1b28     IHVService.res
 0004:00282cd0       $R26B500                   102f1cd0     IHVService.res
 0004:00282e10       $R26B640                   102f1e10     IHVService.res
 0004:00282fd0       $R26B800                   102f1fd0     IHVService.res
 0004:00283150       $R26B980                   102f2150     IHVService.res
 0004:002832f0       $R26BB20                   102f22f0     IHVService.res
 0004:00283488       $R26BCB8                   102f2488     IHVService.res
 0004:002834e8       $R26BD18                   102f24e8     IHVService.res
 0004:00283ab8       $R26C2E8                   102f2ab8     IHVService.res
 0004:00283e38       $R26C668                   102f2e38     IHVService.res
 0004:00284130       $R26C960                   102f3130     IHVService.res
 0004:00284438       $R26CC68                   102f3438     IHVService.res
 0004:00284910       $R26D140                   102f3910     IHVService.res
 0004:00284e50       $R26D680                   102f3e50     IHVService.res
 0004:002851e8       $R26DA18                   102f41e8     IHVService.res
 0004:002857b0       $R26DFE0                   102f47b0     IHVService.res
 0004:00286198       $R26E9C8                   102f5198     IHVService.res
 0004:002865c0       $R26EDF0                   102f55c0     IHVService.res
 0004:00286ca0       $R26F4D0                   102f5ca0     IHVService.res
 0004:002871c0       $R26F9F0                   102f61c0     IHVService.res
 0004:00287640       $R26FE70                   102f6640     IHVService.res
 0004:00287c08       $R270438                   102f6c08     IHVService.res
 0004:00287e48       $R270678                   102f6e48     IHVService.res
 0004:00288488       $R270CB8                   102f7488     IHVService.res
 0004:00288670       $R270EA0                   102f7670     IHVService.res
 0004:00288ce8       $R271518                   102f7ce8     IHVService.res
 0004:00288f10       $R271740                   102f7f10     IHVService.res
 0004:00289110       $R271940                   102f8110     IHVService.res
 0004:00289628       $R271E58                   102f8628     IHVService.res
 0004:00289bc8       $R2723F8                   102f8bc8     IHVService.res
 0004:0028a108       $R272938                   102f9108     IHVService.res
 0004:0028a410       $R272C40                   102f9410     IHVService.res
 0004:0028acc8       $R2734F8                   102f9cc8     IHVService.res
 0004:0028b3b0       $R273BE0                   102fa3b0     IHVService.res
 0004:0028ba60       $R274290                   102faa60     IHVService.res
 0004:0028bdc8       $R2745F8                   102fadc8     IHVService.res
 0004:0028c698       $R274EC8                   102fb698     IHVService.res
 0004:0028c9a0       $R2751D0                   102fb9a0     IHVService.res
 0004:0028cd20       $R275550                   102fbd20     IHVService.res
 0004:0028d010       $R275840                   102fc010     IHVService.res
 0004:0028d340       $R275B70                   102fc340     IHVService.res
 0004:0028dc30       $R276460                   102fcc30     IHVService.res
 0004:0028e1e8       $R276A18                   102fd1e8     IHVService.res
 0004:0028e4c8       $R276CF8                   102fd4c8     IHVService.res
 0004:0028ea50       $R277280                   102fda50     IHVService.res
 0004:0028ef40       $R277770                   102fdf40     IHVService.res
 0004:0028f5e0       $R277E10                   102fe5e0     IHVService.res
 0004:0028fa38       $R278268                   102fea38     IHVService.res
 0004:0028fef8       $R278728                   102feef8     IHVService.res
 0004:002902e0       $R278B10                   102ff2e0     IHVService.res
 0004:00290730       $R278F60                   102ff730     IHVService.res
 0004:00290b28       $R279358                   102ffb28     IHVService.res
 0004:00290d08       $R279538                   102ffd08     IHVService.res
 0004:00290f90       $R2797C0                   102fff90     IHVService.res
 0004:00291360       $R279B90                   10300360     IHVService.res
 0004:002916c8       $R279EF8                   103006c8     IHVService.res
 0004:00291890       $R27A0C0                   10300890     IHVService.res
 0004:00291c68       $R27A498                   10300c68     IHVService.res
 0004:002925d0       $R27AE00                   103015d0     IHVService.res
 0004:00293200       $R27BA30                   10302200     IHVService.res
 0004:002937f0       $R27C020                   103027f0     IHVService.res
 0004:002941c8       $R27C9F8                   103031c8     IHVService.res
 0004:00294790       $R27CFC0                   10303790     IHVService.res
 0004:00294d08       $R27D538                   10303d08     IHVService.res
 0004:00295200       $R27DA30                   10304200     IHVService.res
 0004:00295b00       $R27E330                   10304b00     IHVService.res
 0004:00296448       $R27EC78                   10305448     IHVService.res
 0004:002967c8       $R27EFF8                   103057c8     IHVService.res
 0004:00296d38       $R27F568                   10305d38     IHVService.res
 0004:00297180       $R27F9B0                   10306180     IHVService.res
 0004:00297880       $R2800B0                   10306880     IHVService.res
 0004:00298040       $R280870                   10307040     IHVService.res
 0004:00298598       $R280DC8                   10307598     IHVService.res
 0004:00298d20       $R281550                   10307d20     IHVService.res
 0004:00299228       $R281A58                   10308228     IHVService.res
 0004:00299798       $R281FC8                   10308798     IHVService.res
 0004:00299e10       $R282640                   10308e10     IHVService.res
 0004:0029a4c8       $R282CF8                   103094c8     IHVService.res
 0004:0029ab40       $R283370                   10309b40     IHVService.res
 0004:0029af48       $R283778                   10309f48     IHVService.res
 0004:0029aff0       $R283820                   10309ff0     IHVService.res
 0004:0029b130       $R283960                   1030a130     IHVService.res
 0004:0029b2a0       $R283AD0                   1030a2a0     IHVService.res
 0004:0029b408       $R283C38                   1030a408     IHVService.res
 0004:0029b548       $R283D78                   1030a548     IHVService.res
 0004:0029b700       $R283F30                   1030a700     IHVService.res
 0004:0029b840       $R284070                   1030a840     IHVService.res
 0004:0029b938       $R284168                   1030a938     IHVService.res
 0004:0029ba50       $R284280                   1030aa50     IHVService.res
 0004:0029bb78       $R2843A8                   1030ab78     IHVService.res
 0004:0029bcc8       $R2844F8                   1030acc8     IHVService.res
 0004:0029be10       $R284640                   1030ae10     IHVService.res
 0004:0029bfb8       $R2847E8                   1030afb8     IHVService.res
 0004:0029c150       $R284980                   1030b150     IHVService.res
 0004:0029c2f8       $R284B28                   1030b2f8     IHVService.res
 0004:0029c498       $R284CC8                   1030b498     IHVService.res
 0004:0029c4e0       $R284D10                   1030b4e0     IHVService.res
 0004:0029ca40       $R285270                   1030ba40     IHVService.res
 0004:0029cda0       $R2855D0                   1030bda0     IHVService.res
 0004:0029d040       $R285870                   1030c040     IHVService.res
 0004:0029d318       $R285B48                   1030c318     IHVService.res
 0004:0029d7b0       $R285FE0                   1030c7b0     IHVService.res
 0004:0029dc68       $R286498                   1030cc68     IHVService.res
 0004:0029dfd8       $R286808                   1030cfd8     IHVService.res
 0004:0029e5a0       $R286DD0                   1030d5a0     IHVService.res
 0004:0029edf0       $R287620                   1030ddf0     IHVService.res
 0004:0029f1e0       $R287A10                   1030e1e0     IHVService.res
 0004:0029f800       $R288030                   1030e800     IHVService.res
 0004:0029fd30       $R288560                   1030ed30     IHVService.res
 0004:002a01e8       $R288A18                   1030f1e8     IHVService.res
 0004:002a07d0       $R289000                   1030f7d0     IHVService.res
 0004:002a0a98       $R2892C8                   1030fa98     IHVService.res
 0004:002a1068       $R289898                   10310068     IHVService.res
 0004:002a1210       $R289A40                   10310210     IHVService.res
 0004:002a17b0       $R289FE0                   103107b0     IHVService.res
 0004:002a1a00       $R28A230                   10310a00     IHVService.res
 0004:002a1bf8       $R28A428                   10310bf8     IHVService.res
 0004:002a2148       $R28A978                   10311148     IHVService.res
 0004:002a26a0       $R28AED0                   103116a0     IHVService.res
 0004:002a2bf0       $R28B420                   10311bf0     IHVService.res
 0004:002a2f48       $R28B778                   10311f48     IHVService.res
 0004:002a3778       $R28BFA8                   10312778     IHVService.res
 0004:002a3e58       $R28C688                   10312e58     IHVService.res
 0004:002a4568       $R28CD98                   10313568     IHVService.res
 0004:002a4898       $R28D0C8                   10313898     IHVService.res
 0004:002a50b0       $R28D8E0                   103140b0     IHVService.res
 0004:002a53e0       $R28DC10                   103143e0     IHVService.res
 0004:002a5750       $R28DF80                   10314750     IHVService.res
 0004:002a5a50       $R28E280                   10314a50     IHVService.res
 0004:002a5dd0       $R28E600                   10314dd0     IHVService.res
 0004:002a66a8       $R28EED8                   103156a8     IHVService.res
 0004:002a6c08       $R28F438                   10315c08     IHVService.res
 0004:002a6ea8       $R28F6D8                   10315ea8     IHVService.res
 0004:002a73f8       $R28FC28                   103163f8     IHVService.res
 0004:002a7890       $R2900C0                   10316890     IHVService.res
 0004:002a7f60       $R290790                   10316f60     IHVService.res
 0004:002a8428       $R290C58                   10317428     IHVService.res
 0004:002a88f8       $R291128                   103178f8     IHVService.res
 0004:002a8ce8       $R291518                   10317ce8     IHVService.res
 0004:002a9140       $R291970                   10318140     IHVService.res
 0004:002a9558       $R291D88                   10318558     IHVService.res
 0004:002a9740       $R291F70                   10318740     IHVService.res
 0004:002a99d8       $R292208                   103189d8     IHVService.res
 0004:002a9dd0       $R292600                   10318dd0     IHVService.res
 0004:002aa110       $R292940                   10319110     IHVService.res
 0004:002aa2e8       $R292B18                   103192e8     IHVService.res
 0004:002aa678       $R292EA8                   10319678     IHVService.res
 0004:002aafc8       $R2937F8                   10319fc8     IHVService.res
 0004:002abb08       $R294338                   1031ab08     IHVService.res
 0004:002abfb8       $R2947E8                   1031afb8     IHVService.res
 0004:002ac928       $R295158                   1031b928     IHVService.res
 0004:002aceb8       $R2956E8                   1031beb8     IHVService.res
 0004:002ad3f8       $R295C28                   1031c3f8     IHVService.res
 0004:002ad860       $R296090                   1031c860     IHVService.res
 0004:002adfe8       $R296818                   1031cfe8     IHVService.res
 0004:002ae900       $R297130                   1031d900     IHVService.res
 0004:002aec98       $R2974C8                   1031dc98     IHVService.res
 0004:002af1b0       $R2979E0                   1031e1b0     IHVService.res
 0004:002af628       $R297E58                   1031e628     IHVService.res
 0004:002afc90       $R2984C0                   1031ec90     IHVService.res
 0004:002b0368       $R298B98                   1031f368     IHVService.res
 0004:002b0898       $R2990C8                   1031f898     IHVService.res
 0004:002b0f88       $R2997B8                   1031ff88     IHVService.res
 0004:002b1440       $R299C70                   10320440     IHVService.res
 0004:002b1910       $R29A140                   10320910     IHVService.res
 0004:002b1eb8       $R29A6E8                   10320eb8     IHVService.res
 0004:002b2490       $R29ACC0                   10321490     IHVService.res
 0004:002b2a68       $R29B298                   10321a68     IHVService.res
 0004:002b2e78       $R29B6A8                   10321e78     IHVService.res
 0004:002b2f08       $R29B738                   10321f08     IHVService.res
 0004:002b3058       $R29B888                   10322058     IHVService.res
 0004:002b31c8       $R29B9F8                   103221c8     IHVService.res
 0004:002b3338       $R29BB68                   10322338     IHVService.res
 0004:002b3488       $R29BCB8                   10322488     IHVService.res
 0004:002b3668       $R29BE98                   10322668     IHVService.res
 0004:002b37a0       $R29BFD0                   103227a0     IHVService.res
 0004:002b38a0       $R29C0D0                   103228a0     IHVService.res
 0004:002b39b0       $R29C1E0                   103229b0     IHVService.res
 0004:002b3ae8       $R29C318                   10322ae8     IHVService.res
 0004:002b3c50       $R29C480                   10322c50     IHVService.res
 0004:002b3d88       $R29C5B8                   10322d88     IHVService.res
 0004:002b3f10       $R29C740                   10322f10     IHVService.res
 0004:002b4088       $R29C8B8                   10323088     IHVService.res
 0004:002b4208       $R29CA38                   10323208     IHVService.res
 0004:002b4390       $R29CBC0                   10323390     IHVService.res
 0004:002b43e0       $R29CC10                   103233e0     IHVService.res
 0004:002b49a0       $R29D1D0                   103239a0     IHVService.res
 0004:002b4cf0       $R29D520                   10323cf0     IHVService.res
 0004:002b4f70       $R29D7A0                   10323f70     IHVService.res
 0004:002b5268       $R29DA98                   10324268     IHVService.res
 0004:002b5780       $R29DFB0                   10324780     IHVService.res
 0004:002b5c20       $R29E450                   10324c20     IHVService.res
 0004:002b5f60       $R29E790                   10324f60     IHVService.res
 0004:002b64d0       $R29ED00                   103254d0     IHVService.res
 0004:002b6e40       $R29F670                   10325e40     IHVService.res
 0004:002b7230       $R29FA60                   10326230     IHVService.res
 0004:002b7828       $R2A0058                   10326828     IHVService.res
 0004:002b7d50       $R2A0580                   10326d50     IHVService.res
 0004:002b8188       $R2A09B8                   10327188     IHVService.res
 0004:002b8730       $R2A0F60                   10327730     IHVService.res
 0004:002b89a8       $R2A11D8                   103279a8     IHVService.res
 0004:002b8f40       $R2A1770                   10327f40     IHVService.res
 0004:002b9118       $R2A1948                   10328118     IHVService.res
 0004:002b96e0       $R2A1F10                   103286e0     IHVService.res
 0004:002b9918       $R2A2148                   10328918     IHVService.res
 0004:002b9af8       $R2A2328                   10328af8     IHVService.res
 0004:002b9ff8       $R2A2828                   10328ff8     IHVService.res
 0004:002ba4f0       $R2A2D20                   103294f0     IHVService.res
 0004:002baa08       $R2A3238                   10329a08     IHVService.res
 0004:002bad40       $R2A3570                   10329d40     IHVService.res
 0004:002bb5b8       $R2A3DE8                   1032a5b8     IHVService.res
 0004:002bbc90       $R2A44C0                   1032ac90     IHVService.res
 0004:002bc2e0       $R2A4B10                   1032b2e0     IHVService.res
 0004:002bc600       $R2A4E30                   1032b600     IHVService.res
 0004:002bcdd8       $R2A5608                   1032bdd8     IHVService.res
 0004:002bd0c8       $R2A58F8                   1032c0c8     IHVService.res
 0004:002bd408       $R2A5C38                   1032c408     IHVService.res
 0004:002bd6c8       $R2A5EF8                   1032c6c8     IHVService.res
 0004:002bda38       $R2A6268                   1032ca38     IHVService.res
 0004:002be2d0       $R2A6B00                   1032d2d0     IHVService.res
 0004:002be868       $R2A7098                   1032d868     IHVService.res
 0004:002beb38       $R2A7368                   1032db38     IHVService.res
 0004:002bf0a8       $R2A78D8                   1032e0a8     IHVService.res
 0004:002bf560       $R2A7D90                   1032e560     IHVService.res
 0004:002bfbb8       $R2A83E8                   1032ebb8     IHVService.res
 0004:002c0000       $R2A8830                   1032f000     IHVService.res
 0004:002c0470       $R2A8CA0                   1032f470     IHVService.res
 0004:002c08b8       $R2A90E8                   1032f8b8     IHVService.res
 0004:002c0d10       $R2A9540                   1032fd10     IHVService.res
 0004:002c1098       $R2A98C8                   10330098     IHVService.res
 0004:002c1258       $R2A9A88                   10330258     IHVService.res
 0004:002c14e8       $R2A9D18                   103304e8     IHVService.res
 0004:002c18c8       $R2AA0F8                   103308c8     IHVService.res
 0004:002c1bf0       $R2AA420                   10330bf0     IHVService.res
 0004:002c1d88       $R2AA5B8                   10330d88     IHVService.res
 0004:002c2190       $R2AA9C0                   10331190     IHVService.res
 0004:002c2998       $R2AB1C8                   10331998     IHVService.res
 0004:002c3478       $R2ABCA8                   10332478     IHVService.res
 0004:002c3948       $R2AC178                   10332948     IHVService.res
 0004:002c4158       $R2AC988                   10333158     IHVService.res
 0004:002c46c0       $R2ACEF0                   103336c0     IHVService.res
 0004:002c4be0       $R2AD410                   10333be0     IHVService.res
 0004:002c5030       $R2AD860                   10334030     IHVService.res
 0004:002c58b8       $R2AE0E8                   103348b8     IHVService.res
 0004:002c61c0       $R2AE9F0                   103351c0     IHVService.res
 0004:002c6550       $R2AED80                   10335550     IHVService.res
 0004:002c6aa0       $R2AF2D0                   10335aa0     IHVService.res
 0004:002c6eb0       $R2AF6E0                   10335eb0     IHVService.res
 0004:002c74e0       $R2AFD10                   103364e0     IHVService.res
 0004:002c7b68       $R2B0398                   10336b68     IHVService.res
 0004:002c8070       $R2B08A0                   10337070     IHVService.res
 0004:002c8760       $R2B0F90                   10337760     IHVService.res
 0004:002c8c30       $R2B1460                   10337c30     IHVService.res
 0004:002c90b8       $R2B18E8                   103380b8     IHVService.res
 0004:002c9690       $R2B1EC0                   10338690     IHVService.res
 0004:002c9c50       $R2B2480                   10338c50     IHVService.res
 0004:002ca240       $R2B2A70                   10339240     IHVService.res
 0004:002ca5c0       $R2B2DF0                   103395c0     IHVService.res
 0004:002ca668       $R2B2E98                   10339668     IHVService.res
 0004:002ca7a8       $R2B2FD8                   103397a8     IHVService.res
 0004:002ca910       $R2B3140                   10339910     IHVService.res
 0004:002caa68       $R2B3298                   10339a68     IHVService.res
 0004:002cabd0       $R2B3400                   10339bd0     IHVService.res
 0004:002cad88       $R2B35B8                   10339d88     IHVService.res
 0004:002caed0       $R2B3700                   10339ed0     IHVService.res
 0004:002cafc0       $R2B37F0                   10339fc0     IHVService.res
 0004:002cb120       $R2B3950                   1033a120     IHVService.res
 0004:002cb258       $R2B3A88                   1033a258     IHVService.res
 0004:002cb3a0       $R2B3BD0                   1033a3a0     IHVService.res
 0004:002cb4d0       $R2B3D00                   1033a4d0     IHVService.res
 0004:002cb690       $R2B3EC0                   1033a690     IHVService.res
 0004:002cb808       $R2B4038                   1033a808     IHVService.res
 0004:002cb9d0       $R2B4200                   1033a9d0     IHVService.res
 0004:002cbb58       $R2B4388                   1033ab58     IHVService.res
 0004:002cbbb0       $R2B43E0                   1033abb0     IHVService.res
 0004:002cc0e0       $R2B4910                   1033b0e0     IHVService.res
 0004:002cc400       $R2B4C30                   1033b400     IHVService.res
 0004:002cc6b0       $R2B4EE0                   1033b6b0     IHVService.res
 0004:002cc958       $R2B5188                   1033b958     IHVService.res
 0004:002ccdd0       $R2B5600                   1033bdd0     IHVService.res
 0004:002cd250       $R2B5A80                   1033c250     IHVService.res
 0004:002cd5d0       $R2B5E00                   1033c5d0     IHVService.res
 0004:002cdb60       $R2B6390                   1033cb60     IHVService.res
 0004:002ce4a8       $R2B6CD8                   1033d4a8     IHVService.res
 0004:002ce898       $R2B70C8                   1033d898     IHVService.res
 0004:002ceea8       $R2B76D8                   1033dea8     IHVService.res
 0004:002cf3a0       $R2B7BD0                   1033e3a0     IHVService.res
 0004:002cf868       $R2B8098                   1033e868     IHVService.res
 0004:002cfd90       $R2B85C0                   1033ed90     IHVService.res
 0004:002d0010       $R2B8840                   1033f010     IHVService.res
 0004:002d0618       $R2B8E48                   1033f618     IHVService.res
 0004:002d07b8       $R2B8FE8                   1033f7b8     IHVService.res
 0004:002d0d68       $R2B9598                   1033fd68     IHVService.res
 0004:002d0f98       $R2B97C8                   1033ff98     IHVService.res
 0004:002d1170       $R2B99A0                   10340170     IHVService.res
 0004:002d1648       $R2B9E78                   10340648     IHVService.res
 0004:002d1b68       $R2BA398                   10340b68     IHVService.res
 0004:002d2058       $R2BA888                   10341058     IHVService.res
 0004:002d2390       $R2BABC0                   10341390     IHVService.res
 0004:002d2b28       $R2BB358                   10341b28     IHVService.res
 0004:002d31d0       $R2BBA00                   103421d0     IHVService.res
 0004:002d3768       $R2BBF98                   10342768     IHVService.res
 0004:002d3ac8       $R2BC2F8                   10342ac8     IHVService.res
 0004:002d4210       $R2BCA40                   10343210     IHVService.res
 0004:002d44d0       $R2BCD00                   103434d0     IHVService.res
 0004:002d4820       $R2BD050                   10343820     IHVService.res
 0004:002d4af0       $R2BD320                   10343af0     IHVService.res
 0004:002d4ea0       $R2BD6D0                   10343ea0     IHVService.res
 0004:002d56a8       $R2BDED8                   103446a8     IHVService.res
 0004:002d5b70       $R2BE3A0                   10344b70     IHVService.res
 0004:002d5e40       $R2BE670                   10344e40     IHVService.res
 0004:002d6370       $R2BEBA0                   10345370     IHVService.res
 0004:002d6848       $R2BF078                   10345848     IHVService.res
 0004:002d6e98       $R2BF6C8                   10345e98     IHVService.res
 0004:002d72f8       $R2BFB28                   103462f8     IHVService.res
 0004:002d7748       $R2BFF78                   10346748     IHVService.res
 0004:002d7b20       $R2C0350                   10346b20     IHVService.res
 0004:002d7f60       $R2C0790                   10346f60     IHVService.res
 0004:002d8338       $R2C0B68                   10347338     IHVService.res
 0004:002d84a8       $R2C0CD8                   103474a8     IHVService.res
 0004:002d86f0       $R2C0F20                   103476f0     IHVService.res
 0004:002d8ad8       $R2C1308                   10347ad8     IHVService.res
 0004:002d8de0       $R2C1610                   10347de0     IHVService.res
 0004:002d8f98       $R2C17C8                   10347f98     IHVService.res
 0004:002d92d8       $R2C1B08                   103482d8     IHVService.res
 0004:002d9c58       $R2C2488                   10348c58     IHVService.res
 0004:002dab08       $R2C3338                   10349b08     IHVService.res
 0004:002db008       $R2C3838                   1034a008     IHVService.res
 0004:002db9b8       $R2C41E8                   1034a9b8     IHVService.res
 0004:002dbf40       $R2C4770                   1034af40     IHVService.res
 0004:002dc448       $R2C4C78                   1034b448     IHVService.res
 0004:002dc880       $R2C50B0                   1034b880     IHVService.res
 0004:002dd058       $R2C5888                   1034c058     IHVService.res
 0004:002dd8e0       $R2C6110                   1034c8e0     IHVService.res
 0004:002ddc88       $R2C64B8                   1034cc88     IHVService.res
 0004:002de238       $R2C6A68                   1034d238     IHVService.res
 0004:002de6c0       $R2C6EF0                   1034d6c0     IHVService.res
 0004:002decc8       $R2C74F8                   1034dcc8     IHVService.res
 0004:002df2a0       $R2C7AD0                   1034e2a0     IHVService.res
 0004:002df780       $R2C7FB0                   1034e780     IHVService.res
 0004:002dfeb0       $R2C86E0                   1034eeb0     IHVService.res
 0004:002e0368       $R2C8B98                   1034f368     IHVService.res
 0004:002e07f0       $R2C9020                   1034f7f0     IHVService.res
 0004:002e0d68       $R2C9598                   1034fd68     IHVService.res
 0004:002e12d0       $R2C9B00                   103502d0     IHVService.res
 0004:002e1868       $R2CA098                   10350868     IHVService.res
 0004:002e1c58       $R2CA488                   10350c58     IHVService.res
 0004:002e1ce8       $R2CA518                   10350ce8     IHVService.res
 0004:002e1e40       $R2CA670                   10350e40     IHVService.res
 0004:002e1fa8       $R2CA7D8                   10350fa8     IHVService.res
 0004:002e2110       $R2CA940                   10351110     IHVService.res
 0004:002e2278       $R2CAAA8                   10351278     IHVService.res
 0004:002e2420       $R2CAC50                   10351420     IHVService.res
 0004:002e2580       $R2CADB0                   10351580     IHVService.res
 0004:002e2680       $R2CAEB0                   10351680     IHVService.res
 0004:002e27d8       $R2CB008                   103517d8     IHVService.res
 0004:002e2910       $R2CB140                   10351910     IHVService.res
 0004:002e2a78       $R2CB2A8                   10351a78     IHVService.res
 0004:002e2ba8       $R2CB3D8                   10351ba8     IHVService.res
 0004:002e2d50       $R2CB580                   10351d50     IHVService.res
 0004:002e2ec8       $R2CB6F8                   10351ec8     IHVService.res
 0004:002e3090       $R2CB8C0                   10352090     IHVService.res
 0004:002e3228       $R2CBA58                   10352228     IHVService.res
 0004:002e3280       $R2CBAB0                   10352280     IHVService.res
 0004:002e3840       $R2CC070                   10352840     IHVService.res
 0004:002e3be0       $R2CC410                   10352be0     IHVService.res
 0004:002e3eb8       $R2CC6E8                   10352eb8     IHVService.res
 0004:002e41b8       $R2CC9E8                   103531b8     IHVService.res
 0004:002e46c0       $R2CCEF0                   103536c0     IHVService.res
 0004:002e4b98       $R2CD3C8                   10353b98     IHVService.res
 0004:002e4f10       $R2CD740                   10353f10     IHVService.res
 0004:002e5550       $R2CDD80                   10354550     IHVService.res
 0004:002e5eb8       $R2CE6E8                   10354eb8     IHVService.res
 0004:002e62e8       $R2CEB18                   103552e8     IHVService.res
 0004:002e69d0       $R2CF200                   103559d0     IHVService.res
 0004:002e6f40       $R2CF770                   10355f40     IHVService.res
 0004:002e7408       $R2CFC38                   10356408     IHVService.res
 0004:002e7a18       $R2D0248                   10356a18     IHVService.res
 0004:002e7c98       $R2D04C8                   10356c98     IHVService.res
 0004:002e82c0       $R2D0AF0                   103572c0     IHVService.res
 0004:002e8458       $R2D0C88                   10357458     IHVService.res
 0004:002e8ab0       $R2D12E0                   10357ab0     IHVService.res
 0004:002e8cf0       $R2D1520                   10357cf0     IHVService.res
 0004:002e8ee0       $R2D1710                   10357ee0     IHVService.res
 0004:002e9400       $R2D1C30                   10358400     IHVService.res
 0004:002e9990       $R2D21C0                   10358990     IHVService.res
 0004:002e9f50       $R2D2780                   10358f50     IHVService.res
 0004:002ea298       $R2D2AC8                   10359298     IHVService.res
 0004:002eab38       $R2D3368                   10359b38     IHVService.res
 0004:002eb2d0       $R2D3B00                   1035a2d0     IHVService.res
 0004:002eb928       $R2D4158                   1035a928     IHVService.res
 0004:002ebc80       $R2D44B0                   1035ac80     IHVService.res
 0004:002ec520       $R2D4D50                   1035b520     IHVService.res
 0004:002ec888       $R2D50B8                   1035b888     IHVService.res
 0004:002ecc70       $R2D54A0                   1035bc70     IHVService.res
 0004:002ecfb0       $R2D57E0                   1035bfb0     IHVService.res
 0004:002ed370       $R2D5BA0                   1035c370     IHVService.res
 0004:002edca0       $R2D64D0                   1035cca0     IHVService.res
 0004:002ee1a8       $R2D69D8                   1035d1a8     IHVService.res
 0004:002ee490       $R2D6CC0                   1035d490     IHVService.res
 0004:002eea40       $R2D7270                   1035da40     IHVService.res
 0004:002eef10       $R2D7740                   1035df10     IHVService.res
 0004:002ef608       $R2D7E38                   1035e608     IHVService.res
 0004:002efb00       $R2D8330                   1035eb00     IHVService.res
 0004:002efff0       $R2D8820                   1035eff0     IHVService.res
 0004:002f0410       $R2D8C40                   1035f410     IHVService.res
 0004:002f0850       $R2D9080                   1035f850     IHVService.res
 0004:002f0c88       $R2D94B8                   1035fc88     IHVService.res
 0004:002f0ed0       $R2D9700                   1035fed0     IHVService.res
 0004:002f11c0       $R2D99F0                   103601c0     IHVService.res
 0004:002f1610       $R2D9E40                   10360610     IHVService.res
 0004:002f19b0       $R2DA1E0                   103609b0     IHVService.res
 0004:002f1ba8       $R2DA3D8                   10360ba8     IHVService.res
 0004:002f1fa8       $R2DA7D8                   10360fa8     IHVService.res
 0004:002f28e8       $R2DB118                   103618e8     IHVService.res
 0004:002f3568       $R2DBD98                   10362568     IHVService.res
 0004:002f3b08       $R2DC338                   10362b08     IHVService.res
 0004:002f4478       $R2DCCA8                   10363478     IHVService.res
 0004:002f4a70       $R2DD2A0                   10363a70     IHVService.res
 0004:002f5078       $R2DD8A8                   10364078     IHVService.res
 0004:002f5560       $R2DDD90                   10364560     IHVService.res
 0004:002f5ea0       $R2DE6D0                   10364ea0     IHVService.res
 0004:002f68e0       $R2DF110                   103658e0     IHVService.res
 0004:002f6d00       $R2DF530                   10365d00     IHVService.res
 0004:002f72d0       $R2DFB00                   103662d0     IHVService.res
 0004:002f7820       $R2E0050                   10366820     IHVService.res
 0004:002f7fc0       $R2E07F0                   10366fc0     IHVService.res
 0004:002f87b8       $R2E0FE8                   103677b8     IHVService.res
 0004:002f8d58       $R2E1588                   10367d58     IHVService.res
 0004:002f9460       $R2E1C90                   10368460     IHVService.res
 0004:002f99a8       $R2E21D8                   103689a8     IHVService.res
 0004:002f9e50       $R2E2680                   10368e50     IHVService.res
 0004:002fa460       $R2E2C90                   10369460     IHVService.res
 0004:002faa68       $R2E3298                   10369a68     IHVService.res
 0004:002fb0a0       $R2E38D0                   1036a0a0     IHVService.res
 0004:002fb490       $R2E3CC0                   1036a490     IHVService.res
 0004:002fb538       $R2E3D68                   1036a538     IHVService.res
 0004:002fb680       $R2E3EB0                   1036a680     IHVService.res
 0004:002fb7e8       $R2E4018                   1036a7e8     IHVService.res
 0004:002fb948       $R2E4178                   1036a948     IHVService.res
 0004:002fbaa0       $R2E42D0                   1036aaa0     IHVService.res
 0004:002fbc50       $R2E4480                   1036ac50     IHVService.res
 0004:002fbd98       $R2E45C8                   1036ad98     IHVService.res
 0004:002fbea0       $R2E46D0                   1036aea0     IHVService.res
 0004:002fbff8       $R2E4828                   1036aff8     IHVService.res
 0004:002fc128       $R2E4958                   1036b128     IHVService.res
 0004:002fc2a0       $R2E4AD0                   1036b2a0     IHVService.res
 0004:002fc3d0       $R2E4C00                   1036b3d0     IHVService.res
 0004:002fc590       $R2E4DC0                   1036b590     IHVService.res
 0004:002fc750       $R2E4F80                   1036b750     IHVService.res
 0004:002fc8e8       $R2E5118                   1036b8e8     IHVService.res
 0004:002fca80       $R2E52B0                   1036ba80     IHVService.res
 0004:002fcad0       $R2E5300                   1036bad0     IHVService.res
 0004:002fd0d0       $R2E5900                   1036c0d0     IHVService.res
 0004:002fd450       $R2E5C80                   1036c450     IHVService.res
 0004:002fd728       $R2E5F58                   1036c728     IHVService.res
 0004:002fd9d0       $R2E6200                   1036c9d0     IHVService.res
 0004:002fdec0       $R2E66F0                   1036cec0     IHVService.res
 0004:002fe410       $R2E6C40                   1036d410     IHVService.res
 0004:002fe780       $R2E6FB0                   1036d780     IHVService.res
 0004:002fed98       $R2E75C8                   1036dd98     IHVService.res
 0004:002ff800       $R2E8030                   1036e800     IHVService.res
 0004:002ffc40       $R2E8470                   1036ec40     IHVService.res
 0004:00300398       $R2E8BC8                   1036f398     IHVService.res
 0004:00300778       $R2E8FA8                   1036f778     IHVService.res
 0004:00300c18       $R2E9448                   1036fc18     IHVService.res
 0004:003011f0       $R2E9A20                   103701f0     IHVService.res
 0004:00301450       $R2E9C80                   10370450     IHVService.res
 0004:00301ad8       $R2EA308                   10370ad8     IHVService.res
 0004:00301c38       $R2EA468                   10370c38     IHVService.res
 0004:003021a8       $R2EA9D8                   103711a8     IHVService.res
 0004:003023b0       $R2EABE0                   103713b0     IHVService.res
 0004:003025b0       $R2EADE0                   103715b0     IHVService.res
 0004:00302a60       $R2EB290                   10371a60     IHVService.res
 0004:00302f80       $R2EB7B0                   10371f80     IHVService.res
 0004:00303480       $R2EBCB0                   10372480     IHVService.res
 0004:00303800       $R2EC030                   10372800     IHVService.res
 0004:00304010       $R2EC840                   10373010     IHVService.res
 0004:00304738       $R2ECF68                   10373738     IHVService.res
 0004:00304db0       $R2ED5E0                   10373db0     IHVService.res
 0004:00305118       $R2ED948                   10374118     IHVService.res
 0004:00305940       $R2EE170                   10374940     IHVService.res
 0004:00305c30       $R2EE460                   10374c30     IHVService.res
 0004:00305fe0       $R2EE810                   10374fe0     IHVService.res
 0004:00306290       $R2EEAC0                   10375290     IHVService.res
 0004:00306598       $R2EEDC8                   10375598     IHVService.res
 0004:00306e60       $R2EF690                   10375e60     IHVService.res
 0004:00307398       $R2EFBC8                   10376398     IHVService.res
 0004:00307650       $R2EFE80                   10376650     IHVService.res
 0004:00307b78       $R2F03A8                   10376b78     IHVService.res
 0004:00307f98       $R2F07C8                   10376f98     IHVService.res
 0004:00308630       $R2F0E60                   10377630     IHVService.res
 0004:00308a80       $R2F12B0                   10377a80     IHVService.res
 0004:00308ec8       $R2F16F8                   10377ec8     IHVService.res
 0004:00309318       $R2F1B48                   10378318     IHVService.res
 0004:00309718       $R2F1F48                   10378718     IHVService.res
 0004:00309af0       $R2F2320                   10378af0     IHVService.res
 0004:00309c90       $R2F24C0                   10378c90     IHVService.res
 0004:00309ef8       $R2F2728                   10378ef8     IHVService.res
 0004:0030a258       $R2F2A88                   10379258     IHVService.res
 0004:0030a540       $R2F2D70                   10379540     IHVService.res
 0004:0030a6c0       $R2F2EF0                   103796c0     IHVService.res
 0004:0030aa80       $R2F32B0                   10379a80     IHVService.res
 0004:0030b370       $R2F3BA0                   1037a370     IHVService.res
 0004:0030bef0       $R2F4720                   1037aef0     IHVService.res
 0004:0030c378       $R2F4BA8                   1037b378     IHVService.res
 0004:0030cbc8       $R2F53F8                   1037bbc8     IHVService.res
 0004:0030d130       $R2F5960                   1037c130     IHVService.res
 0004:0030d670       $R2F5EA0                   1037c670     IHVService.res
 0004:0030dab8       $R2F62E8                   1037cab8     IHVService.res
 0004:0030e260       $R2F6A90                   1037d260     IHVService.res
 0004:0030eb60       $R2F7390                   1037db60     IHVService.res
 0004:0030ee68       $R2F7698                   1037de68     IHVService.res
 0004:0030f338       $R2F7B68                   1037e338     IHVService.res
 0004:0030f770       $R2F7FA0                   1037e770     IHVService.res
 0004:0030fde0       $R2F8610                   1037ede0     IHVService.res
 0004:00310468       $R2F8C98                   1037f468     IHVService.res
 0004:003109e0       $R2F9210                   1037f9e0     IHVService.res
 0004:00311120       $R2F9950                   10380120     IHVService.res
 0004:003115e8       $R2F9E18                   103805e8     IHVService.res
 0004:00311af0       $R2FA320                   10380af0     IHVService.res
 0004:00312078       $R2FA8A8                   10381078     IHVService.res
 0004:00312668       $R2FAE98                   10381668     IHVService.res
 0004:00312c80       $R2FB4B0                   10381c80     IHVService.res
 0004:00313028       $R2FB858                   10382028     IHVService.res
 0004:003130b0       $R2FB8E0                   103820b0     IHVService.res
 0004:00313208       $R2FBA38                   10382208     IHVService.res
 0004:00313350       $R2FBB80                   10382350     IHVService.res
 0004:003134a0       $R2FBCD0                   103824a0     IHVService.res
 0004:003135d8       $R2FBE08                   103825d8     IHVService.res
 0004:00313740       $R2FBF70                   10382740     IHVService.res
 0004:00313878       $R2FC0A8                   10382878     IHVService.res
 0004:00313970       $R2FC1A0                   10382970     IHVService.res
 0004:00313ac0       $R2FC2F0                   10382ac0     IHVService.res
 0004:00313c08       $R2FC438                   10382c08     IHVService.res
 0004:00313d50       $R2FC580                   10382d50     IHVService.res
 0004:00313e70       $R2FC6A0                   10382e70     IHVService.res
 0004:00314010       $R2FC840                   10383010     IHVService.res
 0004:003141b0       $R2FC9E0                   103831b0     IHVService.res
 0004:00314348       $R2FCB78                   10383348     IHVService.res
 0004:003144e8       $R2FCD18                   103834e8     IHVService.res
 0004:00314540       $R2FCD70                   10383540     IHVService.res
 0004:003149c8       $R2FD1F8                   103839c8     IHVService.res
 0004:00314ce8       $R2FD518                   10383ce8     IHVService.res
 0004:00314f78       $R2FD7A8                   10383f78     IHVService.res
 0004:00315230       $R2FDA60                   10384230     IHVService.res
 0004:00315620       $R2FDE50                   10384620     IHVService.res
 0004:00315a88       $R2FE2B8                   10384a88     IHVService.res
 0004:00315dd8       $R2FE608                   10384dd8     IHVService.res
 0004:00316318       $R2FEB48                   10385318     IHVService.res
 0004:00316a18       $R2FF248                   10385a18     IHVService.res
 0004:00316de8       $R2FF618                   10385de8     IHVService.res
 0004:00317330       $R2FFB60                   10386330     IHVService.res
 0004:003177b0       $R2FFFE0                   103867b0     IHVService.res
 0004:00317c08       $R300438                   10386c08     IHVService.res
 0004:00318140       $R300970                   10387140     IHVService.res
 0004:003183a8       $R300BD8                   103873a8     IHVService.res
 0004:00318928       $R301158                   10387928     IHVService.res
 0004:00318ab8       $R3012E8                   10387ab8     IHVService.res
 0004:00319018       $R301848                   10388018     IHVService.res
 0004:00319228       $R301A58                   10388228     IHVService.res
 0004:003193d0       $R301C00                   103883d0     IHVService.res
 0004:00319808       $R302038                   10388808     IHVService.res
 0004:00319cc0       $R3024F0                   10388cc0     IHVService.res
 0004:0031a178       $R3029A8                   10389178     IHVService.res
 0004:0031a468       $R302C98                   10389468     IHVService.res
 0004:0031ab08       $R303338                   10389b08     IHVService.res
 0004:0031b128       $R303958                   1038a128     IHVService.res
 0004:0031b738       $R303F68                   1038a738     IHVService.res
 0004:0031ba28       $R304258                   1038aa28     IHVService.res
 0004:0031c1d8       $R304A08                   1038b1d8     IHVService.res
 0004:0031c4d8       $R304D08                   1038b4d8     IHVService.res
 0004:0031c820       $R305050                   1038b820     IHVService.res
 0004:0031cab8       $R3052E8                   1038bab8     IHVService.res
 0004:0031cdc0       $R3055F0                   1038bdc0     IHVService.res
 0004:0031d570       $R305DA0                   1038c570     IHVService.res
 0004:0031d9d8       $R306208                   1038c9d8     IHVService.res
 0004:0031dc70       $R3064A0                   1038cc70     IHVService.res
 0004:0031e120       $R306950                   1038d120     IHVService.res
 0004:0031e580       $R306DB0                   1038d580     IHVService.res
 0004:0031eb98       $R3073C8                   1038db98     IHVService.res
 0004:0031ef58       $R307788                   1038df58     IHVService.res
 0004:0031f328       $R307B58                   1038e328     IHVService.res
 0004:0031f6b8       $R307EE8                   1038e6b8     IHVService.res
 0004:0031fa30       $R308260                   1038ea30     IHVService.res
 0004:0031fd70       $R3085A0                   1038ed70     IHVService.res
 0004:0031fef0       $R308720                   1038eef0     IHVService.res
 0004:00320110       $R308940                   1038f110     IHVService.res
 0004:00320468       $R308C98                   1038f468     IHVService.res
 0004:00320760       $R308F90                   1038f760     IHVService.res
 0004:00320918       $R309148                   1038f918     IHVService.res
 0004:00320be8       $R309418                   1038fbe8     IHVService.res
 0004:003213f0       $R309C20                   103903f0     IHVService.res
 0004:00321e68       $R30A698                   10390e68     IHVService.res
 0004:00322300       $R30AB30                   10391300     IHVService.res
 0004:00322b50       $R30B380                   10391b50     IHVService.res
 0004:00323048       $R30B878                   10392048     IHVService.res
 0004:003234e8       $R30BD18                   103924e8     IHVService.res
 0004:003238e8       $R30C118                   103928e8     IHVService.res
 0004:00324018       $R30C848                   10393018     IHVService.res
 0004:00324808       $R30D038                   10393808     IHVService.res
 0004:00324b60       $R30D390                   10393b60     IHVService.res
 0004:00325008       $R30D838                   10394008     IHVService.res
 0004:003253e0       $R30DC10                   103943e0     IHVService.res
 0004:00325938       $R30E168                   10394938     IHVService.res
 0004:00325ec0       $R30E6F0                   10394ec0     IHVService.res
 0004:003262c8       $R30EAF8                   103952c8     IHVService.res
 0004:003268e0       $R30F110                   103958e0     IHVService.res
 0004:00326cd8       $R30F508                   10395cd8     IHVService.res
 0004:00327140       $R30F970                   10396140     IHVService.res
 0004:003276a0       $R30FED0                   103966a0     IHVService.res
 0004:00327b78       $R3103A8                   10396b78     IHVService.res
 0004:00328090       $R3108C0                   10397090     IHVService.res
 0004:00328418       $R310C48                   10397418     IHVService.res
 0004:003284a8       $R310CD8                   103974a8     IHVService.res
 0004:00328610       $R310E40                   10397610     IHVService.res
 0004:00328768       $R310F98                   10397768     IHVService.res
 0004:003288b8       $R3110E8                   103978b8     IHVService.res
 0004:00328a08       $R311238                   10397a08     IHVService.res
 0004:00328ba0       $R3113D0                   10397ba0     IHVService.res
 0004:00328ce8       $R311518                   10397ce8     IHVService.res
 0004:00328de8       $R311618                   10397de8     IHVService.res
 0004:00328f20       $R311750                   10397f20     IHVService.res
 0004:00329058       $R311888                   10398058     IHVService.res
 0004:003291c8       $R3119F8                   103981c8     IHVService.res
 0004:00329300       $R311B30                   10398300     IHVService.res
 0004:003295b0       $R311DE0                   103985b0     IHVService.res
 0004:00329748       $R311F78                   10398748     IHVService.res
 0004:003298f8       $R312128                   103988f8     IHVService.res
 0004:00329a88       $R3122B8                   10398a88     IHVService.res
 0004:00329ad8       $R312308                   10398ad8     IHVService.res
 0004:0032a038       $R312868                   10399038     IHVService.res
 0004:0032a360       $R312B90                   10399360     IHVService.res
 0004:0032a580       $R312DB0                   10399580     IHVService.res
 0004:0032a808       $R313038                   10399808     IHVService.res
 0004:0032ac30       $R313460                   10399c30     IHVService.res
 0004:0032b0c0       $R3138F0                   1039a0c0     IHVService.res
 0004:0032b3e8       $R313C18                   1039a3e8     IHVService.res
 0004:0032b930       $R314160                   1039a930     IHVService.res
 0004:0032c158       $R314988                   1039b158     IHVService.res
 0004:0032c528       $R314D58                   1039b528     IHVService.res
 0004:0032ca78       $R3152A8                   1039ba78     IHVService.res
 0004:0032cf00       $R315730                   1039bf00     IHVService.res
 0004:0032d370       $R315BA0                   1039c370     IHVService.res
 0004:0032d878       $R3160A8                   1039c878     IHVService.res
 0004:0032dad0       $R316300                   1039cad0     IHVService.res
 0004:0032e098       $R3168C8                   1039d098     IHVService.res
 0004:0032e1e8       $R316A18                   1039d1e8     IHVService.res
 0004:0032e788       $R316FB8                   1039d788     IHVService.res
 0004:0032e9b0       $R3171E0                   1039d9b0     IHVService.res
 0004:0032eb38       $R317368                   1039db38     IHVService.res
 0004:0032efb8       $R3177E8                   1039dfb8     IHVService.res
 0004:0032f458       $R317C88                   1039e458     IHVService.res
 0004:0032f900       $R318130                   1039e900     IHVService.res
 0004:0032fbe8       $R318418                   1039ebe8     IHVService.res
 0004:00330358       $R318B88                   1039f358     IHVService.res
 0004:003309a0       $R3191D0                   1039f9a0     IHVService.res
 0004:00330f18       $R319748                   1039ff18     IHVService.res
 0004:003311e8       $R319A18                   103a01e8     IHVService.res
 0004:00331980       $R31A1B0                   103a0980     IHVService.res
 0004:00331c68       $R31A498                   103a0c68     IHVService.res
 0004:00331f78       $R31A7A8                   103a0f78     IHVService.res
 0004:003321f0       $R31AA20                   103a11f0     IHVService.res
 0004:003324d8       $R31AD08                   103a14d8     IHVService.res
 0004:00332d30       $R31B560                   103a1d30     IHVService.res
 0004:00333240       $R31BA70                   103a2240     IHVService.res
 0004:00333530       $R31BD60                   103a2530     IHVService.res
 0004:00333a68       $R31C298                   103a2a68     IHVService.res
 0004:00333f10       $R31C740                   103a2f10     IHVService.res
 0004:00334510       $R31CD40                   103a3510     IHVService.res
 0004:003348d0       $R31D100                   103a38d0     IHVService.res
 0004:00334d58       $R31D588                   103a3d58     IHVService.res
 0004:00335128       $R31D958                   103a4128     IHVService.res
 0004:00335508       $R31DD38                   103a4508     IHVService.res
 0004:003358e8       $R31E118                   103a48e8     IHVService.res
 0004:00335ab0       $R31E2E0                   103a4ab0     IHVService.res
 0004:00335d10       $R31E540                   103a4d10     IHVService.res
 0004:003360e8       $R31E918                   103a50e8     IHVService.res
 0004:003363f0       $R31EC20                   103a53f0     IHVService.res
 0004:003365c8       $R31EDF8                   103a55c8     IHVService.res
 0004:00336990       $R31F1C0                   103a5990     IHVService.res
 0004:003370f0       $R31F920                   103a60f0     IHVService.res
 0004:00337ad0       $R320300                   103a6ad0     IHVService.res
 0004:00337f90       $R3207C0                   103a6f90     IHVService.res
 0004:00338940       $R321170                   103a7940     IHVService.res
 0004:00338ea8       $R3216D8                   103a7ea8     IHVService.res
 0004:003393e0       $R321C10                   103a83e0     IHVService.res
 0004:003397d0       $R322000                   103a87d0     IHVService.res
 0004:00339ee8       $R322718                   103a8ee8     IHVService.res
 0004:0033a760       $R322F90                   103a9760     IHVService.res
 0004:0033aad0       $R323300                   103a9ad0     IHVService.res
 0004:0033afc8       $R3237F8                   103a9fc8     IHVService.res
 0004:0033b388       $R323BB8                   103aa388     IHVService.res
 0004:0033b938       $R324168                   103aa938     IHVService.res
 0004:0033bf88       $R3247B8                   103aaf88     IHVService.res
 0004:0033c478       $R324CA8                   103ab478     IHVService.res
 0004:0033cbb8       $R3253E8                   103abbb8     IHVService.res
 0004:0033d018       $R325848                   103ac018     IHVService.res
 0004:0033d4a8       $R325CD8                   103ac4a8     IHVService.res
 0004:0033dac0       $R3262F0                   103acac0     IHVService.res
 0004:0033e0d0       $R326900                   103ad0d0     IHVService.res
 0004:0033e6a0       $R326ED0                   103ad6a0     IHVService.res
 0004:0033ea78       $R3272A8                   103ada78     IHVService.res
 0004:0033eb08       $R327338                   103adb08     IHVService.res
 0004:0033ec58       $R327488                   103adc58     IHVService.res
 0004:0033ed88       $R3275B8                   103add88     IHVService.res
 0004:0033eef0       $R327720                   103adef0     IHVService.res
 0004:0033f078       $R3278A8                   103ae078     IHVService.res
 0004:0033f240       $R327A70                   103ae240     IHVService.res
 0004:0033f390       $R327BC0                   103ae390     IHVService.res
 0004:0033f490       $R327CC0                   103ae490     IHVService.res
 0004:0033f5e8       $R327E18                   103ae5e8     IHVService.res
 0004:0033f708       $R327F38                   103ae708     IHVService.res
 0004:0033f858       $R328088                   103ae858     IHVService.res
 0004:0033f980       $R3281B0                   103ae980     IHVService.res
 0004:0033fb38       $R328368                   103aeb38     IHVService.res
 0004:0033fcb0       $R3284E0                   103aecb0     IHVService.res
 0004:0033fe60       $R328690                   103aee60     IHVService.res
 0004:0033ffd0       $R328800                   103aefd0     IHVService.res
 0004:00340028       $R328858                   103af028     IHVService.res
 0004:00340158       $R328988                   103af158     IHVService.res
 0004:00340620       $R328E50                   103af620     IHVService.res
 0004:00340958       $R329188                   103af958     IHVService.res
 0004:00340c30       $R329460                   103afc30     IHVService.res
 0004:00340e00       $R329630                   103afe00     IHVService.res
 0004:00340f20       $R329750                   103aff20     IHVService.res
 0004:003413d8       $R329C08                   103b03d8     IHVService.res
 0004:00341780       $R329FB0                   103b0780     IHVService.res
 0004:00341a90       $R32A2C0                   103b0a90     IHVService.res
 0004:00341c58       $R32A488                   103b0c58     IHVService.res
 0004:00341d78       $R32A5A8                   103b0d78     IHVService.res
 0004:00342260       $R32AA90                   103b1260     IHVService.res
 0004:00342678       $R32AEA8                   103b1678     IHVService.res
 0004:003429f0       $R32B220                   103b19f0     IHVService.res
 0004:00342bc8       $R32B3F8                   103b1bc8     IHVService.res
 0004:00342ca0       $R32B4D0                   103b1ca0     IHVService.res
 0004:00342fb8       $R32B7E8                   103b1fb8     IHVService.res
 0004:00343160       $R32B990                   103b2160     IHVService.res
 0004:00343398       $R32BBC8                   103b2398     IHVService.res
 0004:00343520       $R32BD50                   103b2520     IHVService.res
 0004:003435e8       $R32BE18                   103b25e8     IHVService.res
 0004:003438d8       $R32C108                   103b28d8     IHVService.res
 0004:00343a78       $R32C2A8                   103b2a78     IHVService.res
 0004:00343ca0       $R32C4D0                   103b2ca0     IHVService.res
 0004:00343e38       $R32C668                   103b2e38     IHVService.res
 0004:00343f78       $R32C7A8                   103b2f78     IHVService.res
 0004:00344458       $R32CC88                   103b3458     IHVService.res
 0004:00344818       $R32D048                   103b3818     IHVService.res
 0004:00344b50       $R32D380                   103b3b50     IHVService.res
 0004:00344d88       $R32D5B8                   103b3d88     IHVService.res
 0004:00344e98       $R32D6C8                   103b3e98     IHVService.res
 0004:00345338       $R32DB68                   103b4338     IHVService.res
 0004:00345720       $R32DF50                   103b4720     IHVService.res
 0004:00345a50       $R32E280                   103b4a50     IHVService.res
 0004:00345c40       $R32E470                   103b4c40     IHVService.res
 0004:00345d58       $R32E588                   103b4d58     IHVService.res
 0004:003461e0       $R32EA10                   103b51e0     IHVService.res
 0004:00346558       $R32ED88                   103b5558     IHVService.res
 0004:00346840       $R32F070                   103b5840     IHVService.res
 0004:00346a08       $R32F238                   103b5a08     IHVService.res
 0004:00346b48       $R32F378                   103b5b48     IHVService.res
 0004:00347000       $R32F830                   103b6000     IHVService.res
 0004:003473a0       $R32FBD0                   103b63a0     IHVService.res
 0004:003476d8       $R32FF08                   103b66d8     IHVService.res
 0004:003478c0       $R3300F0                   103b68c0     IHVService.res
 0004:003479d8       $R330208                   103b69d8     IHVService.res
 0004:00347e70       $R3306A0                   103b6e70     IHVService.res
 0004:003481b0       $R3309E0                   103b71b0     IHVService.res
 0004:00348478       $R330CA8                   103b7478     IHVService.res
 0004:00348648       $R330E78                   103b7648     IHVService.res
 0004:00348ae8       $R331318                   103b7ae8     IHVService.res
 0004:00348c90       $R3314C0                   103b7c90     IHVService.res
 0004:00348e78       $R3316A8                   103b7e78     IHVService.res
 0004:00349100       $R331930                   103b8100     IHVService.res
 0004:003493e8       $R331C18                   103b83e8     IHVService.res
 0004:003494f8       $R331D28                   103b84f8     IHVService.res
 0004:00349978       $R3321A8                   103b8978     IHVService.res
 0004:00349d70       $R3325A0                   103b8d70     IHVService.res
 0004:0034a030       $R332860                   103b9030     IHVService.res
 0004:0034a1f8       $R332A28                   103b91f8     IHVService.res
 0004:0034a310       $R332B40                   103b9310     IHVService.res
 0004:0034a7d0       $R333000                   103b97d0     IHVService.res
 0004:0034ab18       $R333348                   103b9b18     IHVService.res
 0004:0034ae18       $R333648                   103b9e18     IHVService.res
 0004:0034aff0       $R333820                   103b9ff0     IHVService.res
 0004:0034b100       $R333930                   103ba100     IHVService.res
 0004:0034b5d8       $R333E08                   103ba5d8     IHVService.res
 0004:0034b980       $R3341B0                   103ba980     IHVService.res
 0004:0034bcc8       $R3344F8                   103bacc8     IHVService.res
 0004:0034be90       $R3346C0                   103bae90     IHVService.res
 0004:0034bfb0       $R3347E0                   103bafb0     IHVService.res
 0004:0034c470       $R334CA0                   103bb470     IHVService.res
 0004:0034c7f8       $R335028                   103bb7f8     IHVService.res
 0004:0034cb18       $R335348                   103bbb18     IHVService.res
 0004:0034cce8       $R335518                   103bbce8     IHVService.res
 0004:0034ce60       $R335690                   103bbe60     IHVService.res
 0004:0034d398       $R335BC8                   103bc398     IHVService.res
 0004:0034d808       $R336038                   103bc808     IHVService.res
 0004:0034db90       $R3363C0                   103bcb90     IHVService.res
 0004:0034dda0       $R3365D0                   103bcda0     IHVService.res
 0004:0034deb0       $R3366E0                   103bceb0     IHVService.res
 0004:0034e2c8       $R336AF8                   103bd2c8     IHVService.res
 0004:0034e5d8       $R336E08                   103bd5d8     IHVService.res
 0004:0034e8c0       $R3370F0                   103bd8c0     IHVService.res
 0004:0034ea98       $R3372C8                   103bda98     IHVService.res
 0004:0034ebd8       $R337408                   103bdbd8     IHVService.res
 0004:0034f0c8       $R3378F8                   103be0c8     IHVService.res
 0004:0034f4d0       $R337D00                   103be4d0     IHVService.res
 0004:0034f810       $R338040                   103be810     IHVService.res
 0004:0034fa18       $R338248                   103bea18     IHVService.res
 0004:0034fb28       $R338358                   103beb28     IHVService.res
 0004:00350010       $R338840                   103bf010     IHVService.res
 0004:003503a0       $R338BD0                   103bf3a0     IHVService.res
 0004:00350698       $R338EC8                   103bf698     IHVService.res
 0004:00350880       $R3390B0                   103bf880     IHVService.res
 0004:00350980       $R3391B0                   103bf980     IHVService.res
 0004:00350d70       $R3395A0                   103bfd70     IHVService.res
 0004:00350f70       $R3397A0                   103bff70     IHVService.res
 0004:003511f0       $R339A20                   103c01f0     IHVService.res
 0004:00351398       $R339BC8                   103c0398     IHVService.res
 0004:00351480       $R339CB0                   103c0480     IHVService.res
 0004:003517f8       $R33A028                   103c07f8     IHVService.res
 0004:00351a30       $R33A260                   103c0a30     IHVService.res
 0004:00351c88       $R33A4B8                   103c0c88     IHVService.res
 0004:00351e18       $R33A648                   103c0e18     IHVService.res
 0004:00351f40       $R33A770                   103c0f40     IHVService.res
 0004:003523f0       $R33AC20                   103c13f0     IHVService.res
 0004:00352798       $R33AFC8                   103c1798     IHVService.res
 0004:00352aa0       $R33B2D0                   103c1aa0     IHVService.res
 0004:00352c70       $R33B4A0                   103c1c70     IHVService.res
 0004:00352d98       $R33B5C8                   103c1d98     IHVService.res
 0004:00353298       $R33BAC8                   103c2298     IHVService.res
 0004:00353670       $R33BEA0                   103c2670     IHVService.res
 0004:003539b0       $R33C1E0                   103c29b0     IHVService.res
 0004:00353bb8       $R33C3E8                   103c2bb8     IHVService.res
 0004:00353ce0       $R33C510                   103c2ce0     IHVService.res
 0004:00354180       $R33C9B0                   103c3180     IHVService.res
 0004:00354500       $R33CD30                   103c3500     IHVService.res
 0004:003547f0       $R33D020                   103c37f0     IHVService.res
 0004:003549b0       $R33D1E0                   103c39b0     IHVService.res
 0004:00354ad8       $R33D308                   103c3ad8     IHVService.res
 0004:00354fa0       $R33D7D0                   103c3fa0     IHVService.res
 0004:003553a0       $R33DBD0                   103c43a0     IHVService.res
 0004:00355730       $R33DF60                   103c4730     IHVService.res
 0004:00355920       $R33E150                   103c4920     IHVService.res
 0004:00355a30       $R33E260                   103c4a30     IHVService.res
 0004:00355ed0       $R33E700                   103c4ed0     IHVService.res
 0004:00356288       $R33EAB8                   103c5288     IHVService.res
 0004:003565a0       $R33EDD0                   103c55a0     IHVService.res
 0004:00356768       $R33EF98                   103c5768     IHVService.res
 0004:003568a8       $R33F0D8                   103c58a8     IHVService.res
 0004:00356db8       $R33F5E8                   103c5db8     IHVService.res
 0004:003571a8       $R33F9D8                   103c61a8     IHVService.res
 0004:003574c0       $R33FCF0                   103c64c0     IHVService.res
 0004:003576a0       $R33FED0                   103c66a0     IHVService.res
 0004:003577b8       $R33FFE8                   103c67b8     IHVService.res
 0004:00357cb0       $R3404E0                   103c6cb0     IHVService.res
 0004:003580a0       $R3408D0                   103c70a0     IHVService.res
 0004:003583f8       $R340C28                   103c73f8     IHVService.res
 0004:003585e0       $R340E10                   103c75e0     IHVService.res
 0004:00358708       $R340F38                   103c7708     IHVService.res
 0004:00358bd0       $R341400                   103c7bd0     IHVService.res
 0004:00358f20       $R341750                   103c7f20     IHVService.res
 0004:00359248       $R341A78                   103c8248     IHVService.res
 0004:00359448       $R341C78                   103c8448     IHVService.res
 0004:00359560       $R341D90                   103c8560     IHVService.res
 0004:00359a40       $R342270                   103c8a40     IHVService.res
 0004:00359db0       $R3425E0                   103c8db0     IHVService.res
 0004:0035a0b0       $R3428E0                   103c90b0     IHVService.res
 0004:0035a2b0       $R342AE0                   103c92b0     IHVService.res
 0004:0035a3d8       $R342C08                   103c93d8     IHVService.res
 0004:0035a920       $R343150                   103c9920     IHVService.res
 0004:0035ad20       $R343550                   103c9d20     IHVService.res
 0004:0035b050       $R343880                   103ca050     IHVService.res
 0004:0035b270       $R343AA0                   103ca270     IHVService.res
 0004:0035b388       $R343BB8                   103ca388     IHVService.res
 0004:0035b880       $R3440B0                   103ca880     IHVService.res
 0004:0035bc28       $R344458                   103cac28     IHVService.res
 0004:0035bf48       $R344778                   103caf48     IHVService.res
 0004:0035c120       $R344950                   103cb120     IHVService.res
 0004:0035c240       $R344A70                   103cb240     IHVService.res
 0004:0035c780       $R344FB0                   103cb780     IHVService.res
 0004:0035cac8       $R3452F8                   103cbac8     IHVService.res
 0004:0035cda8       $R3455D8                   103cbda8     IHVService.res
 0004:0035cf78       $R3457A8                   103cbf78     IHVService.res
 0004:0035d0a8       $R3458D8                   103cc0a8     IHVService.res
 0004:0035d530       $R345D60                   103cc530     IHVService.res
 0004:0035d888       $R3460B8                   103cc888     IHVService.res
 0004:0035dbb0       $R3463E0                   103ccbb0     IHVService.res
 0004:0035dd98       $R3465C8                   103ccd98     IHVService.res
